 PhysX3CommonDEBUG_x64

 Timestamp is 57f1b32f (Sun Oct  2 21:23:59 2016)

 Preferred load address is 0000000180000000

 Start         Length     Name                   Class
 0001:00000000 0000f218H .text                   CODE
 0001:0000f220 0000b81dH .text$di                CODE
 0001:0001aa40 002991f2H .text$mn                CODE
 0001:002b3c40 00001016H .text$mn$00             CODE
 0001:002b4c60 000020ccH .text$x                 CODE
 0001:002b6d30 0000101aH .text$yd                CODE
 0002:00000000 00000109H .CRT$XCA                DATA
 0002:00000110 00001b35H .CRT$XCU                DATA
 0002:00001c48 00000109H .CRT$XCZ                DATA
 0002:00001d58 00000109H .CRT$XIA                DATA
 0002:00001e68 0000012dH .CRT$XIC                DATA
 0002:00001f98 00000109H .CRT$XIZ                DATA
 0002:000020a8 00000109H .CRT$XPA                DATA
 0002:000021b8 0000011bH .CRT$XPX                DATA
 0002:000022d8 00000109H .CRT$XPXA               DATA
 0002:000023e8 00000109H .CRT$XPZ                DATA
 0002:000024f8 00000109H .CRT$XTA                DATA
 0002:00002608 00000109H .CRT$XTZ                DATA
 0002:00002720 00032f70H .rdata                  DATA
 0002:00035690 00000740H .rdata$r                DATA
 0002:00035dd0 00000113H .rdata$zETW0            DATA
 0002:00035ee3 0000018eH .rdata$zETW1            DATA
 0002:00036071 00000134H .rdata$zETW2            DATA
 0002:000361a5 00000101H .rdata$zETW9            DATA
 0002:000362a8 00000199H .rdata$zzzdbg           DATA
 0002:00036448 00000109H .rtc$IAA                DATA
 0002:00036558 00000a63H .rtc$IMZ                DATA
 0002:00036fc0 00000109H .rtc$IZZ                DATA
 0002:000370d0 00000109H .rtc$TAA                DATA
 0002:000371e0 00000a63H .rtc$TMZ                DATA
 0002:00037c48 00000109H .rtc$TZZ                DATA
 0002:00037d60 0000ed95H .xdata                  DATA
 0002:00046af8 00000275H .xdata$x                DATA
 0002:00046d70 000179eeH .edata                  DATA
 0003:00000000 000014b7H .data                   DATA
 0003:000014c0 00000624H .data$r                 DATA
 0003:00001af0 00005e50H .bss                    DATA
 0004:00000000 00014148H .pdata                  DATA
 0005:00000000 000005e8H .idata$5                DATA
 0005:000005e8 0000003cH .idata$2                DATA
 0005:00000624 00000014H .idata$3                DATA
 0005:00000638 000005e8H .idata$4                DATA
 0005:00000c20 00000a4aH .idata$6                DATA
 0006:00000000 0000011bH .00cfg                  DATA
 0007:00000000 000001c0H .rsrc$01                DATA
 0007:000001c0 000006a9H .rsrc$02                DATA

  Address         Publics by Value              Rva+Base               Lib:Object

 0000:00000000       ___safe_se_handler_table   0000000000000000     <absolute>
 0000:00000000       __guard_fids_count         0000000000000000     <absolute>
 0000:00000000       __guard_fids_table         0000000000000000     <absolute>
 0000:00000000       ___safe_se_handler_count   0000000000000000     <absolute>
 0000:00000100       __guard_flags              0000000000000100     <absolute>
 0000:00000000       __ImageBase                0000000180000000     <linker-defined>
 0001:0000ea90       ?TraceLoggingRegister@__vcrt_trace_logging_provider@@YAJPEBU_TlgProvider_t@1@PEBU_GUID@@P6AX1KE_K2PEAU_EVENT_FILTER_DESCRIPTOR@@PEAX@Z4@Z 000000018000fa90 f i libvcruntimed:telemetry.obj
 0001:0000ebc0       ?TraceLoggingSetInformation@__vcrt_trace_logging_provider@@YAJPEBU_TlgProvider_t@1@W4_EVENT_INFO_CLASS@@PEAXK@Z 000000018000fbc0 f i libvcruntimed:telemetry.obj
 0001:0000ec20       ?TraceLoggingUnregister@__vcrt_trace_logging_provider@@YAXPEBU_TlgProvider_t@1@@Z 000000018000fc20 f i libvcruntimed:telemetry.obj
 0001:0000ec60       ?_TlgCreateSz@__vcrt_trace_logging_provider@@YAXPEAU_EVENT_DATA_DESCRIPTOR@@PEBD@Z 000000018000fc60 f i libvcruntimed:telemetry.obj
 0001:0000ece0       ?_TlgCreateWsz@__vcrt_trace_logging_provider@@YAXPEAU_EVENT_DATA_DESCRIPTOR@@PEB_W@Z 000000018000fce0 f i libvcruntimed:telemetry.obj
 0001:0000ed60       ?_TlgEnableCallback@__vcrt_trace_logging_provider@@YAXPEBU_GUID@@KE_K1PEAU_EVENT_FILTER_DESCRIPTOR@@PEAX@Z 000000018000fd60 f i libvcruntimed:telemetry.obj
 0001:0000eec0       ?_TlgKeywordOn@__vcrt_trace_logging_provider@@YAEPEBU_TlgProvider_t@1@_K@Z 000000018000fec0 f i libvcruntimed:telemetry.obj
 0001:0000ef40       ?_TlgWrite@__vcrt_trace_logging_provider@@YAJPEBU_TlgProvider_t@1@PEFBXPEBU_GUID@@2IPEAU_EVENT_DATA_DESCRIPTOR@@@Z 000000018000ff40 f i libvcruntimed:telemetry.obj
 0001:0001aa40       ?atomicExchange@shdfnd@physx@@YAHPECHH@Z 000000018001ba40 f   PsWindowsAtomic.obj
 0001:0001aa60       ?atomicCompareExchange@shdfnd@physx@@YAHPECHHH@Z 000000018001ba60 f   PsWindowsAtomic.obj
 0001:0001aaa0       ?atomicCompareExchangePointer@shdfnd@physx@@YAPEAXPEAPECXPEAX1@Z 000000018001baa0 f   PsWindowsAtomic.obj
 0001:0001aae0       ?atomicIncrement@shdfnd@physx@@YAHPECH@Z 000000018001bae0 f   PsWindowsAtomic.obj
 0001:0001ab00       ?atomicDecrement@shdfnd@physx@@YAHPECH@Z 000000018001bb00 f   PsWindowsAtomic.obj
 0001:0001ab20       ?atomicAdd@shdfnd@physx@@YAHPECHH@Z 000000018001bb20 f   PsWindowsAtomic.obj
 0001:0001ab80       ?atomicMax@shdfnd@physx@@YAHPECHH@Z 000000018001bb80 f   PsWindowsAtomic.obj
 0001:0001ac40       ?getCpuId@Cpu@shdfnd@physx@@SAEXZ 000000018001bc40 f   PsWindowsCpu.obj
 0001:0001ac90       ??0FPUGuard@shdfnd@physx@@QEAA@XZ 000000018001bc90 f   PsWindowsFPU.obj
 0001:0001acd0       ??1FPUGuard@shdfnd@physx@@QEAA@XZ 000000018001bcd0 f   PsWindowsFPU.obj
 0001:0001ad10       ?enableFPExceptions@shdfnd@physx@@YAXXZ 000000018001bd10 f   PsWindowsFPU.obj
 0001:0001ad40       ?disableFPExceptions@shdfnd@physx@@YAXXZ 000000018001bd40 f   PsWindowsFPU.obj
 0001:0001ad90       ??4FPUGuard@shdfnd@physx@@QEAAAEAV012@AEBV012@@Z 000000018001bd90 f i PsWindowsFPU.obj
 0001:0001adc0       ?__global_array_delete@@YAXPEAX@Z 000000018001bdc0 f i PsWindowsFPU.obj
 0001:0001ade0       ?__global_array_delete@@YAXPEAX_K@Z 000000018001bde0 f i PsWindowsFPU.obj
 0001:0001ae10       ?__global_delete@@YAXPEAX@Z 000000018001be10 f i PsWindowsFPU.obj
 0001:0001ae30       ?__global_delete@@YAXPEAX_K@Z 000000018001be30 f i PsWindowsFPU.obj
 0001:0001ae60       ??0MemoryMappedFile@shdfnd@physx@@QEAA@PEBDI@Z 000000018001be60 f   PsWindowsMemoryMappedFile.obj
 0001:0001af70       ??1MemoryMappedFile@shdfnd@physx@@QEAA@XZ 000000018001bf70 f   PsWindowsMemoryMappedFile.obj
 0001:0001afe0       ?getBaseAddress@MemoryMappedFile@shdfnd@physx@@QEAAPEAXXZ 000000018001bfe0 f   PsWindowsMemoryMappedFile.obj
 0001:0001b060       ??0Allocator@shdfnd@physx@@QEAA@PEBD@Z 000000018001c060 f i PsWindowsMemoryMappedFile.obj
 0001:0001b080       ??0PxFoundation@physx@@QEAA@AEBV01@@Z 000000018001c080 f i PsWindowsMemoryMappedFile.obj
 0001:0001b0b0       ??0PxFoundation@physx@@QEAA@XZ 000000018001c0b0 f i PsWindowsMemoryMappedFile.obj
 0001:0001b0d0       ??1PxFoundation@physx@@MEAA@XZ 000000018001c0d0 f i PsWindowsMemoryMappedFile.obj
 0001:0001b0f0       ??4Allocator@shdfnd@physx@@QEAAAEAV012@$$QEAV012@@Z 000000018001c0f0 f i PsWindowsMemoryMappedFile.obj
 0001:0001b110       ??4Allocator@shdfnd@physx@@QEAAAEAV012@AEBV012@@Z 000000018001c110 f i PsWindowsMemoryMappedFile.obj
 0001:0001b130       ??4ErrorHandler@shdfnd@physx@@QEAAAEAV012@AEBV012@@Z 000000018001c130 f i PsWindowsMemoryMappedFile.obj
 0001:0001b160       ??4MutexImpl@shdfnd@physx@@QEAAAEAV012@AEBV012@@Z 000000018001c160 f i PsWindowsMemoryMappedFile.obj
 0001:0001b180       ??4PAUtils@shdfnd@physx@@QEAAAEAV012@AEBV012@@Z 000000018001c180 f i PsWindowsMemoryMappedFile.obj
 0001:0001b1b0       ??4PxFoundation@physx@@QEAAAEAV01@AEBV01@@Z 000000018001c1b0 f i PsWindowsMemoryMappedFile.obj
 0001:0001b1d0       ??_EPxFoundation@physx@@MEAAPEAXI@Z 000000018001c1d0 f i PsWindowsMemoryMappedFile.obj
 0001:0001b2a0       ??_FAllocator@shdfnd@physx@@QEAAXXZ 000000018001c2a0 f i PsWindowsMemoryMappedFile.obj
 0001:0001b2c0       ??_FNamedAllocator@shdfnd@physx@@QEAAXXZ 000000018001c2c0 f i PsWindowsMemoryMappedFile.obj
 0001:0001b2e0       ??_GPxFoundation@physx@@MEAAPEAXI@Z 000000018001c2e0 f i PsWindowsMemoryMappedFile.obj
 0001:0001b330       ??_I@YAXPEAX_K1P6AX0@Z@Z   000000018001c330 f i PsWindowsMemoryMappedFile.obj
 0001:0001b3f0       ?getAllocator@Foundation@shdfnd@physx@@UEBAAEAVPxBroadcastingAllocator@3@XZ 000000018001c3f0 f i PsWindowsMemoryMappedFile.obj
 0001:0001b410       ?getCallbackCount@ErrorHandler@shdfnd@physx@@QEBAIXZ 000000018001c410 f i PsWindowsMemoryMappedFile.obj
 0001:0001b430       ?getCheckedAllocator@Foundation@shdfnd@physx@@QEAAAEAVPxAllocatorCallback@3@XZ 000000018001c430 f i PsWindowsMemoryMappedFile.obj
 0001:0001b450       ?getErrorCallback@ErrorHandler@shdfnd@physx@@QEBAPEAVPxErrorCallback@3@H@Z 000000018001c450 f i PsWindowsMemoryMappedFile.obj
 0001:0001b470       ?getErrorHandler@Foundation@shdfnd@physx@@QEAAAEAVErrorHandler@23@XZ 000000018001c470 f i PsWindowsMemoryMappedFile.obj
 0001:0001b490       ?getErrorMutex@Foundation@shdfnd@physx@@QEAAAEAV?$MutexT@VAllocator@shdfnd@physx@@@23@XZ 000000018001c490 f i PsWindowsMemoryMappedFile.obj
 0001:0001b4b0       ?getMaxCallbackNum@ErrorHandler@shdfnd@physx@@QEBAIXZ 000000018001c4b0 f i PsWindowsMemoryMappedFile.obj
 0001:0001b4c0       ?getNamedAllocMap@Foundation@shdfnd@physx@@QEAAAEAV?$HashMap@PEBVNamedAllocator@shdfnd@physx@@PEBDU?$Hash@PEBVNamedAllocator@shdfnd@physx@@@23@VNonTrackingAllocator@23@@23@XZ 000000018001c4c0 f i PsWindowsMemoryMappedFile.obj
 0001:0001b4e0       ?getNamedAllocMutex@Foundation@shdfnd@physx@@QEAAAEAV?$MutexT@VAllocator@shdfnd@physx@@@23@XZ 000000018001c4e0 f i PsWindowsMemoryMappedFile.obj
 0001:0001b500       ?getPAUtils@Foundation@shdfnd@physx@@QEAAAEAVPAUtils@23@XZ 000000018001c500 f i PsWindowsMemoryMappedFile.obj
 0001:0001b520       ?getReportAllocationNames@Foundation@shdfnd@physx@@UEBA_NXZ 000000018001c520 f i PsWindowsMemoryMappedFile.obj
 0001:0001b540       ?getTempAllocFreeTable@Foundation@shdfnd@physx@@QEAAAEAV?$Array@PEATTempAllocatorChunk@shdfnd@physx@@VAllocator@23@@23@XZ 000000018001c540 f i PsWindowsMemoryMappedFile.obj
 0001:0001b560       ?getTempAllocMutex@Foundation@shdfnd@physx@@QEAAAEAV?$MutexT@VAllocator@shdfnd@physx@@@23@XZ 000000018001c560 f i PsWindowsMemoryMappedFile.obj
 0001:0001b580       ?setReportAllocationNames@Foundation@shdfnd@physx@@UEAAX_N@Z 000000018001c580 f i PsWindowsMemoryMappedFile.obj
 0001:0001b5a0       ??0PsModuleUpdateLoader@shdfnd@physx@@QEAA@PEBD@Z 000000018001c5a0 f   PsWindowsModuleUpdateLoader.obj
 0001:0001b610       ??1PsModuleUpdateLoader@shdfnd@physx@@QEAA@XZ 000000018001c610 f   PsWindowsModuleUpdateLoader.obj
 0001:0001b650       ?LoadModule@PsModuleUpdateLoader@shdfnd@physx@@QEAAPEAUHINSTANCE__@@PEBD0@Z 000000018001c650 f   PsWindowsModuleUpdateLoader.obj
 0001:0001b700       ??4PsModuleUpdateLoader@shdfnd@physx@@QEAAAEAV012@AEBV012@@Z 000000018001c700 f i PsWindowsModuleUpdateLoader.obj
 0001:0001b730       ?loadLibrary@shdfnd@physx@@YAPEAUHINSTANCE__@@PEBD@Z 000000018001c730 f i PsWindowsModuleUpdateLoader.obj
 0001:0001b750       ??0MutexImpl@shdfnd@physx@@QEAA@XZ 000000018001c750 f   PsWindowsMutex.obj
 0001:0001b790       ??1MutexImpl@shdfnd@physx@@QEAA@XZ 000000018001c790 f   PsWindowsMutex.obj
 0001:0001b7c0       ?lock@MutexImpl@shdfnd@physx@@QEAAXXZ 000000018001c7c0 f   PsWindowsMutex.obj
 0001:0001b810       ?trylock@MutexImpl@shdfnd@physx@@QEAA_NXZ 000000018001c810 f   PsWindowsMutex.obj
 0001:0001b890       ?unlock@MutexImpl@shdfnd@physx@@QEAAXXZ 000000018001c890 f   PsWindowsMutex.obj
 0001:0001b910       ?getSize@MutexImpl@shdfnd@physx@@SAAEBIXZ 000000018001c910 f   PsWindowsMutex.obj
 0001:0001b920       ??0ReadWriteLock@shdfnd@physx@@QEAA@XZ 000000018001c920 f   PsWindowsMutex.obj
 0001:0001b9c0       ??1ReadWriteLock@shdfnd@physx@@QEAA@XZ 000000018001c9c0 f   PsWindowsMutex.obj
 0001:0001ba00       ?lockReader@ReadWriteLock@shdfnd@physx@@QEAAXXZ 000000018001ca00 f   PsWindowsMutex.obj
 0001:0001ba50       ?lockWriter@ReadWriteLock@shdfnd@physx@@QEAAXXZ 000000018001ca50 f   PsWindowsMutex.obj
 0001:0001ba90       ?unlockReader@ReadWriteLock@shdfnd@physx@@QEAAXXZ 000000018001ca90 f   PsWindowsMutex.obj
 0001:0001bab0       ?unlockWriter@ReadWriteLock@shdfnd@physx@@QEAAXXZ 000000018001cab0 f   PsWindowsMutex.obj
 0001:0001bbe0       ??0?$MutexT@V?$ReflectionAllocator@VMutexImpl@shdfnd@physx@@@shdfnd@physx@@@shdfnd@physx@@QEAA@AEBV?$ReflectionAllocator@VMutexImpl@shdfnd@physx@@@12@@Z 000000018001cbe0 f i PsWindowsMutex.obj
 0001:0001bc90       ??0?$ReflectionAllocator@VMutexImpl@shdfnd@physx@@@shdfnd@physx@@QEAA@AEBV012@@Z 000000018001cc90 f i PsWindowsMutex.obj
 0001:0001bcb0       ??0?$ReflectionAllocator@VMutexImpl@shdfnd@physx@@@shdfnd@physx@@QEAA@PEBD@Z 000000018001ccb0 f i PsWindowsMutex.obj
 0001:0001bcd0       ??0ReadWriteLockImpl@shdfnd@physx@@QEAA@XZ 000000018001ccd0 f i PsWindowsMutex.obj
 0001:0001bd10       ??1?$MutexT@V?$ReflectionAllocator@VMutexImpl@shdfnd@physx@@@shdfnd@physx@@@shdfnd@physx@@QEAA@XZ 000000018001cd10 f i PsWindowsMutex.obj
 0001:0001bd50       ??1ReadWriteLockImpl@shdfnd@physx@@QEAA@XZ 000000018001cd50 f i PsWindowsMutex.obj
 0001:0001bd80       ??2@YAPEAX_KPEAX@Z         000000018001cd80 f i PsWindowsMutex.obj
 0001:0001bda0       ??4ThreadImpl@shdfnd@physx@@QEAAAEAV012@AEBV012@@Z 000000018001cda0 f i PsWindowsMutex.obj
 0001:0001bdc0       ??_GMutexImpl@shdfnd@physx@@QEAAPEAXI@Z 000000018001cdc0 f i PsWindowsMutex.obj
 0001:0001be10       ??_GReadWriteLockImpl@shdfnd@physx@@QEAAPEAXI@Z 000000018001ce10 f i PsWindowsMutex.obj
 0001:0001be60       ?__empty_global_delete@@YAXPEAX@Z 000000018001ce60 f i PsWindowsMutex.obj
 0001:0001be70       ?__empty_global_delete@@YAXPEAX_K@Z 000000018001ce70 f i PsWindowsMutex.obj
 0001:0001be80       ?allocate@?$ReflectionAllocator@VMutexImpl@shdfnd@physx@@@shdfnd@physx@@QEAAPEAX_KPEBDH@Z 000000018001ce80 f i PsWindowsMutex.obj
 0001:0001bf20       ?deallocate@?$ReflectionAllocator@VMutexImpl@shdfnd@physx@@@shdfnd@physx@@QEAAXPEAX@Z 000000018001cf20 f i PsWindowsMutex.obj
 0001:0001bf70       ?getFoundation@shdfnd@physx@@YAAEAVFoundation@12@XZ 000000018001cf70 f i PsWindowsMutex.obj
 0001:0001bf90       ?getId@?$ThreadT@V?$ReflectionAllocator@VThreadImpl@shdfnd@physx@@@shdfnd@physx@@@shdfnd@physx@@SA_KXZ 000000018001cf90 f i PsWindowsMutex.obj
 0001:0001bfb0       ?getName@?$ReflectionAllocator@VMutexImpl@shdfnd@physx@@@shdfnd@physx@@CAPEBDXZ 000000018001cfb0 f i PsWindowsMutex.obj
 0001:0001c000       ?lock@?$MutexT@V?$ReflectionAllocator@VMutexImpl@shdfnd@physx@@@shdfnd@physx@@@shdfnd@physx@@QEBAXXZ 000000018001d000 f i PsWindowsMutex.obj
 0001:0001c030       ?name@type_info@@QEBAPEBDXZ 000000018001d030 f i PsWindowsMutex.obj
 0001:0001c060       ?unlock@?$MutexT@V?$ReflectionAllocator@VMutexImpl@shdfnd@physx@@@shdfnd@physx@@@shdfnd@physx@@QEBAXXZ 000000018001d060 f i PsWindowsMutex.obj
 0001:0001c090       ??0PAUtils@shdfnd@physx@@QEAA@XZ 000000018001d090 f   PsWindowsPAEventSrc.obj
 0001:0001c0b0       ??1PAUtils@shdfnd@physx@@QEAA@XZ 000000018001d0b0 f   PsWindowsPAEventSrc.obj
 0001:0001c110       ?isEnabled@PAUtils@shdfnd@physx@@QEAA_NXZ 000000018001d110 f   PsWindowsPAEventSrc.obj
 0001:0001c150       ?isEventEnabled@PAUtils@shdfnd@physx@@QEAA_NG@Z 000000018001d150 f   PsWindowsPAEventSrc.obj
 0001:0001c190       ?registerEvent@PAUtils@shdfnd@physx@@QEAAGPEBD@Z 000000018001d190 f   PsWindowsPAEventSrc.obj
 0001:0001c230       ?startEvent@PAUtils@shdfnd@physx@@QEAAXGG@Z 000000018001d230 f   PsWindowsPAEventSrc.obj
 0001:0001c2f0       ?stopEvent@PAUtils@shdfnd@physx@@QEAAXGG@Z 000000018001d2f0 f   PsWindowsPAEventSrc.obj
 0001:0001c3b0       ?statEvent@PAUtils@shdfnd@physx@@QEAAXGI@Z 000000018001d3b0 f   PsWindowsPAEventSrc.obj
 0001:0001c400       ?statEvent@PAUtils@shdfnd@physx@@QEAAXGII@Z 000000018001d400 f   PsWindowsPAEventSrc.obj
 0001:0001c450       ?debugEvent@PAUtils@shdfnd@physx@@QEAAXGII@Z 000000018001d450 f   PsWindowsPAEventSrc.obj
 0001:0001c4a0       ?rawEvent@PAUtils@shdfnd@physx@@QEAAXGIIE@Z 000000018001d4a0 f   PsWindowsPAEventSrc.obj
 0001:0001c500       ?rawEventWithTimestamp@PAUtils@shdfnd@physx@@QEAA_NG_KIIE@Z 000000018001d500 f   PsWindowsPAEventSrc.obj
 0001:0001c570       ?lock@PAUtils@shdfnd@physx@@QEAA_NXZ 000000018001d570 f   PsWindowsPAEventSrc.obj
 0001:0001c600       ?unlock@PAUtils@shdfnd@physx@@QEAA_NXZ 000000018001d600 f   PsWindowsPAEventSrc.obj
 0001:0001c650       ??0ConnImpl@shdfnd@physx@@QEAA@XZ 000000018001d650 f   PsWindowsPAEventSrc.obj
 0001:0001c940       ??1ConnImpl@shdfnd@physx@@QEAA@XZ 000000018001d940 f   PsWindowsPAEventSrc.obj
 0001:0001cc00       ??$?2V?$ReflectionAllocator@VConnImpl@shdfnd@physx@@@shdfnd@physx@@@UserAllocated@shdfnd@physx@@SAPEAX_KV?$ReflectionAllocator@VConnImpl@shdfnd@physx@@@12@PEBDH@Z 000000018001dc00 f i PsWindowsPAEventSrc.obj
 0001:0001cc50       ??0?$ReflectionAllocator@VConnImpl@shdfnd@physx@@@shdfnd@physx@@QEAA@PEBD@Z 000000018001dc50 f i PsWindowsPAEventSrc.obj
 0001:0001cc70       ??3UserAllocated@shdfnd@physx@@SAXPEAX@Z 000000018001dc70 f i PsWindowsPAEventSrc.obj
 0001:0001cca0       ??_GConnImpl@shdfnd@physx@@QEAAPEAXI@Z 000000018001dca0 f i PsWindowsPAEventSrc.obj
 0001:0001cd10       ?GetProcID@ConnImpl@shdfnd@physx@@QEAAEXZ 000000018001dd10 f i PsWindowsPAEventSrc.obj
 0001:0001cd70       ?GetThreadPriority@ConnImpl@shdfnd@physx@@QEAAIXZ 000000018001dd70 f i PsWindowsPAEventSrc.obj
 0001:0001cdf0       ?allocate@?$ReflectionAllocator@VConnImpl@shdfnd@physx@@@shdfnd@physx@@QEAAPEAX_KPEBDH@Z 000000018001ddf0 f i PsWindowsPAEventSrc.obj
 0001:0001ce90       ?eventEnabled@ConnImpl@shdfnd@physx@@QEAA_NG@Z 000000018001de90 f i PsWindowsPAEventSrc.obj
 0001:0001cee0       ?eventLoggingEnabled@ConnImpl@shdfnd@physx@@QEAA_NXZ 000000018001dee0 f i PsWindowsPAEventSrc.obj
 0001:0001cf20       ?getName@?$ReflectionAllocator@VConnImpl@shdfnd@physx@@@shdfnd@physx@@CAPEBDXZ 000000018001df20 f i PsWindowsPAEventSrc.obj
 0001:0001cf70       ?registerEvent@ConnImpl@shdfnd@physx@@QEAAGPEBD@Z 000000018001df70 f i PsWindowsPAEventSrc.obj
 0001:0001cfc0       ?submitEvent@ConnImpl@shdfnd@physx@@QEAA_NGIIE@Z 000000018001dfc0 f i PsWindowsPAEventSrc.obj
 0001:0001d030       ?printFormatted@shdfnd@physx@@YAXPEBDZZ 000000018001e030 f   PsWindowsPrintString.obj
 0001:0001d0a0       ?printString@shdfnd@physx@@YAXPEBD@Z 000000018001e0a0 f   PsWindowsPrintString.obj
 0001:0001d100       ??$__vcrt_va_start_verify_argument_type@PEBD@@YAXXZ 000000018001e100 f i PsWindowsPrintString.obj
 0001:0001d110       __local_stdio_printf_options 000000018001e110 f i PsWindowsPrintString.obj
 0001:0001d120       _vsprintf_s_l              000000018001e120 f i PsWindowsPrintString.obj
 0001:0001d1b0       vsprintf_s                 000000018001e1b0 f i PsWindowsPrintString.obj
 0001:0001d200       ??0SListImpl@shdfnd@physx@@QEAA@XZ 000000018001e200 f   PsWindowsSList.obj
 0001:0001d230       ??1SListImpl@shdfnd@physx@@QEAA@XZ 000000018001e230 f   PsWindowsSList.obj
 0001:0001d240       ?push@SListImpl@shdfnd@physx@@QEAAXPEAVSListEntry@23@@Z 000000018001e240 f   PsWindowsSList.obj
 0001:0001d280       ?pop@SListImpl@shdfnd@physx@@QEAAPEAVSListEntry@23@XZ 000000018001e280 f   PsWindowsSList.obj
 0001:0001d2b0       ?flush@SListImpl@shdfnd@physx@@QEAAPEAVSListEntry@23@XZ 000000018001e2b0 f   PsWindowsSList.obj
 0001:0001d2e0       ?getSize@SListImpl@shdfnd@physx@@SAAEBIXZ 000000018001e2e0 f   PsWindowsSList.obj
 0001:0001d340       ??4SListImpl@shdfnd@physx@@QEAAAEAU012@AEBU012@@Z 000000018001e340 f i PsWindowsSList.obj
 0001:0001d360       ??0Socket@shdfnd@physx@@QEAA@_N@Z 000000018001e360 f   PsWindowsSocket.obj
 0001:0001d4a0       ??1Socket@shdfnd@physx@@UEAA@XZ 000000018001e4a0 f   PsWindowsSocket.obj
 0001:0001d520       ?connect@Socket@shdfnd@physx@@QEAA_NPEBDGI@Z 000000018001e520 f   PsWindowsSocket.obj
 0001:0001d570       ?listen@Socket@shdfnd@physx@@QEAA_NGPEAVConnection@123@@Z 000000018001e570 f   PsWindowsSocket.obj
 0001:0001d5b0       ?disconnect@Socket@shdfnd@physx@@QEAAXXZ 000000018001e5b0 f   PsWindowsSocket.obj
 0001:0001d5e0       ?isConnected@Socket@shdfnd@physx@@QEBA_NXZ 000000018001e5e0 f   PsWindowsSocket.obj
 0001:0001d610       ?getHost@Socket@shdfnd@physx@@QEBAPEBDXZ 000000018001e610 f   PsWindowsSocket.obj
 0001:0001d640       ?getPort@Socket@shdfnd@physx@@QEBAGXZ 000000018001e640 f   PsWindowsSocket.obj
 0001:0001d670       ?flush@Socket@shdfnd@physx@@QEAA_NXZ 000000018001e670 f   PsWindowsSocket.obj
 0001:0001d6c0       ?write@Socket@shdfnd@physx@@QEAAIPEBEI@Z 000000018001e6c0 f   PsWindowsSocket.obj
 0001:0001d720       ?read@Socket@shdfnd@physx@@QEAAIPEAEI@Z 000000018001e720 f   PsWindowsSocket.obj
 0001:0001d770       ?setBlocking@Socket@shdfnd@physx@@QEAAX_N@Z 000000018001e770 f   PsWindowsSocket.obj
 0001:0001d7c0       ?isBlocking@Socket@shdfnd@physx@@QEBA_NXZ 000000018001e7c0 f   PsWindowsSocket.obj
 0001:0001d800       ??0SocketImpl@shdfnd@physx@@QEAA@XZ 000000018001e800 f   PsWindowsSocket.obj
 0001:0001d910       ??1SocketImpl@shdfnd@physx@@UEAA@XZ 000000018001e910 f   PsWindowsSocket.obj
 0001:0001d950       ?connect@SocketImpl@shdfnd@physx@@QEAA_NPEBDGI@Z 000000018001e950 f   PsWindowsSocket.obj
 0001:0001dcc0       ?listen@SocketImpl@shdfnd@physx@@QEAA_NGPEAVConnection@Socket@23@@Z 000000018001ecc0 f   PsWindowsSocket.obj
 0001:0001ddd0       ?disconnect@SocketImpl@shdfnd@physx@@QEAAXXZ 000000018001edd0 f   PsWindowsSocket.obj
 0001:0001de80       ?setBlocking@SocketImpl@shdfnd@physx@@QEAAX_N@Z 000000018001ee80 f   PsWindowsSocket.obj
 0001:0001df00       ?write@SocketImpl@shdfnd@physx@@UEAAIPEBEI@Z 000000018001ef00 f   PsWindowsSocket.obj
 0001:0001df70       ?flush@SocketImpl@shdfnd@physx@@UEAA_NXZ 000000018001ef70 f   PsWindowsSocket.obj
 0001:0001df80       ?read@SocketImpl@shdfnd@physx@@QEAAIPEAEI@Z 000000018001ef80 f   PsWindowsSocket.obj
 0001:0001e070       ?execute@SocketImpl@shdfnd@physx@@UEAAXXZ 000000018001f070 f   PsWindowsSocket.obj
 0001:0001e100       ??0BufferedSocketImpl@shdfnd@physx@@QEAA@XZ 000000018001f100 f   PsWindowsSocket.obj
 0001:0001e140       ?flush@BufferedSocketImpl@shdfnd@physx@@UEAA_NXZ 000000018001f140 f   PsWindowsSocket.obj
 0001:0001e200       ?write@BufferedSocketImpl@shdfnd@physx@@UEAAIPEBEI@Z 000000018001f200 f   PsWindowsSocket.obj
 0001:0001e770       ??0?$ReflectionAllocator@VThreadImpl@shdfnd@physx@@@shdfnd@physx@@QEAA@AEBV012@@Z 000000018001f770 f i PsWindowsSocket.obj
 0001:0001e790       ??0?$ReflectionAllocator@VThreadImpl@shdfnd@physx@@@shdfnd@physx@@QEAA@PEBD@Z 000000018001f790 f i PsWindowsSocket.obj
 0001:0001e7b0       ??0?$ThreadT@V?$ReflectionAllocator@VThreadImpl@shdfnd@physx@@@shdfnd@physx@@@shdfnd@physx@@QEAA@AEBV?$ReflectionAllocator@VThreadImpl@shdfnd@physx@@@12@@Z 000000018001f7b0 f i PsWindowsSocket.obj
 0001:0001e890       ??0Runnable@shdfnd@physx@@QEAA@XZ 000000018001f890 f i PsWindowsSocket.obj
 0001:0001e8b0       ??0Socket@shdfnd@physx@@QEAA@AEBV012@@Z 000000018001f8b0 f i PsWindowsSocket.obj
 0001:0001e920       ??1?$ThreadT@V?$ReflectionAllocator@VThreadImpl@shdfnd@physx@@@shdfnd@physx@@@shdfnd@physx@@UEAA@XZ 000000018001f920 f i PsWindowsSocket.obj
 0001:0001e990       ??1BufferedSocketImpl@shdfnd@physx@@UEAA@XZ 000000018001f990 f i PsWindowsSocket.obj
 0001:0001e9c0       ??1Runnable@shdfnd@physx@@UEAA@XZ 000000018001f9c0 f i PsWindowsSocket.obj
 0001:0001e9e0       ??2UserAllocated@shdfnd@physx@@SAPEAX_KPEAX@Z 000000018001f9e0 f i PsWindowsSocket.obj
 0001:0001ea00       ??4Socket@shdfnd@physx@@QEAAAEAV012@AEBV012@@Z 000000018001fa00 f i PsWindowsSocket.obj
 0001:0001ea30       ??_ESocket@shdfnd@physx@@UEAAPEAXI@Z 000000018001fa30 f i PsWindowsSocket.obj
 0001:0001eb40       ??_FSocket@shdfnd@physx@@QEAAXXZ 000000018001fb40 f i PsWindowsSocket.obj
 0001:0001eb60       ??_G?$ThreadT@V?$ReflectionAllocator@VThreadImpl@shdfnd@physx@@@shdfnd@physx@@@shdfnd@physx@@UEAAPEAXI@Z 000000018001fb60 f i PsWindowsSocket.obj
 0001:0001eb60       ??_E?$ThreadT@V?$ReflectionAllocator@VThreadImpl@shdfnd@physx@@@shdfnd@physx@@@shdfnd@physx@@UEAAPEAXI@Z 000000018001fb60 f i PsWindowsSocket.obj
 0001:0001ebd0       ??_GBufferedSocketImpl@shdfnd@physx@@UEAAPEAXI@Z 000000018001fbd0 f i PsWindowsSocket.obj
 0001:0001ebd0       ??_EBufferedSocketImpl@shdfnd@physx@@UEAAPEAXI@Z 000000018001fbd0 f i PsWindowsSocket.obj
 0001:0001ec40       ??_ERunnable@shdfnd@physx@@UEAAPEAXI@Z 000000018001fc40 f i PsWindowsSocket.obj
 0001:0001ec40       ??_GRunnable@shdfnd@physx@@UEAAPEAXI@Z 000000018001fc40 f i PsWindowsSocket.obj
 0001:0001ec90       ??_GSocket@shdfnd@physx@@UEAAPEAXI@Z 000000018001fc90 f i PsWindowsSocket.obj
 0001:0001ed00       ??_ESocketImpl@shdfnd@physx@@UEAAPEAXI@Z 000000018001fd00 f i PsWindowsSocket.obj
 0001:0001ed00       ??_GSocketImpl@shdfnd@physx@@UEAAPEAXI@Z 000000018001fd00 f i PsWindowsSocket.obj
 0001:0001ed70       ??_GThreadImpl@shdfnd@physx@@QEAAPEAXI@Z 000000018001fd70 f i PsWindowsSocket.obj
 0001:0001edc0       ??_VUserAllocated@shdfnd@physx@@SAXPEAX@Z 000000018001fdc0 f i PsWindowsSocket.obj
 0001:0001edf0       ?PxMemCopy@physx@@YAPEAXPEIAXPEIBXI@Z 000000018001fdf0 f i PsWindowsSocket.obj
 0001:0001ee30       ?PxMemSet@physx@@YAPEAXPEIAXHI@Z 000000018001fe30 f i PsWindowsSocket.obj
 0001:0001ee70       ?allocate@?$ReflectionAllocator@VThreadImpl@shdfnd@physx@@@shdfnd@physx@@QEAAPEAX_KPEBDH@Z 000000018001fe70 f i PsWindowsSocket.obj
 0001:0001ef10       ?deallocate@?$ReflectionAllocator@VThreadImpl@shdfnd@physx@@@shdfnd@physx@@QEAAXPEAX@Z 000000018001ff10 f i PsWindowsSocket.obj
 0001:0001ef60       ?execute@?$ThreadT@V?$ReflectionAllocator@VThreadImpl@shdfnd@physx@@@shdfnd@physx@@@shdfnd@physx@@UEAAXXZ 000000018001ff60 f i PsWindowsSocket.obj
 0001:0001ef70       ?execute@Runnable@shdfnd@physx@@UEAAXXZ 000000018001ff70 f i PsWindowsSocket.obj
 0001:0001ef80       ?getDefaultStackSize@?$ThreadT@V?$ReflectionAllocator@VThreadImpl@shdfnd@physx@@@shdfnd@physx@@@shdfnd@physx@@SAIXZ 000000018001ff80 f i PsWindowsSocket.obj
 0001:0001efa0       ?getHost@SocketImpl@shdfnd@physx@@QEBAPEBDXZ 000000018001ffa0 f i PsWindowsSocket.obj
 0001:0001efc0       ?getName@?$ReflectionAllocator@VThreadImpl@shdfnd@physx@@@shdfnd@physx@@CAPEBDXZ 000000018001ffc0 f i PsWindowsSocket.obj
 0001:0001f010       ?getPort@SocketImpl@shdfnd@physx@@QEBAGXZ 0000000180020010 f i PsWindowsSocket.obj
 0001:0001f030       ?isBlocking@SocketImpl@shdfnd@physx@@QEBA_NXZ 0000000180020030 f i PsWindowsSocket.obj
 0001:0001f050       ?isConnected@SocketImpl@shdfnd@physx@@QEBA_NXZ 0000000180020050 f i PsWindowsSocket.obj
 0001:0001f070       ?memCopy@intrinsics@physx@@YAPEAXPEIAXPEIBXI@Z 0000000180020070 f i PsWindowsSocket.obj
 0001:0001f0b0       ?memSet@intrinsics@physx@@YAPEAXPEIAXHI@Z 00000001800200b0 f i PsWindowsSocket.obj
 0001:0001f100       ?quit@?$ThreadT@V?$ReflectionAllocator@VThreadImpl@shdfnd@physx@@@shdfnd@physx@@@shdfnd@physx@@QEAAXXZ 0000000180020100 f i PsWindowsSocket.obj
 0001:0001f130       ?quitIsSignalled@?$ThreadT@V?$ReflectionAllocator@VThreadImpl@shdfnd@physx@@@shdfnd@physx@@@shdfnd@physx@@QEAA_NXZ 0000000180020130 f i PsWindowsSocket.obj
 0001:0001f160       ?signalQuit@?$ThreadT@V?$ReflectionAllocator@VThreadImpl@shdfnd@physx@@@shdfnd@physx@@@shdfnd@physx@@QEAAXXZ 0000000180020160 f i PsWindowsSocket.obj
 0001:0001f190       ?sleep@?$ThreadT@V?$ReflectionAllocator@VThreadImpl@shdfnd@physx@@@shdfnd@physx@@@shdfnd@physx@@SAXI@Z 0000000180020190 f i PsWindowsSocket.obj
 0001:0001f1b0       ?start@?$ThreadT@V?$ReflectionAllocator@VThreadImpl@shdfnd@physx@@@shdfnd@physx@@@shdfnd@physx@@QEAAXI@Z 00000001800201b0 f i PsWindowsSocket.obj
 0001:0001f1f0       ?waitForQuit@?$ThreadT@V?$ReflectionAllocator@VThreadImpl@shdfnd@physx@@@shdfnd@physx@@@shdfnd@physx@@QEAA_NXZ 00000001800201f0 f i PsWindowsSocket.obj
 0001:0001f220       ??0SyncImpl@shdfnd@physx@@QEAA@XZ 0000000180020220 f   PsWindowsSync.obj
 0001:0001f270       ??1SyncImpl@shdfnd@physx@@QEAA@XZ 0000000180020270 f   PsWindowsSync.obj
 0001:0001f2a0       ?wait@SyncImpl@shdfnd@physx@@QEAA_NI@Z 00000001800202a0 f   PsWindowsSync.obj
 0001:0001f300       ?set@SyncImpl@shdfnd@physx@@QEAAXXZ 0000000180020300 f   PsWindowsSync.obj
 0001:0001f330       ?reset@SyncImpl@shdfnd@physx@@QEAAXXZ 0000000180020330 f   PsWindowsSync.obj
 0001:0001f360       ?getSize@SyncImpl@shdfnd@physx@@SAAEBIXZ 0000000180020360 f   PsWindowsSync.obj
 0001:0001f3e0       ??4SyncImpl@shdfnd@physx@@QEAAAEAV012@AEBV012@@Z 00000001800203e0 f i PsWindowsSync.obj
 0001:0001f400       ?getDefaultStackSize@ThreadImpl@shdfnd@physx@@SAIXZ 0000000180020400 f   PsWindowsThread.obj
 0001:0001f410       ?getId@ThreadImpl@shdfnd@physx@@SA_KXZ 0000000180020410 f   PsWindowsThread.obj
 0001:0001f430       ??0ThreadImpl@shdfnd@physx@@QEAA@XZ 0000000180020430 f   PsWindowsThread.obj
 0001:0001f4c0       ??0ThreadImpl@shdfnd@physx@@QEAA@P6APEAXPEAX@Z0@Z 00000001800204c0 f   PsWindowsThread.obj
 0001:0001f560       ??1ThreadImpl@shdfnd@physx@@QEAA@XZ 0000000180020560 f   PsWindowsThread.obj
 0001:0001f5b0       ?start@ThreadImpl@shdfnd@physx@@QEAAXIPEAVRunnable@23@@Z 00000001800205b0 f   PsWindowsThread.obj
 0001:0001f6c0       ?kill@ThreadImpl@shdfnd@physx@@QEAAXXZ 00000001800206c0 f   PsWindowsThread.obj
 0001:0001f710       ?signalQuit@ThreadImpl@shdfnd@physx@@QEAAXXZ 0000000180020710 f   PsWindowsThread.obj
 0001:0001f740       ?waitForQuit@ThreadImpl@shdfnd@physx@@QEAA_NXZ 0000000180020740 f   PsWindowsThread.obj
 0001:0001f790       ?quitIsSignalled@ThreadImpl@shdfnd@physx@@QEAA_NXZ 0000000180020790 f   PsWindowsThread.obj
 0001:0001f7f0       ?quit@ThreadImpl@shdfnd@physx@@QEAAXXZ 00000001800207f0 f   PsWindowsThread.obj
 0001:0001f820       ?setAffinityMask@ThreadImpl@shdfnd@physx@@QEAAII@Z 0000000180020820 f   PsWindowsThread.obj
 0001:0001f890       ?getPriority@ThreadImpl@shdfnd@physx@@SA?AW4Enum@ThreadPriority@23@_K@Z 0000000180020890 f   PsWindowsThread.obj
 0001:0001f910       ?setPriority@ThreadImpl@shdfnd@physx@@QEAAXW4Enum@ThreadPriority@23@@Z 0000000180020910 f   PsWindowsThread.obj
 0001:0001f9e0       ?setName@ThreadImpl@shdfnd@physx@@QEAAXPEBD@Z 00000001800209e0 f   PsWindowsThread.obj
 0001:0001fa40       ?sleep@ThreadImpl@shdfnd@physx@@SAXI@Z 0000000180020a40 f   PsWindowsThread.obj
 0001:0001fa60       ?yield@ThreadImpl@shdfnd@physx@@SAXXZ 0000000180020a60 f   PsWindowsThread.obj
 0001:0001fa80       ?getNbPhysicalCores@ThreadImpl@shdfnd@physx@@SAIXZ 0000000180020a80 f   PsWindowsThread.obj
 0001:0001fc70       ?getSize@ThreadImpl@shdfnd@physx@@SAAEBIXZ 0000000180020c70 f   PsWindowsThread.obj
 0001:0001fc80       ?TlsAlloc@shdfnd@physx@@YAIXZ 0000000180020c80 f   PsWindowsThread.obj
 0001:0001fd00       ?TlsFree@shdfnd@physx@@YAXI@Z 0000000180020d00 f   PsWindowsThread.obj
 0001:0001fd20       ?TlsGet@shdfnd@physx@@YAPEAXI@Z 0000000180020d20 f   PsWindowsThread.obj
 0001:0001fd40       ?TlsSet@shdfnd@physx@@YAIIPEAX@Z 0000000180020d40 f   PsWindowsThread.obj
 0001:00020070       ??$PX_UNUSED@K@@YAXAEBK@Z  0000000180021070 f i PsWindowsThread.obj
 0001:00020080       ?getBootCounterFrequency@Time@shdfnd@physx@@SAAEBUCounterFrequencyToTensOfNanos@23@XZ 0000000180021080 f   PsWindowsTime.obj
 0001:00020090       ?getCounterFrequency@Time@shdfnd@physx@@SA?AUCounterFrequencyToTensOfNanos@23@XZ 0000000180021090 f   PsWindowsTime.obj
 0001:000200d0       ?getCurrentCounterValue@Time@shdfnd@physx@@SA_KXZ 00000001800210d0 f   PsWindowsTime.obj
 0001:000200f0       ??0Time@shdfnd@physx@@QEAA@XZ 00000001800210f0 f   PsWindowsTime.obj
 0001:00020120       ?getElapsedSeconds@Time@shdfnd@physx@@QEAANXZ 0000000180021120 f   PsWindowsTime.obj
 0001:00020170       ?peekElapsedSeconds@Time@shdfnd@physx@@QEAANXZ 0000000180021170 f   PsWindowsTime.obj
 0001:000201a0       ?getLastTime@Time@shdfnd@physx@@QEBANXZ 00000001800211a0 f   PsWindowsTime.obj
 0001:00020270       ??0CounterFrequencyToTensOfNanos@shdfnd@physx@@QEAA@_K0@Z 0000000180021270 f i PsWindowsTime.obj
 0001:000202b0       ??4Time@shdfnd@physx@@QEAAAEAV012@$$QEAV012@@Z 00000001800212b0 f i PsWindowsTime.obj
 0001:000202e0       ??4Time@shdfnd@physx@@QEAAAEAV012@AEBV012@@Z 00000001800212e0 f i PsWindowsTime.obj
 0001:00020310       ?getCurrentTimeInTensOfNanoSeconds@Time@shdfnd@physx@@SA_KXZ 0000000180021310 f i PsWindowsTime.obj
 0001:00020340       ?toTensOfNanos@CounterFrequencyToTensOfNanos@shdfnd@physx@@QEBA_K_K@Z 0000000180021340 f i PsWindowsTime.obj
 0001:00020370       ?allocate@Allocator@shdfnd@physx@@QEAAPEAX_KPEBDH@Z 0000000180021370 f   PsAllocator.obj
 0001:000203e0       ?deallocate@Allocator@shdfnd@physx@@QEAAXPEAX@Z 00000001800213e0 f   PsAllocator.obj
 0001:00020420       ??0NamedAllocator@shdfnd@physx@@QEAA@AEBW4PxEMPTY@2@@Z 0000000180021420 f   PsAllocator.obj
 0001:00020470       ??0NamedAllocator@shdfnd@physx@@QEAA@PEBD@Z 0000000180021470 f   PsAllocator.obj
 0001:000204d0       ??0NamedAllocator@shdfnd@physx@@QEAA@AEBV012@@Z 00000001800214d0 f   PsAllocator.obj
 0001:000205a0       ??1NamedAllocator@shdfnd@physx@@QEAA@XZ 00000001800215a0 f   PsAllocator.obj
 0001:00020650       ??4NamedAllocator@shdfnd@physx@@QEAAAEAV012@AEBV012@@Z 0000000180021650 f   PsAllocator.obj
 0001:00020730       ?allocate@NamedAllocator@shdfnd@physx@@QEAAPEAX_KPEBDH@Z 0000000180021730 f   PsAllocator.obj
 0001:00020840       ?deallocate@NamedAllocator@shdfnd@physx@@QEAAXPEAX@Z 0000000180021840 f   PsAllocator.obj
 0001:000209c0       ??$PX_UNUSED@_N@@YAXAEB_N@Z 00000001800219c0 f i PsAllocator.obj
 0001:000209d0       ??0?$Pair@QEBVNamedAllocator@shdfnd@physx@@PEBD@shdfnd@physx@@QEAA@AEBQEBVNamedAllocator@12@AEBQEBD@Z 00000001800219d0 f i PsAllocator.obj
 0001:00020a20       ??0?$Pair@QEBVNamedAllocator@shdfnd@physx@@PEBD@shdfnd@physx@@QEAA@AEBV012@@Z 0000000180021a20 f i PsAllocator.obj
 0001:00020a60       ??0ScopedLock@?$MutexT@VAllocator@shdfnd@physx@@@shdfnd@physx@@QEAA@AEAV123@@Z 0000000180021a60 f i PsAllocator.obj
 0001:00020aa0       ??1ScopedLock@?$MutexT@VAllocator@shdfnd@physx@@@shdfnd@physx@@QEAA@XZ 0000000180021aa0 f i PsAllocator.obj
 0001:00020ad0       ??A?$HashMapBase@PEBVNamedAllocator@shdfnd@physx@@PEBDU?$Hash@PEBVNamedAllocator@shdfnd@physx@@@23@VNonTrackingAllocator@23@@internal@shdfnd@physx@@QEAAAEAPEBDAEBQEBVNamedAllocator@23@@Z 0000000180021ad0 f i PsAllocator.obj
 0001:00020b80       ??R?$Hash@PEBVNamedAllocator@shdfnd@physx@@@shdfnd@physx@@QEBAIAEBQEBVNamedAllocator@12@@Z 0000000180021b80 f i PsAllocator.obj
 0001:00020bb0       ??R?$Hash@PEBVNamedAllocator@shdfnd@physx@@@shdfnd@physx@@QEBA_NAEBQEBVNamedAllocator@12@0@Z 0000000180021bb0 f i PsAllocator.obj
 0001:00020c00       ??RGetKey@?$HashMapBase@PEBVNamedAllocator@shdfnd@physx@@PEBDU?$Hash@PEBVNamedAllocator@shdfnd@physx@@@23@VNonTrackingAllocator@23@@internal@shdfnd@physx@@QEAAAEBQEBVNamedAllocator@34@AEBV?$Pair@QEBVNamedAllocator@shdfnd@physx@@PEBD@34@@Z 0000000180021c00 f i PsAllocator.obj
 0001:00020c20       ?allocate@NonTrackingAllocator@shdfnd@physx@@QEAAPEAX_KPEBDH@Z 0000000180021c20 f i PsAllocator.obj
 0001:00020ca0       ?create@?$HashBase@V?$Pair@QEBVNamedAllocator@shdfnd@physx@@PEBD@shdfnd@physx@@PEBVNamedAllocator@23@U?$Hash@PEBVNamedAllocator@shdfnd@physx@@@23@UGetKey@?$HashMapBase@PEBVNamedAllocator@shdfnd@physx@@PEBDU?$Hash@PEBVNamedAllocator@shdfnd@physx@@@23@VNonTrackingAllocator@23@@internal@23@VNonTrackingAllocator@23@$00@internal@shdfnd@physx@@QEAAPEAV?$Pair@QEBVNamedAllocator@shdfnd@physx@@PEBD@34@AEBQEBVNamedAllocator@34@AEA_N@Z 0000000180021ca0 f i PsAllocator.obj
 0001:00020eb0       ?deallocate@NonTrackingAllocator@shdfnd@physx@@QEAAXPEAX@Z 0000000180021eb0 f i PsAllocator.obj
 0001:00020f10       ?erase@?$HashBase@V?$Pair@QEBVNamedAllocator@shdfnd@physx@@PEBD@shdfnd@physx@@PEBVNamedAllocator@23@U?$Hash@PEBVNamedAllocator@shdfnd@physx@@@23@UGetKey@?$HashMapBase@PEBVNamedAllocator@shdfnd@physx@@PEBDU?$Hash@PEBVNamedAllocator@shdfnd@physx@@@23@VNonTrackingAllocator@23@@internal@23@VNonTrackingAllocator@23@$00@internal@shdfnd@physx@@QEAA_NAEBQEBVNamedAllocator@34@@Z 0000000180021f10 f i PsAllocator.obj
 0001:000210a0       ?erase@?$HashMapBase@PEBVNamedAllocator@shdfnd@physx@@PEBDU?$Hash@PEBVNamedAllocator@shdfnd@physx@@@23@VNonTrackingAllocator@23@@internal@shdfnd@physx@@QEAA_NAEBQEBVNamedAllocator@34@@Z 00000001800220a0 f i PsAllocator.obj
 0001:000210d0       ?find@?$HashBase@V?$Pair@QEBVNamedAllocator@shdfnd@physx@@PEBD@shdfnd@physx@@PEBVNamedAllocator@23@U?$Hash@PEBVNamedAllocator@shdfnd@physx@@@23@UGetKey@?$HashMapBase@PEBVNamedAllocator@shdfnd@physx@@PEBDU?$Hash@PEBVNamedAllocator@shdfnd@physx@@@23@VNonTrackingAllocator@23@@internal@23@VNonTrackingAllocator@23@$00@internal@shdfnd@physx@@QEBAPEBV?$Pair@QEBVNamedAllocator@shdfnd@physx@@PEBD@34@AEBQEBVNamedAllocator@34@@Z 00000001800220d0 f i PsAllocator.obj
 0001:000211d0       ?find@?$HashMapBase@PEBVNamedAllocator@shdfnd@physx@@PEBDU?$Hash@PEBVNamedAllocator@shdfnd@physx@@@23@VNonTrackingAllocator@23@@internal@shdfnd@physx@@QEBAPEBV?$Pair@QEBVNamedAllocator@shdfnd@physx@@PEBD@34@AEBQEBVNamedAllocator@34@@Z 00000001800221d0 f i PsAllocator.obj
 0001:00021200       ?freeListAdd@?$HashBase@V?$Pair@QEBVNamedAllocator@shdfnd@physx@@PEBD@shdfnd@physx@@PEBVNamedAllocator@23@U?$Hash@PEBVNamedAllocator@shdfnd@physx@@@23@UGetKey@?$HashMapBase@PEBVNamedAllocator@shdfnd@physx@@PEBDU?$Hash@PEBVNamedAllocator@shdfnd@physx@@@23@VNonTrackingAllocator@23@@internal@23@VNonTrackingAllocator@23@$00@internal@shdfnd@physx@@AEAAXI@Z 0000000180022200 f i PsAllocator.obj
 0001:000212e0       ?freeListAdd@?$HashBase@V?$Pair@QEBVNamedAllocator@shdfnd@physx@@PEBD@shdfnd@physx@@PEBVNamedAllocator@23@U?$Hash@PEBVNamedAllocator@shdfnd@physx@@@23@UGetKey@?$HashMapBase@PEBVNamedAllocator@shdfnd@physx@@PEBDU?$Hash@PEBVNamedAllocator@shdfnd@physx@@@23@VNonTrackingAllocator@23@@internal@23@VNonTrackingAllocator@23@$00@internal@shdfnd@physx@@AEAAXII@Z 00000001800222e0 f i PsAllocator.obj
 0001:00021410       ?freeListEmpty@?$HashBase@V?$Pair@QEBVNamedAllocator@shdfnd@physx@@PEBD@shdfnd@physx@@PEBVNamedAllocator@23@U?$Hash@PEBVNamedAllocator@shdfnd@physx@@@23@UGetKey@?$HashMapBase@PEBVNamedAllocator@shdfnd@physx@@PEBDU?$Hash@PEBVNamedAllocator@shdfnd@physx@@@23@VNonTrackingAllocator@23@@internal@23@VNonTrackingAllocator@23@$00@internal@shdfnd@physx@@AEBA_NXZ 0000000180022410 f i PsAllocator.obj
 0001:00021490       ?freeListGetNext@?$HashBase@V?$Pair@QEBVNamedAllocator@shdfnd@physx@@PEBD@shdfnd@physx@@PEBVNamedAllocator@23@U?$Hash@PEBVNamedAllocator@shdfnd@physx@@@23@UGetKey@?$HashMapBase@PEBVNamedAllocator@shdfnd@physx@@PEBDU?$Hash@PEBVNamedAllocator@shdfnd@physx@@@23@VNonTrackingAllocator@23@@internal@23@VNonTrackingAllocator@23@$00@internal@shdfnd@physx@@AEAAIXZ 0000000180022490 f i PsAllocator.obj
 0001:00021630       ?grow@?$HashBase@V?$Pair@QEBVNamedAllocator@shdfnd@physx@@PEBD@shdfnd@physx@@PEBVNamedAllocator@23@U?$Hash@PEBVNamedAllocator@shdfnd@physx@@@23@UGetKey@?$HashMapBase@PEBVNamedAllocator@shdfnd@physx@@PEBDU?$Hash@PEBVNamedAllocator@shdfnd@physx@@@23@VNonTrackingAllocator@23@@internal@23@VNonTrackingAllocator@23@$00@internal@shdfnd@physx@@AEAAXXZ 0000000180022630 f i PsAllocator.obj
 0001:00021710       ?hash@?$HashBase@V?$Pair@QEBVNamedAllocator@shdfnd@physx@@PEBD@shdfnd@physx@@PEBVNamedAllocator@23@U?$Hash@PEBVNamedAllocator@shdfnd@physx@@@23@UGetKey@?$HashMapBase@PEBVNamedAllocator@shdfnd@physx@@PEBDU?$Hash@PEBVNamedAllocator@shdfnd@physx@@@23@VNonTrackingAllocator@23@@internal@23@VNonTrackingAllocator@23@$00@internal@shdfnd@physx@@AEBAIAEBQEBVNamedAllocator@34@@Z 0000000180022710 f i PsAllocator.obj
 0001:00021750       ?hash@?$HashBase@V?$Pair@QEBVNamedAllocator@shdfnd@physx@@PEBD@shdfnd@physx@@PEBVNamedAllocator@23@U?$Hash@PEBVNamedAllocator@shdfnd@physx@@@23@UGetKey@?$HashMapBase@PEBVNamedAllocator@shdfnd@physx@@PEBDU?$Hash@PEBVNamedAllocator@shdfnd@physx@@@23@VNonTrackingAllocator@23@@internal@23@VNonTrackingAllocator@23@$00@internal@shdfnd@physx@@AEBAIAEBQEBVNamedAllocator@34@I@Z 0000000180022750 f i PsAllocator.obj
 0001:00021790       ?hash@shdfnd@physx@@YAIPEBX@Z 0000000180022790 f i PsAllocator.obj
 0001:000217b0       ?hash@shdfnd@physx@@YAI_K@Z 00000001800227b0 f i PsAllocator.obj
 0001:000218c0       ?insert@?$HashMapBase@PEBVNamedAllocator@shdfnd@physx@@PEBDU?$Hash@PEBVNamedAllocator@shdfnd@physx@@@23@VNonTrackingAllocator@23@@internal@shdfnd@physx@@QEAA_NQEBVNamedAllocator@34@QEBD@Z 00000001800228c0 f i PsAllocator.obj
 0001:00021990       ?isPowerOfTwo@shdfnd@physx@@YA_NI@Z 0000000180022990 f i PsAllocator.obj
 0001:000219e0       ?lock@?$MutexT@VAllocator@shdfnd@physx@@@shdfnd@physx@@QEBAXXZ 00000001800229e0 f i PsAllocator.obj
 0001:00021a10       ?nextPowerOfTwo@shdfnd@physx@@YAII@Z 0000000180022a10 f i PsAllocator.obj
 0001:00021aa0       ?replaceWithLast@?$HashBase@V?$Pair@QEBVNamedAllocator@shdfnd@physx@@PEBD@shdfnd@physx@@PEBVNamedAllocator@23@U?$Hash@PEBVNamedAllocator@shdfnd@physx@@@23@UGetKey@?$HashMapBase@PEBVNamedAllocator@shdfnd@physx@@PEBDU?$Hash@PEBVNamedAllocator@shdfnd@physx@@@23@VNonTrackingAllocator@23@@internal@23@VNonTrackingAllocator@23@$00@internal@shdfnd@physx@@AEAAXI@Z 0000000180022aa0 f i PsAllocator.obj
 0001:00021c60       ?reserve@?$HashBase@V?$Pair@QEBVNamedAllocator@shdfnd@physx@@PEBD@shdfnd@physx@@PEBVNamedAllocator@23@U?$Hash@PEBVNamedAllocator@shdfnd@physx@@@23@UGetKey@?$HashMapBase@PEBVNamedAllocator@shdfnd@physx@@PEBDU?$Hash@PEBVNamedAllocator@shdfnd@physx@@@23@VNonTrackingAllocator@23@@internal@23@VNonTrackingAllocator@23@$00@internal@shdfnd@physx@@QEAAXI@Z 0000000180022c60 f i PsAllocator.obj
 0001:00021ca0       ?reserveInternal@?$HashBase@V?$Pair@QEBVNamedAllocator@shdfnd@physx@@PEBD@shdfnd@physx@@PEBVNamedAllocator@23@U?$Hash@PEBVNamedAllocator@shdfnd@physx@@@23@UGetKey@?$HashMapBase@PEBVNamedAllocator@shdfnd@physx@@PEBDU?$Hash@PEBVNamedAllocator@shdfnd@physx@@@23@VNonTrackingAllocator@23@@internal@23@VNonTrackingAllocator@23@$00@internal@shdfnd@physx@@AEAAXI@Z 0000000180022ca0 f i PsAllocator.obj
 0001:000223a0       ?unlock@?$MutexT@VAllocator@shdfnd@physx@@@shdfnd@physx@@QEBAXXZ 00000001800233a0 f i PsAllocator.obj
 0001:000223d0       ?PxGetAssertHandler@physx@@YAAEAVPxAssertHandler@1@XZ 00000001800233d0 f   PsAssert.obj
 0001:000223e0       ?PxSetAssertHandler@physx@@YAXAEAVPxAssertHandler@1@@Z 00000001800233e0 f   PsAssert.obj
 0001:00022400       ??$__vcrt_va_start_verify_argument_type@QEBD@@YAXXZ 0000000180023400 f i PsAssert.obj
 0001:00022450       ??0PxAssertHandler@physx@@QEAA@XZ 0000000180023450 f i PsAssert.obj
 0001:00022490       ??1PxAssertHandler@physx@@UEAA@XZ 0000000180023490 f i PsAssert.obj
 0001:000225e0       ??_GDefaultAssertHandler@?A0xc000d1f8@@UEAAPEAXI@Z 00000001800235e0 f i PsAssert.obj
 0001:000225e0       ??_EDefaultAssertHandler@?A0xc000d1f8@@UEAAPEAXI@Z 00000001800235e0 f i PsAssert.obj
 0001:00022630       ??_EPxAssertHandler@physx@@UEAAPEAXI@Z 0000000180023630 f i PsAssert.obj
 0001:00022630       ??_GPxAssertHandler@physx@@UEAAPEAXI@Z 0000000180023630 f i PsAssert.obj
 0001:00022680       _vsnprintf_l               0000000180023680 f i PsAssert.obj
 0001:00022720       _vsprintf_l                0000000180023720 f i PsAssert.obj
 0001:00022780       sprintf                    0000000180023780 f i PsAssert.obj
 0001:000227f0       ??0ErrorHandler@shdfnd@physx@@QEAA@XZ 00000001800237f0 f   PsErrorHandler.obj
 0001:00022850       ??1ErrorHandler@shdfnd@physx@@QEAA@XZ 0000000180023850 f   PsErrorHandler.obj
 0001:000228c0       ?reportError@ErrorHandler@shdfnd@physx@@QEAAXW4Enum@PxErrorCode@3@PEBD1H@Z 00000001800238c0 f   PsErrorHandler.obj
 0001:00022970       ?registerErrorCallback@ErrorHandler@shdfnd@physx@@QEAAHAEAVPxErrorCallback@3@@Z 0000000180023970 f   PsErrorHandler.obj
 0001:00022a90       ?unRegisterErrorCallback@ErrorHandler@shdfnd@physx@@QEAAXAEAVPxErrorCallback@3@@Z 0000000180023a90 f   PsErrorHandler.obj
 0001:00022af0       ?unRegisterErrorCallback@ErrorHandler@shdfnd@physx@@QEAAXH@Z 0000000180023af0 f   PsErrorHandler.obj
 0001:00022c90       ?lowestSetBit@shdfnd@physx@@YAII@Z 0000000180023c90 f i PsErrorHandler.obj
 0001:00022d10       ?lowestSetBitUnsafe@shdfnd@physx@@YAII@Z 0000000180023d10 f i PsErrorHandler.obj
 0001:00022d30       ?createFastIPC@shdfnd@physx@@YAPEAVPxIPC@12@AEAW4ErrorCode@312@W4ConnectionType@312@PEBDII_N3I@Z 0000000180023d30 f   PsFastIPC.obj
 0001:00022ec0       ??$?2V?$ReflectionAllocator@VFastIPC@shdfnd@physx@@@shdfnd@physx@@@UserAllocated@shdfnd@physx@@SAPEAX_KV?$ReflectionAllocator@VFastIPC@shdfnd@physx@@@12@PEBDH@Z 0000000180023ec0 f i PsFastIPC.obj
 0001:00022f10       ??$?2V?$ReflectionAllocator@VMemoryMappedFile@shdfnd@physx@@@shdfnd@physx@@@UserAllocated@shdfnd@physx@@SAPEAX_KV?$ReflectionAllocator@VMemoryMappedFile@shdfnd@physx@@@12@PEBDH@Z 0000000180023f10 f i PsFastIPC.obj
 0001:00022f60       ??$?2V?$ReflectionAllocator@VMultiPartData@PxRingBuffer@shdfnd@physx@@@shdfnd@physx@@@UserAllocated@shdfnd@physx@@SAPEAX_KV?$ReflectionAllocator@VMultiPartData@PxRingBuffer@shdfnd@physx@@@12@PEBDH@Z 0000000180023f60 f i PsFastIPC.obj
 0001:00022fb0       ??$?2V?$ReflectionAllocator@VMultiPartPacket@PxRingBuffer@shdfnd@physx@@@shdfnd@physx@@@UserAllocated@shdfnd@physx@@SAPEAX_KV?$ReflectionAllocator@VMultiPartPacket@PxRingBuffer@shdfnd@physx@@@12@PEBDH@Z 0000000180023fb0 f i PsFastIPC.obj
 0001:00023000       ??0?$ReflectionAllocator@VFastIPC@shdfnd@physx@@@shdfnd@physx@@QEAA@PEBD@Z 0000000180024000 f i PsFastIPC.obj
 0001:00023020       ??0?$ReflectionAllocator@VMemoryMappedFile@shdfnd@physx@@@shdfnd@physx@@QEAA@PEBD@Z 0000000180024020 f i PsFastIPC.obj
 0001:00023040       ??0?$ReflectionAllocator@VMultiPartData@PxRingBuffer@shdfnd@physx@@@shdfnd@physx@@QEAA@PEBD@Z 0000000180024040 f i PsFastIPC.obj
 0001:00023060       ??0?$ReflectionAllocator@VMultiPartPacket@PxRingBuffer@shdfnd@physx@@@shdfnd@physx@@QEAA@PEBD@Z 0000000180024060 f i PsFastIPC.obj
 0001:00023080       ??0FastIPC@shdfnd@physx@@QEAA@AEAW4ErrorCode@PxIPC@12@W4ConnectionType@412@PEBDII_N3I@Z 0000000180024080 f i PsFastIPC.obj
 0001:00023940       ??0MultiPartData@PxRingBuffer@shdfnd@physx@@QEAA@PEBVMultiPartPacketHeader@123@@Z 0000000180024940 f i PsFastIPC.obj
 0001:00023a10       ??0MultiPartPacket@PxRingBuffer@shdfnd@physx@@QEAA@W4MessageType@123@PEBXIIPEAV123@@Z 0000000180024a10 f i PsFastIPC.obj
 0001:00023b50       ??0PxIPC@shdfnd@physx@@QEAA@XZ 0000000180024b50 f i PsFastIPC.obj
 0001:00023b70       ??0PxRingBuffer@shdfnd@physx@@QEAA@XZ 0000000180024b70 f i PsFastIPC.obj
 0001:00023c20       ??1FastIPC@shdfnd@physx@@UEAA@XZ 0000000180024c20 f i PsFastIPC.obj
 0001:00023d30       ??1MultiPartData@PxRingBuffer@shdfnd@physx@@QEAA@XZ 0000000180024d30 f i PsFastIPC.obj
 0001:00023d70       ??1MultiPartPacket@PxRingBuffer@shdfnd@physx@@QEAA@XZ 0000000180024d70 f i PsFastIPC.obj
 0001:00023db0       ??1PxIPC@shdfnd@physx@@MEAA@XZ 0000000180024db0 f i PsFastIPC.obj
 0001:00023dd0       ??1PxRingBuffer@shdfnd@physx@@QEAA@XZ 0000000180024dd0 f i PsFastIPC.obj
 0001:00023ee0       ??_EFastIPC@shdfnd@physx@@UEAAPEAXI@Z 0000000180024ee0 f i PsFastIPC.obj
 0001:00023ee0       ??_GFastIPC@shdfnd@physx@@UEAAPEAXI@Z 0000000180024ee0 f i PsFastIPC.obj
 0001:00023f50       ??_GMemoryMappedFile@shdfnd@physx@@QEAAPEAXI@Z 0000000180024f50 f i PsFastIPC.obj
 0001:00023fc0       ??_GMultiPartData@PxRingBuffer@shdfnd@physx@@QEAAPEAXI@Z 0000000180024fc0 f i PsFastIPC.obj
 0001:00024030       ??_GMultiPartPacket@PxRingBuffer@shdfnd@physx@@QEAAPEAXI@Z 0000000180025030 f i PsFastIPC.obj
 0001:000240a0       ??_GPxIPC@shdfnd@physx@@MEAAPEAXI@Z 00000001800250a0 f i PsFastIPC.obj
 0001:000240a0       ??_EPxIPC@shdfnd@physx@@MEAAPEAXI@Z 00000001800250a0 f i PsFastIPC.obj
 0001:000240f0       ?acknowledgeInternal@PxRingBuffer@shdfnd@physx@@AEAAXXZ 00000001800250f0 f i PsFastIPC.obj
 0001:00024220       ?allocate@?$ReflectionAllocator@VFastIPC@shdfnd@physx@@@shdfnd@physx@@QEAAPEAX_KPEBDH@Z 0000000180025220 f i PsFastIPC.obj
 0001:000242c0       ?allocate@?$ReflectionAllocator@VMemoryMappedFile@shdfnd@physx@@@shdfnd@physx@@QEAAPEAX_KPEBDH@Z 00000001800252c0 f i PsFastIPC.obj
 0001:00024360       ?allocate@?$ReflectionAllocator@VMultiPartData@PxRingBuffer@shdfnd@physx@@@shdfnd@physx@@QEAAPEAX_KPEBDH@Z 0000000180025360 f i PsFastIPC.obj
 0001:00024400       ?allocate@?$ReflectionAllocator@VMultiPartPacket@PxRingBuffer@shdfnd@physx@@@shdfnd@physx@@QEAAPEAX_KPEBDH@Z 0000000180025400 f i PsFastIPC.obj
 0001:000244a0       ?canSend@FastIPC@shdfnd@physx@@UEAA_NI@Z 00000001800254a0 f i PsFastIPC.obj
 0001:00024530       ?canSend@PxRingBuffer@shdfnd@physx@@QEBA?AW4ErrorCode@123@I@Z 0000000180025530 f i PsFastIPC.obj
 0001:000246f0       ?getData@MultiPartData@PxRingBuffer@shdfnd@physx@@QEBAPEBXXZ 00000001800256f0 f i PsFastIPC.obj
 0001:00024710       ?getDataLen@PacketHeader@PxRingBuffer@shdfnd@physx@@QEBAIXZ 0000000180025710 f i PsFastIPC.obj
 0001:00024720       ?getMessageSize@MultiPartData@PxRingBuffer@shdfnd@physx@@QEBAIXZ 0000000180025720 f i PsFastIPC.obj
 0001:00024740       ?getMessageSize@MultiPartPacket@PxRingBuffer@shdfnd@physx@@QEBAIXZ 0000000180025740 f i PsFastIPC.obj
 0001:00024760       ?getMessageType@MultiPartData@PxRingBuffer@shdfnd@physx@@QEBA?AW4MessageType@234@XZ 0000000180025760 f i PsFastIPC.obj
 0001:00024770       ?getMessageType@PacketHeader@PxRingBuffer@shdfnd@physx@@QEBA?AW4MessageType@234@XZ 0000000180025770 f i PsFastIPC.obj
 0001:00024790       ?getName@?$ReflectionAllocator@VFastIPC@shdfnd@physx@@@shdfnd@physx@@CAPEBDXZ 0000000180025790 f i PsFastIPC.obj
 0001:000247e0       ?getName@?$ReflectionAllocator@VMemoryMappedFile@shdfnd@physx@@@shdfnd@physx@@CAPEBDXZ 00000001800257e0 f i PsFastIPC.obj
 0001:00024830       ?getName@?$ReflectionAllocator@VMultiPartData@PxRingBuffer@shdfnd@physx@@@shdfnd@physx@@CAPEBDXZ 0000000180025830 f i PsFastIPC.obj
 0001:00024880       ?getName@?$ReflectionAllocator@VMultiPartPacket@PxRingBuffer@shdfnd@physx@@@shdfnd@physx@@CAPEBDXZ 0000000180025880 f i PsFastIPC.obj
 0001:000248d0       ?getNext@MultiPartPacket@PxRingBuffer@shdfnd@physx@@QEBAPEAV1234@XZ 00000001800258d0 f i PsFastIPC.obj
 0001:000248f0       ?getReadAddress@PxRingBuffer@shdfnd@physx@@AEBAIXZ 00000001800258f0 f i PsFastIPC.obj
 0001:00024990       ?getWriteAddress@PxRingBuffer@shdfnd@physx@@AEBAIXZ 0000000180025990 f i PsFastIPC.obj
 0001:00024a30       ?haveConnection@FastIPC@shdfnd@physx@@UEBA_NXZ 0000000180025a30 f i PsFastIPC.obj
 0001:00024aa0       ?init@PacketHeader@PxRingBuffer@shdfnd@physx@@QEAAXIII@Z 0000000180025aa0 f i PsFastIPC.obj
 0001:00024b00       ?init@PxRingBuffer@shdfnd@physx@@QEAAXPEAXI_N1IPEAI2@Z 0000000180025b00 f i PsFastIPC.obj
 0001:00024d50       ?isFinished@MultiPartData@PxRingBuffer@shdfnd@physx@@QEBA_NXZ 0000000180025d50 f i PsFastIPC.obj
 0001:00024d90       ?isPadded@PacketHeader@PxRingBuffer@shdfnd@physx@@QEBA_NXZ 0000000180025d90 f i PsFastIPC.obj
 0001:00024dd0       ?isServer@FastIPC@shdfnd@physx@@UEBA_NXZ 0000000180025dd0 f i PsFastIPC.obj
 0001:00024df0       ?process@MultiPartData@PxRingBuffer@shdfnd@physx@@QEAA_NPEBXI@Z 0000000180025df0 f i PsFastIPC.obj
 0001:00024f90       ?process@MultiPartPacket@PxRingBuffer@shdfnd@physx@@QEAA?AW4ErrorCode@234@XZ 0000000180025f90 f i PsFastIPC.obj
 0001:00025110       ?pumpPendingSends@FastIPC@shdfnd@physx@@UEAA_NXZ 0000000180026110 f i PsFastIPC.obj
 0001:000251d0       ?pumpPendingSends@PxRingBuffer@shdfnd@physx@@QEAA_NXZ 00000001800261d0 f i PsFastIPC.obj
 0001:000252f0       ?readData@PxRingBuffer@shdfnd@physx@@AEAAPEBXAEAII@Z 00000001800262f0 f i PsFastIPC.obj
 0001:000253c0       ?receiveAcknowledge@FastIPC@shdfnd@physx@@UEAA?AW4ErrorCode@PxIPC@23@XZ 00000001800263c0 f i PsFastIPC.obj
 0001:000254a0       ?receiveAcknowledge@PxRingBuffer@shdfnd@physx@@QEAA?AW4ErrorCode@123@XZ 00000001800264a0 f i PsFastIPC.obj
 0001:00025600       ?receiveData@FastIPC@shdfnd@physx@@UEAAPEBXAEAI@Z 0000000180026600 f i PsFastIPC.obj
 0001:000256e0       ?receiveData@PxRingBuffer@shdfnd@physx@@QEAA?AW4MessageType@123@AEAPEBXAEAI@Z 00000001800266e0 f i PsFastIPC.obj
 0001:00025d00       ?release@FastIPC@shdfnd@physx@@UEAAXXZ 0000000180026d00 f i PsFastIPC.obj
 0001:00025d70       ?sendData@FastIPC@shdfnd@physx@@UEAA?AW4ErrorCode@PxIPC@23@PEBXI_N@Z 0000000180026d70 f i PsFastIPC.obj
 0001:00025e80       ?sendData@PxRingBuffer@shdfnd@physx@@QEAA?AW4ErrorCode@123@W4MessageType@123@PEBXI_N@Z 0000000180026e80 f i PsFastIPC.obj
 0001:00026160       ?sendDataInternal@PxRingBuffer@shdfnd@physx@@AEAA?AW4ErrorCode@123@W4MessageType@123@PEBXI@Z 0000000180027160 f i PsFastIPC.obj
 0001:00026210       ?sendHeader@MultiPartPacket@PxRingBuffer@shdfnd@physx@@QEAA?AW4ErrorCode@234@XZ 0000000180027210 f i PsFastIPC.obj
 0001:000262f0       ?setNext@MultiPartPacket@PxRingBuffer@shdfnd@physx@@QEAAXPEAV1234@@Z 00000001800272f0 f i PsFastIPC.obj
 0001:00026310       ?setReadAddress@PxRingBuffer@shdfnd@physx@@AEAAXI@Z 0000000180027310 f i PsFastIPC.obj
 0001:00026420       ?setWriteAddress@PxRingBuffer@shdfnd@physx@@AEAAXI@Z 0000000180027420 f i PsFastIPC.obj
 0001:00026530       ?writeData@PxRingBuffer@shdfnd@physx@@AEAAXW4MessageType@123@PEBXI@Z 0000000180027530 f i PsFastIPC.obj
 0001:000268e0       ?createFastXml@shdfnd@physx@@YAPEAVFastXml@12@PEAVCallback@312@@Z 00000001800278e0 f   PsFastXml.obj
 0001:00026970       ??0AttributePairs@FastXml@shdfnd@physx@@QEAA@HPEAPEBD@Z 0000000180027970 f i PsFastXml.obj
 0001:000269b0       ??0FastXml@shdfnd@physx@@QEAA@XZ 00000001800279b0 f i PsFastXml.obj
 0001:00026c20       ??1FastXml@shdfnd@physx@@MEAA@XZ 0000000180027c20 f i PsFastXml.obj
 0001:00026c80       ??_EFastXml@shdfnd@physx@@MEAAPEAXI@Z 0000000180027c80 f i PsFastXml.obj
 0001:00026c80       ??_GFastXml@shdfnd@physx@@MEAAPEAXI@Z 0000000180027c80 f i PsFastXml.obj
 0001:00026cd0       ??_EMyFastXml@?A0x66f9cb85@@EEAAPEAXI@Z 0000000180027cd0 f i PsFastXml.obj
 0001:00026cd0       ??_GMyFastXml@?A0x66f9cb85@@EEAAPEAXI@Z 0000000180027cd0 f i PsFastXml.obj
 0001:00029990       ?strchr@@YAPEADQEADH@Z     000000018002a990 f i PsFastXml.obj
 0001:000299c0       ?strstr@@YAPEADQEADQEBD@Z  000000018002a9c0 f i PsFastXml.obj
 0001:000299f0       PxCreateFoundation         000000018002a9f0 f   PsFoundation.obj
 0001:00029a20       PxGetFoundation            000000018002aa20 f   PsFoundation.obj
 0001:00029a40       ?getAllocator@shdfnd@physx@@YAAEAVPxAllocatorCallback@2@XZ 000000018002aa40 f   PsFoundation.obj
 0001:00029a60       ??0Foundation@shdfnd@physx@@AEAA@AEAVPxErrorCallback@2@AEAVPxAllocatorCallback@2@@Z 000000018002aa60 f   PsFoundation.obj
 0001:00029c30       ??1Foundation@shdfnd@physx@@EEAA@XZ 000000018002ac30 f   PsFoundation.obj
 0001:00029d90       ?release@Foundation@shdfnd@physx@@UEAAXXZ 000000018002ad90 f   PsFoundation.obj
 0001:00029db0       ?createInstance@Foundation@shdfnd@physx@@SAPEAV123@IAEAVPxErrorCallback@3@AEAVPxAllocatorCallback@3@@Z 000000018002adb0 f   PsFoundation.obj
 0001:00029fd0       ?destroyInstance@Foundation@shdfnd@physx@@SAXXZ 000000018002afd0 f   PsFoundation.obj
 0001:0002a0c0       ?getInstance@Foundation@shdfnd@physx@@SAAEAV123@XZ 000000018002b0c0 f   PsFoundation.obj
 0001:0002a130       ?incRefCount@Foundation@shdfnd@physx@@SAXXZ 000000018002b130 f   PsFoundation.obj
 0001:0002a1e0       ?decRefCount@Foundation@shdfnd@physx@@SAXXZ 000000018002b1e0 f   PsFoundation.obj
 0001:0002a290       ?getErrorCallback@Foundation@shdfnd@physx@@UEBAAEAVPxErrorCallback@3@XZ 000000018002b290 f   PsFoundation.obj
 0001:0002a2b0       ?setErrorLevel@Foundation@shdfnd@physx@@UEAAXW4Enum@PxErrorCode@3@@Z 000000018002b2b0 f   PsFoundation.obj
 0001:0002a2d0       ?getErrorLevel@Foundation@shdfnd@physx@@UEBA?AW4Enum@PxErrorCode@3@XZ 000000018002b2d0 f   PsFoundation.obj
 0001:0002a2f0       ?getAllocatorCallback@Foundation@shdfnd@physx@@UEBAAEAVPxAllocatorCallback@3@XZ 000000018002b2f0 f   PsFoundation.obj
 0001:0002a320       ?error@Foundation@shdfnd@physx@@QEAAXW4Enum@PxErrorCode@3@PEBDH1ZZ 000000018002b320 f   PsFoundation.obj
 0001:0002a390       ?errorImpl@Foundation@shdfnd@physx@@QEAAXW4Enum@PxErrorCode@3@PEBDH1PEAD@Z 000000018002b390 f   PsFoundation.obj
 0001:0002a4b0       ?getWarnOnceTimestamp@Foundation@shdfnd@physx@@SAIXZ 000000018002b4b0 f   PsFoundation.obj
 0001:0002a520       ?allocate@AlignCheckAllocator@Foundation@shdfnd@physx@@UEAAPEAX_KPEBD1H@Z 000000018002b520 f   PsFoundation.obj
 0001:0002a970       ??$PX_UNUSED@H@@YAXAEBH@Z  000000018002b970 f i PsFoundation.obj
 0001:0002a980       ??0?$Array@PEATTempAllocatorChunk@shdfnd@physx@@VAllocator@23@@shdfnd@physx@@QEAA@AEBVAllocator@12@@Z 000000018002b980 f i PsFoundation.obj
 0001:0002a9d0       ??0?$HashBase@V?$Pair@QEBVNamedAllocator@shdfnd@physx@@PEBD@shdfnd@physx@@PEBVNamedAllocator@23@U?$Hash@PEBVNamedAllocator@shdfnd@physx@@@23@UGetKey@?$HashMapBase@PEBVNamedAllocator@shdfnd@physx@@PEBDU?$Hash@PEBVNamedAllocator@shdfnd@physx@@@23@VNonTrackingAllocator@23@@internal@23@VNonTrackingAllocator@23@$00@internal@shdfnd@physx@@QEAA@IM@Z 000000018002b9d0 f i PsFoundation.obj
 0001:0002aa30       ??0?$HashMap@PEBVNamedAllocator@shdfnd@physx@@PEBDU?$Hash@PEBVNamedAllocator@shdfnd@physx@@@23@VNonTrackingAllocator@23@@shdfnd@physx@@QEAA@IM@Z 000000018002ba30 f i PsFoundation.obj
 0001:0002aa70       ??0?$HashMapBase@PEBVNamedAllocator@shdfnd@physx@@PEBDU?$Hash@PEBVNamedAllocator@shdfnd@physx@@@23@VNonTrackingAllocator@23@@internal@shdfnd@physx@@QEAA@IM@Z 000000018002ba70 f i PsFoundation.obj
 0001:0002aac0       ??0?$MutexT@VAllocator@shdfnd@physx@@@shdfnd@physx@@QEAA@AEBVAllocator@12@@Z 000000018002bac0 f i PsFoundation.obj
 0001:0002ab60       ??0AlignCheckAllocator@Foundation@shdfnd@physx@@QEAA@AEAVPxAllocatorCallback@3@@Z 000000018002bb60 f i PsFoundation.obj
 0001:0002abc0       ??0NonTrackingAllocator@shdfnd@physx@@QEAA@PEBD@Z 000000018002bbc0 f i PsFoundation.obj
 0001:0002abe0       ??0PxAllocatorCallback@physx@@QEAA@XZ 000000018002bbe0 f i PsFoundation.obj
 0001:0002ac00       ??0PxBroadcastingAllocator@physx@@QEAA@XZ 000000018002bc00 f i PsFoundation.obj
 0001:0002ac40       ??0TempAllocator@shdfnd@physx@@QEAA@PEBD@Z 000000018002bc40 f i PsFoundation.obj
 0001:0002ac70       ??1?$Array@PEATTempAllocatorChunk@shdfnd@physx@@VAllocator@23@@shdfnd@physx@@QEAA@XZ 000000018002bc70 f i PsFoundation.obj
 0001:0002acf0       ??1?$HashBase@V?$Pair@QEBVNamedAllocator@shdfnd@physx@@PEBD@shdfnd@physx@@PEBVNamedAllocator@23@U?$Hash@PEBVNamedAllocator@shdfnd@physx@@@23@UGetKey@?$HashMapBase@PEBVNamedAllocator@shdfnd@physx@@PEBDU?$Hash@PEBVNamedAllocator@shdfnd@physx@@@23@VNonTrackingAllocator@23@@internal@23@VNonTrackingAllocator@23@$00@internal@shdfnd@physx@@QEAA@XZ 000000018002bcf0 f i PsFoundation.obj
 0001:0002ad40       ??1?$HashMap@PEBVNamedAllocator@shdfnd@physx@@PEBDU?$Hash@PEBVNamedAllocator@shdfnd@physx@@@23@VNonTrackingAllocator@23@@shdfnd@physx@@QEAA@XZ 000000018002bd40 f i PsFoundation.obj
 0001:0002ad60       ??1?$HashMapBase@PEBVNamedAllocator@shdfnd@physx@@PEBDU?$Hash@PEBVNamedAllocator@shdfnd@physx@@@23@VNonTrackingAllocator@23@@internal@shdfnd@physx@@QEAA@XZ 000000018002bd60 f i PsFoundation.obj
 0001:0002ad90       ??1?$MutexT@VAllocator@shdfnd@physx@@@shdfnd@physx@@QEAA@XZ 000000018002bd90 f i PsFoundation.obj
 0001:0002add0       ??1AlignCheckAllocator@Foundation@shdfnd@physx@@UEAA@XZ 000000018002bdd0 f i PsFoundation.obj
 0001:0002adf0       ??1PxAllocatorCallback@physx@@UEAA@XZ 000000018002bdf0 f i PsFoundation.obj
 0001:0002ae10       ??1PxBroadcastingAllocator@physx@@MEAA@XZ 000000018002be10 f i PsFoundation.obj
 0001:0002ae40       ??4TempAllocator@shdfnd@physx@@QEAAAEAV012@$$QEAV012@@Z 000000018002be40 f i PsFoundation.obj
 0001:0002ae60       ??4TempAllocator@shdfnd@physx@@QEAAAEAV012@AEBV012@@Z 000000018002be60 f i PsFoundation.obj
 0001:0002ae80       ??A?$Array@PEATTempAllocatorChunk@shdfnd@physx@@VAllocator@23@@shdfnd@physx@@QEAAAEAPEATTempAllocatorChunk@12@I@Z 000000018002be80 f i PsFoundation.obj
 0001:0002af20       ??_EFoundation@shdfnd@physx@@EEAAPEAXI@Z 000000018002bf20 f i PsFoundation.obj
 0001:0002aff0       ??_FTempAllocator@shdfnd@physx@@QEAAXXZ 000000018002bff0 f i PsFoundation.obj
 0001:0002b010       ??_GAlignCheckAllocator@Foundation@shdfnd@physx@@UEAAPEAXI@Z 000000018002c010 f i PsFoundation.obj
 0001:0002b010       ??_EAlignCheckAllocator@Foundation@shdfnd@physx@@UEAAPEAXI@Z 000000018002c010 f i PsFoundation.obj
 0001:0002b060       ??_GFoundation@shdfnd@physx@@EEAAPEAXI@Z 000000018002c060 f i PsFoundation.obj
 0001:0002b0b0       ??_EPxAllocatorCallback@physx@@UEAAPEAXI@Z 000000018002c0b0 f i PsFoundation.obj
 0001:0002b0b0       ??_GPxAllocatorCallback@physx@@UEAAPEAXI@Z 000000018002c0b0 f i PsFoundation.obj
 0001:0002b100       ??_GPxBroadcastingAllocator@physx@@MEAAPEAXI@Z 000000018002c100 f i PsFoundation.obj
 0001:0002b100       ??_EPxBroadcastingAllocator@physx@@MEAAPEAXI@Z 000000018002c100 f i PsFoundation.obj
 0001:0002b150       ?allocate@?$Array@PEATTempAllocatorChunk@shdfnd@physx@@VAllocator@23@@shdfnd@physx@@IEAAPEAPEATTempAllocatorChunk@23@I@Z 000000018002c150 f i PsFoundation.obj
 0001:0002b200       ?capacity@?$Array@PEATTempAllocatorChunk@shdfnd@physx@@VAllocator@23@@shdfnd@physx@@QEBAIXZ 000000018002c200 f i PsFoundation.obj
 0001:0002b220       ?copy@?$Array@PEATTempAllocatorChunk@shdfnd@physx@@VAllocator@23@@shdfnd@physx@@KAXPEAPEATTempAllocatorChunk@23@0PEBQEAT423@@Z 000000018002c220 f i PsFoundation.obj
 0001:0002b2d0       ?create@?$Array@PEATTempAllocatorChunk@shdfnd@physx@@VAllocator@23@@shdfnd@physx@@KAXPEAPEATTempAllocatorChunk@23@0AEBQEAT423@@Z 000000018002c2d0 f i PsFoundation.obj
 0001:0002b370       ?deallocate@?$Array@PEATTempAllocatorChunk@shdfnd@physx@@VAllocator@23@@shdfnd@physx@@IEAAXPEAX@Z 000000018002c370 f i PsFoundation.obj
 0001:0002b3a0       ?deallocate@AlignCheckAllocator@Foundation@shdfnd@physx@@UEAAXPEAX@Z 000000018002c3a0 f i PsFoundation.obj
 0001:0002b450       ?deregisterAllocationListener@AlignCheckAllocator@Foundation@shdfnd@physx@@UEAAXAEAVPxAllocationListener@4@@Z 000000018002c450 f i PsFoundation.obj
 0001:0002b4f0       ?destroy@?$Array@PEATTempAllocatorChunk@shdfnd@physx@@VAllocator@23@@shdfnd@physx@@KAXPEAPEATTempAllocatorChunk@23@0@Z 000000018002c4f0 f i PsFoundation.obj
 0001:0002b530       ?destroy@?$HashBase@V?$Pair@QEBVNamedAllocator@shdfnd@physx@@PEBD@shdfnd@physx@@PEBVNamedAllocator@23@U?$Hash@PEBVNamedAllocator@shdfnd@physx@@@23@UGetKey@?$HashMapBase@PEBVNamedAllocator@shdfnd@physx@@PEBDU?$Hash@PEBVNamedAllocator@shdfnd@physx@@@23@VNonTrackingAllocator@23@@internal@23@VNonTrackingAllocator@23@$00@internal@shdfnd@physx@@AEAAXXZ 000000018002c530 f i PsFoundation.obj
 0001:0002b5b0       ?getBaseAllocator@AlignCheckAllocator@Foundation@shdfnd@physx@@QEBAAEAVPxAllocatorCallback@4@XZ 000000018002c5b0 f i PsFoundation.obj
 0001:0002b5d0       ?grow@?$Array@PEATTempAllocatorChunk@shdfnd@physx@@VAllocator@23@@shdfnd@physx@@IEAAXI@Z 000000018002c5d0 f i PsFoundation.obj
 0001:0002b670       ?init@?$HashBase@V?$Pair@QEBVNamedAllocator@shdfnd@physx@@PEBD@shdfnd@physx@@PEBVNamedAllocator@23@U?$Hash@PEBVNamedAllocator@shdfnd@physx@@@23@UGetKey@?$HashMapBase@PEBVNamedAllocator@shdfnd@physx@@PEBDU?$Hash@PEBVNamedAllocator@shdfnd@physx@@@23@VNonTrackingAllocator@23@@internal@23@VNonTrackingAllocator@23@$00@internal@shdfnd@physx@@AEAAXIM@Z 000000018002c670 f i PsFoundation.obj
 0001:0002b750       ?isInUserMemory@?$Array@PEATTempAllocatorChunk@shdfnd@physx@@VAllocator@23@@shdfnd@physx@@QEBAIXZ 000000018002c750 f i PsFoundation.obj
 0001:0002b770       ?recreate@?$Array@PEATTempAllocatorChunk@shdfnd@physx@@VAllocator@23@@shdfnd@physx@@IEAAXI@Z 000000018002c770 f i PsFoundation.obj
 0001:0002b8c0       ?registerAllocationListener@AlignCheckAllocator@Foundation@shdfnd@physx@@UEAAXAEAVPxAllocationListener@4@@Z 000000018002c8c0 f i PsFoundation.obj
 0001:0002b990       ?reserve@?$Array@PEATTempAllocatorChunk@shdfnd@physx@@VAllocator@23@@shdfnd@physx@@QEAAXI@Z 000000018002c990 f i PsFoundation.obj
 0001:0002b9d0       ?reset@?$Array@PEATTempAllocatorChunk@shdfnd@physx@@VAllocator@23@@shdfnd@physx@@QEAAXXZ 000000018002c9d0 f i PsFoundation.obj
 0001:0002ba10       ?resize@?$Array@PEATTempAllocatorChunk@shdfnd@physx@@VAllocator@23@@shdfnd@physx@@QEAAXIAEBQEATTempAllocatorChunk@23@@Z 000000018002ca10 f i PsFoundation.obj
 0001:0002bad0       ?shrink@?$Array@PEATTempAllocatorChunk@shdfnd@physx@@VAllocator@23@@shdfnd@physx@@QEAAXXZ 000000018002cad0 f i PsFoundation.obj
 0001:0002bb00       ?size@?$Array@PEATTempAllocatorChunk@shdfnd@physx@@VAllocator@23@@shdfnd@physx@@QEBAIXZ 000000018002cb00 f i PsFoundation.obj
 0001:0002bb20       ?sprintf_s@string@physx@@YAHPEAD_KPEBDZZ 000000018002cb20 f i PsFoundation.obj
 0001:0002bb90       _vsnprintf                 000000018002cb90 f i PsFoundation.obj
 0001:0002bbe0       ?computeQuatFromNormal@shdfnd@physx@@YA?AVPxQuat@2@AEBVPxVec3@2@@Z 000000018002cbe0 f   PsMathUtils.obj
 0001:0002bd30       ?optimizeBoundingBox@shdfnd@physx@@YA?AVPxVec3@2@AEAVPxMat33@2@@Z 000000018002cd30 f   PsMathUtils.obj
 0001:0002c1e0       ?slerp@shdfnd@physx@@YA?AVPxQuat@2@MAEBV32@0@Z 000000018002d1e0 f   PsMathUtils.obj
 0001:0002c3b0       ?integrateTransform@shdfnd@physx@@YAXAEBVPxTransform@2@AEBVPxVec3@2@1MAEAV32@@Z 000000018002d3b0 f   PsMathUtils.obj
 0001:0002c870       ??$PX_UNUSED@W4PxIDENTITY@physx@@@@YAXAEBW4PxIDENTITY@physx@@@Z 000000018002d870 f i PsMathUtils.obj
 0001:0002c880       ??$PxClamp@M@physx@@YAMMMM@Z 000000018002d880 f i PsMathUtils.obj
 0001:0002c940       ??$PxMax@M@physx@@YAMMM@Z  000000018002d940 f i PsMathUtils.obj
 0001:0002c970       ??$PxMin@M@physx@@YAMMM@Z  000000018002d970 f i PsMathUtils.obj
 0001:0002c9a0       ??$swap@I@shdfnd@physx@@YAXAEAI0@Z 000000018002d9a0 f i PsMathUtils.obj
 0001:0002c9f0       ??0PxQuat@physx@@QEAA@AEBV01@@Z 000000018002d9f0 f i PsMathUtils.obj
 0001:0002ca70       ??0PxQuat@physx@@QEAA@MAEBVPxVec3@1@@Z 000000018002da70 f i PsMathUtils.obj
 0001:0002cbd0       ??0PxQuat@physx@@QEAA@MMMM@Z 000000018002dbd0 f i PsMathUtils.obj
 0001:0002cc50       ??0PxQuat@physx@@QEAA@W4PxIDENTITY@1@@Z 000000018002dc50 f i PsMathUtils.obj
 0001:0002ccc0       ??0PxQuat@physx@@QEAA@XZ   000000018002dcc0 f i PsMathUtils.obj
 0001:0002ccd0       ??0PxVec3@physx@@QEAA@AEBV01@@Z 000000018002dcd0 f i PsMathUtils.obj
 0001:0002cd30       ??0PxVec3@physx@@QEAA@MMM@Z 000000018002dd30 f i PsMathUtils.obj
 0001:0002cd90       ??4PxQuat@physx@@QEAAAEAV01@AEBV01@@Z 000000018002dd90 f i PsMathUtils.obj
 0001:0002ce10       ??4PxVec3@physx@@QEAAAEAV01@AEBV01@@Z 000000018002de10 f i PsMathUtils.obj
 0001:0002ce70       ??APxMat33@physx@@QEAAAEAVPxVec3@1@H@Z 000000018002de70 f i PsMathUtils.obj
 0001:0002cea0       ??APxVec3@physx@@QEAAAEAMH@Z 000000018002dea0 f i PsMathUtils.obj
 0001:0002cf40       ??APxVec3@physx@@QEAAAEAMI@Z 000000018002df40 f i PsMathUtils.obj
 0001:0002cfd0       ??DPxQuat@physx@@QEBA?AV01@AEBV01@@Z 000000018002dfd0 f i PsMathUtils.obj
 0001:0002d1e0       ??DPxQuat@physx@@QEBA?AV01@M@Z 000000018002e1e0 f i PsMathUtils.obj
 0001:0002d280       ??DPxVec3@physx@@QEBA?AV01@M@Z 000000018002e280 f i PsMathUtils.obj
 0001:0002d310       ??HPxQuat@physx@@QEBA?AV01@AEBV01@@Z 000000018002e310 f i PsMathUtils.obj
 0001:0002d3c0       ??HPxVec3@physx@@QEBA?AV01@AEBV01@@Z 000000018002e3c0 f i PsMathUtils.obj
 0001:0002d460       ??XPxVec3@physx@@QEAAAEAV01@M@Z 000000018002e460 f i PsMathUtils.obj
 0001:0002d4e0       ??ZPxVec3@physx@@QEAAAEAV01@AEBV01@@Z 000000018002e4e0 f i PsMathUtils.obj
 0001:0002d560       ??_0PxVec3@physx@@QEAAAEAV01@M@Z 000000018002e560 f i PsMathUtils.obj
 0001:0002d5f0       ?PxAbs@physx@@YAMM@Z       000000018002e5f0 f i PsMathUtils.obj
 0001:0002d610       ?PxAsin@physx@@YAMM@Z      000000018002e610 f i PsMathUtils.obj
 0001:0002d650       ?PxAtan2@physx@@YAMMM@Z    000000018002e650 f i PsMathUtils.obj
 0001:0002d680       ?PxCos@physx@@YAMM@Z       000000018002e680 f i PsMathUtils.obj
 0001:0002d6a0       ?PxRecipSqrt@physx@@YAMM@Z 000000018002e6a0 f i PsMathUtils.obj
 0001:0002d6c0       ?PxSin@physx@@YAMM@Z       000000018002e6c0 f i PsMathUtils.obj
 0001:0002d6e0       ?PxSqrt@physx@@YAMM@Z      000000018002e6e0 f i PsMathUtils.obj
 0001:0002d700       ?abs@intrinsics@physx@@YAMM@Z 000000018002e700 f i PsMathUtils.obj
 0001:0002d720       ?cos@intrinsics@physx@@YAMM@Z 000000018002e720 f i PsMathUtils.obj
 0001:0002d740       ?dot@PxQuat@physx@@QEBAMAEBV12@@Z 000000018002e740 f i PsMathUtils.obj
 0001:0002d7c0       ?dot@PxVec3@physx@@QEBAMAEBV12@@Z 000000018002e7c0 f i PsMathUtils.obj
 0001:0002d820       ?fsel@intrinsics@physx@@YAMMMM@Z 000000018002e820 f i PsMathUtils.obj
 0001:0002d880       ?magnitude@PxVec3@physx@@QEBAMXZ 000000018002e880 f i PsMathUtils.obj
 0001:0002d8b0       ?magnitudeSquared@PxVec3@physx@@QEBAMXZ 000000018002e8b0 f i PsMathUtils.obj
 0001:0002d910       ?normalize@PxVec3@physx@@QEAAMXZ 000000018002e910 f i PsMathUtils.obj
 0001:0002d970       ?recipSqrt@intrinsics@physx@@YAMM@Z 000000018002e970 f i PsMathUtils.obj
 0001:0002d9b0       ?selectMax@intrinsics@physx@@YAMMM@Z 000000018002e9b0 f i PsMathUtils.obj
 0001:0002da00       ?selectMin@intrinsics@physx@@YAMMM@Z 000000018002ea00 f i PsMathUtils.obj
 0001:0002da50       ?sin@intrinsics@physx@@YAMM@Z 000000018002ea50 f i PsMathUtils.obj
 0001:0002da70       ?sqrt@intrinsics@physx@@YAMM@Z 000000018002ea70 f i PsMathUtils.obj
 0001:0002da90       fabsf                      000000018002ea90 f i PsMathUtils.obj
 0001:0002dac0       ?allocate@TempAllocator@shdfnd@physx@@QEAAPEAX_KPEBDH@Z 000000018002eac0 f   PsTempAllocator.obj
 0001:0002dce0       ?deallocate@TempAllocator@shdfnd@physx@@QEAAXPEAX@Z 000000018002ece0 f   PsTempAllocator.obj
 0001:0002dea0       ??$PxMax@I@physx@@YAIII@Z  000000018002eea0 f i PsTempAllocator.obj
 0001:0002dee0       ??$PxMin@PEAPEATTempAllocatorChunk@shdfnd@physx@@@physx@@YAPEAPEATTempAllocatorChunk@shdfnd@0@PEAPEAT120@0@Z 000000018002eee0 f i PsTempAllocator.obj
 0001:0002df30       ?begin@?$Array@PEATTempAllocatorChunk@shdfnd@physx@@VAllocator@23@@shdfnd@physx@@QEAAPEAPEATTempAllocatorChunk@23@XZ 000000018002ef30 f i PsTempAllocator.obj
 0001:0002df50       ?end@?$Array@PEATTempAllocatorChunk@shdfnd@physx@@VAllocator@23@@shdfnd@physx@@QEAAPEAPEATTempAllocatorChunk@23@XZ 000000018002ef50 f i PsTempAllocator.obj
 0001:0002dfb0       ?highestSetBit@shdfnd@physx@@YAII@Z 000000018002efb0 f i PsTempAllocator.obj
 0001:0002e030       ?highestSetBitUnsafe@shdfnd@physx@@YAII@Z 000000018002f030 f i PsTempAllocator.obj
 0001:0002e050       ?checkValid@shdfnd@physx@@YA_NAEBM@Z 000000018002f050 f   PsUtilities.obj
 0001:0002e080       ?checkValid@shdfnd@physx@@YA_NAEBVPxVec3@2@@Z 000000018002f080 f   PsUtilities.obj
 0001:0002e0f0       ?checkValid@shdfnd@physx@@YA_NAEBVPxQuat@2@@Z 000000018002f0f0 f   PsUtilities.obj
 0001:0002e180       ?checkValid@shdfnd@physx@@YA_NAEBVPxMat33@2@@Z 000000018002f180 f   PsUtilities.obj
 0001:0002e2e0       ?checkValid@shdfnd@physx@@YA_NAEBVPxTransform@2@@Z 000000018002f2e0 f   PsUtilities.obj
 0001:0002e340       ?checkValid@shdfnd@physx@@YA_NPEBD@Z 000000018002f340 f   PsUtilities.obj
 0001:0002e450       ??APxMat33@physx@@QEBAAEBVPxVec3@1@I@Z 000000018002f450 f i PsUtilities.obj
 0001:0002e480       ??APxVec3@physx@@QEBAAEBMI@Z 000000018002f480 f i PsUtilities.obj
 0001:0002e510       ??RPxMat33@physx@@QEBAMII@Z 000000018002f510 f i PsUtilities.obj
 0001:0002e560       ?PxIsFinite@physx@@YA_NM@Z 000000018002f560 f i PsUtilities.obj
 0001:0002e580       ?isFinite@intrinsics@physx@@YA_NM@Z 000000018002f580 f i PsUtilities.obj
 0001:0002e5d0       ?PxCreateCollection@@YAPEAVPxCollection@physx@@XZ 000000018002f5d0 f   CmCollection.obj
 0001:0002e640       ?add@Collection@Cm@physx@@UEAAXAEAVPxBase@3@_K@Z 000000018002f640 f   CmCollection.obj
 0001:0002e740       ?remove@Collection@Cm@physx@@UEAAXAEAVPxBase@3@@Z 000000018002f740 f   CmCollection.obj
 0001:0002e830       ?contains@Collection@Cm@physx@@UEBA_NAEAVPxBase@3@@Z 000000018002f830 f   CmCollection.obj
 0001:0002e890       ?addId@Collection@Cm@physx@@UEAAXAEAVPxBase@3@_K@Z 000000018002f890 f   CmCollection.obj
 0001:0002ea60       ?removeId@Collection@Cm@physx@@UEAAX_K@Z 000000018002fa60 f   CmCollection.obj
 0001:0002eb80       ?find@Collection@Cm@physx@@UEBAPEAVPxBase@3@_K@Z 000000018002fb80 f   CmCollection.obj
 0001:0002ec20       ?add@Collection@Cm@physx@@UEAAXAEAVPxCollection@3@@Z 000000018002fc20 f   CmCollection.obj
 0001:0002ee40       ?remove@Collection@Cm@physx@@UEAAXAEAVPxCollection@3@@Z 000000018002fe40 f   CmCollection.obj
 0001:0002ef60       ?getNbObjects@Collection@Cm@physx@@UEBAIXZ 000000018002ff60 f   CmCollection.obj
 0001:0002ef90       ?getObject@Collection@Cm@physx@@UEBAAEAVPxBase@3@I@Z 000000018002ff90 f   CmCollection.obj
 0001:0002f030       ?getObjects@Collection@Cm@physx@@UEBAIPEAPEAVPxBase@3@II@Z 0000000180030030 f   CmCollection.obj
 0001:0002f160       ?getNbIds@Collection@Cm@physx@@UEBAIXZ 0000000180030160 f   CmCollection.obj
 0001:0002f190       ?getId@Collection@Cm@physx@@UEBA_KAEBVPxBase@3@@Z 0000000180030190 f   CmCollection.obj
 0001:0002f200       ?getIds@Collection@Cm@physx@@UEBAIPEA_KII@Z 0000000180030200 f   CmCollection.obj
 0001:0002f6c0       ??$?2V?$ReflectionAllocator@VCollection@Cm@physx@@@shdfnd@physx@@@UserAllocated@shdfnd@physx@@SAPEAX_KV?$ReflectionAllocator@VCollection@Cm@physx@@@12@PEBDH@Z 00000001800306c0 f i CmCollection.obj
 0001:0002f710       ??0?$CoalescedHashMap@PEAVPxBase@physx@@_KU?$Hash@PEAVPxBase@physx@@@shdfnd@2@VAllocator@42@@shdfnd@physx@@QEAA@IM@Z 0000000180030710 f i CmCollection.obj
 0001:0002f750       ??0?$CoalescedHashMap@_KPEAVPxBase@physx@@U?$Hash@_K@shdfnd@2@VAllocator@42@@shdfnd@physx@@QEAA@IM@Z 0000000180030750 f i CmCollection.obj
 0001:0002f790       ??0?$CollectionHashMap@PEAVPxBase@physx@@_KU?$Hash@PEAVPxBase@physx@@@shdfnd@2@VAllocator@42@@Cm@physx@@QEAA@IM@Z 0000000180030790 f i CmCollection.obj
 0001:0002f7d0       ??0?$CollectionHashMap@_KPEAVPxBase@physx@@U?$Hash@_K@shdfnd@2@VAllocator@42@@Cm@physx@@QEAA@IM@Z 00000001800307d0 f i CmCollection.obj
 0001:0002f810       ??0?$HashBase@V?$Pair@$$CB_KPEAVPxBase@physx@@@shdfnd@physx@@_KU?$Hash@_K@23@UGetKey@?$HashMapBase@_KPEAVPxBase@physx@@U?$Hash@_K@shdfnd@2@VAllocator@42@@internal@23@VAllocator@23@$00@internal@shdfnd@physx@@QEAA@IM@Z 0000000180030810 f i CmCollection.obj
 0001:0002f870       ??0?$HashBase@V?$Pair@QEAVPxBase@physx@@_K@shdfnd@physx@@PEAVPxBase@3@U?$Hash@PEAVPxBase@physx@@@23@UGetKey@?$HashMapBase@PEAVPxBase@physx@@_KU?$Hash@PEAVPxBase@physx@@@shdfnd@2@VAllocator@42@@internal@23@VAllocator@23@$00@internal@shdfnd@physx@@QEAA@IM@Z 0000000180030870 f i CmCollection.obj
 0001:0002f8d0       ??0?$HashMapBase@PEAVPxBase@physx@@_KU?$Hash@PEAVPxBase@physx@@@shdfnd@2@VAllocator@42@@internal@shdfnd@physx@@QEAA@IM@Z 00000001800308d0 f i CmCollection.obj
 0001:0002f920       ??0?$HashMapBase@_KPEAVPxBase@physx@@U?$Hash@_K@shdfnd@2@VAllocator@42@@internal@shdfnd@physx@@QEAA@IM@Z 0000000180030920 f i CmCollection.obj
 0001:0002f970       ??0?$Pair@$$CB_KPEAVPxBase@physx@@@shdfnd@physx@@QEAA@AEBV012@@Z 0000000180030970 f i CmCollection.obj
 0001:0002f9b0       ??0?$Pair@$$CB_KPEAVPxBase@physx@@@shdfnd@physx@@QEAA@AEB_KAEBQEAVPxBase@2@@Z 00000001800309b0 f i CmCollection.obj
 0001:0002fa00       ??0?$Pair@QEAVPxBase@physx@@_K@shdfnd@physx@@QEAA@AEBQEAVPxBase@2@AEB_K@Z 0000000180030a00 f i CmCollection.obj
 0001:0002fa50       ??0?$Pair@QEAVPxBase@physx@@_K@shdfnd@physx@@QEAA@AEBV012@@Z 0000000180030a50 f i CmCollection.obj
 0001:0002fa90       ??0?$ReflectionAllocator@VCollection@Cm@physx@@@shdfnd@physx@@QEAA@PEBD@Z 0000000180030a90 f i CmCollection.obj
 0001:0002fab0       ??0Collection@Cm@physx@@QEAA@XZ 0000000180030ab0 f i CmCollection.obj
 0001:0002fb40       ??0Iter@?$HashBase@V?$Pair@$$CB_KPEAVPxBase@physx@@@shdfnd@physx@@_KU?$Hash@_K@23@UGetKey@?$HashMapBase@_KPEAVPxBase@physx@@U?$Hash@_K@shdfnd@2@VAllocator@42@@internal@23@VAllocator@23@$00@internal@shdfnd@physx@@QEAA@AEAV1234@@Z 0000000180030b40 f i CmCollection.obj
 0001:0002fbf0       ??0PxCollection@physx@@IEAA@XZ 0000000180030bf0 f i CmCollection.obj
 0001:0002fc10       ??1?$CoalescedHashMap@PEAVPxBase@physx@@_KU?$Hash@PEAVPxBase@physx@@@shdfnd@2@VAllocator@42@@shdfnd@physx@@QEAA@XZ 0000000180030c10 f i CmCollection.obj
 0001:0002fc30       ??1?$CoalescedHashMap@_KPEAVPxBase@physx@@U?$Hash@_K@shdfnd@2@VAllocator@42@@shdfnd@physx@@QEAA@XZ 0000000180030c30 f i CmCollection.obj
 0001:0002fc50       ??1?$CollectionHashMap@PEAVPxBase@physx@@_KU?$Hash@PEAVPxBase@physx@@@shdfnd@2@VAllocator@42@@Cm@physx@@QEAA@XZ 0000000180030c50 f i CmCollection.obj
 0001:0002fc70       ??1?$CollectionHashMap@_KPEAVPxBase@physx@@U?$Hash@_K@shdfnd@2@VAllocator@42@@Cm@physx@@QEAA@XZ 0000000180030c70 f i CmCollection.obj
 0001:0002fc90       ??1?$HashBase@V?$Pair@$$CB_KPEAVPxBase@physx@@@shdfnd@physx@@_KU?$Hash@_K@23@UGetKey@?$HashMapBase@_KPEAVPxBase@physx@@U?$Hash@_K@shdfnd@2@VAllocator@42@@internal@23@VAllocator@23@$00@internal@shdfnd@physx@@QEAA@XZ 0000000180030c90 f i CmCollection.obj
 0001:0002fce0       ??1?$HashBase@V?$Pair@QEAVPxBase@physx@@_K@shdfnd@physx@@PEAVPxBase@3@U?$Hash@PEAVPxBase@physx@@@23@UGetKey@?$HashMapBase@PEAVPxBase@physx@@_KU?$Hash@PEAVPxBase@physx@@@shdfnd@2@VAllocator@42@@internal@23@VAllocator@23@$00@internal@shdfnd@physx@@QEAA@XZ 0000000180030ce0 f i CmCollection.obj
 0001:0002fd30       ??1?$HashMapBase@PEAVPxBase@physx@@_KU?$Hash@PEAVPxBase@physx@@@shdfnd@2@VAllocator@42@@internal@shdfnd@physx@@QEAA@XZ 0000000180030d30 f i CmCollection.obj
 0001:0002fd60       ??1?$HashMapBase@_KPEAVPxBase@physx@@U?$Hash@_K@shdfnd@2@VAllocator@42@@internal@shdfnd@physx@@QEAA@XZ 0000000180030d60 f i CmCollection.obj
 0001:0002fd90       ??1Collection@Cm@physx@@UEAA@XZ 0000000180030d90 f i CmCollection.obj
 0001:0002fde0       ??1PxCollection@physx@@MEAA@XZ 0000000180030de0 f i CmCollection.obj
 0001:0002fe00       ??A?$HashMapBase@PEAVPxBase@physx@@_KU?$Hash@PEAVPxBase@physx@@@shdfnd@2@VAllocator@42@@internal@shdfnd@physx@@QEAAAEA_KAEBQEAVPxBase@3@@Z 0000000180030e00 f i CmCollection.obj
 0001:0002feb0       ??A?$HashMapBase@_KPEAVPxBase@physx@@U?$Hash@_K@shdfnd@2@VAllocator@42@@internal@shdfnd@physx@@QEAAAEAPEAVPxBase@3@AEB_K@Z 0000000180030eb0 f i CmCollection.obj
 0001:0002ff60       ??CIter@?$HashBase@V?$Pair@$$CB_KPEAVPxBase@physx@@@shdfnd@physx@@_KU?$Hash@_K@23@UGetKey@?$HashMapBase@_KPEAVPxBase@physx@@U?$Hash@_K@shdfnd@2@VAllocator@42@@internal@23@VAllocator@23@$00@internal@shdfnd@physx@@QEBAPEAV?$Pair@$$CB_KPEAVPxBase@physx@@@34@XZ 0000000180030f60 f i CmCollection.obj
 0001:0002ffb0       ??EIter@?$HashBase@V?$Pair@$$CB_KPEAVPxBase@physx@@@shdfnd@physx@@_KU?$Hash@_K@23@UGetKey@?$HashMapBase@_KPEAVPxBase@physx@@U?$Hash@_K@shdfnd@2@VAllocator@42@@internal@23@VAllocator@23@$00@internal@shdfnd@physx@@QEAA?AV01234@H@Z 0000000180030fb0 f i CmCollection.obj
 0001:00030030       ??R?$Hash@PEAVPxBase@physx@@@shdfnd@physx@@QEBAIAEBQEAVPxBase@2@@Z 0000000180031030 f i CmCollection.obj
 0001:00030060       ??R?$Hash@PEAVPxBase@physx@@@shdfnd@physx@@QEBA_NAEBQEAVPxBase@2@0@Z 0000000180031060 f i CmCollection.obj
 0001:000300b0       ??R?$Hash@_K@shdfnd@physx@@QEBAIAEB_K@Z 00000001800310b0 f i CmCollection.obj
 0001:000300e0       ??R?$Hash@_K@shdfnd@physx@@QEBA_NAEB_K0@Z 00000001800310e0 f i CmCollection.obj
 0001:00030130       ??RGetKey@?$HashMapBase@PEAVPxBase@physx@@_KU?$Hash@PEAVPxBase@physx@@@shdfnd@2@VAllocator@42@@internal@shdfnd@physx@@QEAAAEBQEAVPxBase@4@AEBV?$Pair@QEAVPxBase@physx@@_K@34@@Z 0000000180031130 f i CmCollection.obj
 0001:00030150       ??RGetKey@?$HashMapBase@_KPEAVPxBase@physx@@U?$Hash@_K@shdfnd@2@VAllocator@42@@internal@shdfnd@physx@@QEAAAEB_KAEBV?$Pair@$$CB_KPEAVPxBase@physx@@@34@@Z 0000000180031150 f i CmCollection.obj
 0001:00030170       ??_GCollection@Cm@physx@@UEAAPEAXI@Z 0000000180031170 f i CmCollection.obj
 0001:00030170       ??_ECollection@Cm@physx@@UEAAPEAXI@Z 0000000180031170 f i CmCollection.obj
 0001:000301e0       ??_GPxCollection@physx@@MEAAPEAXI@Z 00000001800311e0 f i CmCollection.obj
 0001:000301e0       ??_EPxCollection@physx@@MEAAPEAXI@Z 00000001800311e0 f i CmCollection.obj
 0001:00030230       ?advance@Iter@?$HashBase@V?$Pair@$$CB_KPEAVPxBase@physx@@@shdfnd@physx@@_KU?$Hash@_K@23@UGetKey@?$HashMapBase@_KPEAVPxBase@physx@@U?$Hash@_K@shdfnd@2@VAllocator@42@@internal@23@VAllocator@23@$00@internal@shdfnd@physx@@AEAAXXZ 0000000180031230 f i CmCollection.obj
 0001:00030280       ?allocate@?$ReflectionAllocator@VCollection@Cm@physx@@@shdfnd@physx@@QEAAPEAX_KPEBDH@Z 0000000180031280 f i CmCollection.obj
 0001:00030320       ?capacity@?$HashBase@V?$Pair@QEAVPxBase@physx@@_K@shdfnd@physx@@PEAVPxBase@3@U?$Hash@PEAVPxBase@physx@@@23@UGetKey@?$HashMapBase@PEAVPxBase@physx@@_KU?$Hash@PEAVPxBase@physx@@@shdfnd@2@VAllocator@42@@internal@23@VAllocator@23@$00@internal@shdfnd@physx@@QEBAIXZ 0000000180031320 f i CmCollection.obj
 0001:00030340       ?capacity@?$HashMapBase@PEAVPxBase@physx@@_KU?$Hash@PEAVPxBase@physx@@@shdfnd@2@VAllocator@42@@internal@shdfnd@physx@@QEBAIXZ 0000000180031340 f i CmCollection.obj
 0001:00030370       ?check@Iter@?$HashBase@V?$Pair@$$CB_KPEAVPxBase@physx@@@shdfnd@physx@@_KU?$Hash@_K@23@UGetKey@?$HashMapBase@_KPEAVPxBase@physx@@U?$Hash@_K@shdfnd@2@VAllocator@42@@internal@23@VAllocator@23@$00@internal@shdfnd@physx@@QEBAXXZ 0000000180031370 f i CmCollection.obj
 0001:00030400       ?create@?$HashBase@V?$Pair@$$CB_KPEAVPxBase@physx@@@shdfnd@physx@@_KU?$Hash@_K@23@UGetKey@?$HashMapBase@_KPEAVPxBase@physx@@U?$Hash@_K@shdfnd@2@VAllocator@42@@internal@23@VAllocator@23@$00@internal@shdfnd@physx@@QEAAPEAV?$Pair@$$CB_KPEAVPxBase@physx@@@34@AEB_KAEA_N@Z 0000000180031400 f i CmCollection.obj
 0001:00030610       ?create@?$HashBase@V?$Pair@QEAVPxBase@physx@@_K@shdfnd@physx@@PEAVPxBase@3@U?$Hash@PEAVPxBase@physx@@@23@UGetKey@?$HashMapBase@PEAVPxBase@physx@@_KU?$Hash@PEAVPxBase@physx@@@shdfnd@2@VAllocator@42@@internal@23@VAllocator@23@$00@internal@shdfnd@physx@@QEAAPEAV?$Pair@QEAVPxBase@physx@@_K@34@AEBQEAVPxBase@4@AEA_N@Z 0000000180031610 f i CmCollection.obj
 0001:00030820       ?destroy@?$HashBase@V?$Pair@$$CB_KPEAVPxBase@physx@@@shdfnd@physx@@_KU?$Hash@_K@23@UGetKey@?$HashMapBase@_KPEAVPxBase@physx@@U?$Hash@_K@shdfnd@2@VAllocator@42@@internal@23@VAllocator@23@$00@internal@shdfnd@physx@@AEAAXXZ 0000000180031820 f i CmCollection.obj
 0001:000308a0       ?destroy@?$HashBase@V?$Pair@QEAVPxBase@physx@@_K@shdfnd@physx@@PEAVPxBase@3@U?$Hash@PEAVPxBase@physx@@@23@UGetKey@?$HashMapBase@PEAVPxBase@physx@@_KU?$Hash@PEAVPxBase@physx@@@shdfnd@2@VAllocator@42@@internal@23@VAllocator@23@$00@internal@shdfnd@physx@@AEAAXXZ 00000001800318a0 f i CmCollection.obj
 0001:00030920       ?done@Iter@?$HashBase@V?$Pair@$$CB_KPEAVPxBase@physx@@@shdfnd@physx@@_KU?$Hash@_K@23@UGetKey@?$HashMapBase@_KPEAVPxBase@physx@@U?$Hash@_K@shdfnd@2@VAllocator@42@@internal@23@VAllocator@23@$00@internal@shdfnd@physx@@QEBA_NXZ 0000000180031920 f i CmCollection.obj
 0001:00030970       ?erase@?$HashBase@V?$Pair@$$CB_KPEAVPxBase@physx@@@shdfnd@physx@@_KU?$Hash@_K@23@UGetKey@?$HashMapBase@_KPEAVPxBase@physx@@U?$Hash@_K@shdfnd@2@VAllocator@42@@internal@23@VAllocator@23@$00@internal@shdfnd@physx@@QEAA_NAEB_K@Z 0000000180031970 f i CmCollection.obj
 0001:00030b00       ?erase@?$HashBase@V?$Pair@QEAVPxBase@physx@@_K@shdfnd@physx@@PEAVPxBase@3@U?$Hash@PEAVPxBase@physx@@@23@UGetKey@?$HashMapBase@PEAVPxBase@physx@@_KU?$Hash@PEAVPxBase@physx@@@shdfnd@2@VAllocator@42@@internal@23@VAllocator@23@$00@internal@shdfnd@physx@@QEAA_NAEBQEAVPxBase@4@@Z 0000000180031b00 f i CmCollection.obj
 0001:00030c90       ?erase@?$HashMapBase@PEAVPxBase@physx@@_KU?$Hash@PEAVPxBase@physx@@@shdfnd@2@VAllocator@42@@internal@shdfnd@physx@@QEAA_NAEBQEAVPxBase@4@@Z 0000000180031c90 f i CmCollection.obj
 0001:00030cc0       ?erase@?$HashMapBase@_KPEAVPxBase@physx@@U?$Hash@_K@shdfnd@2@VAllocator@42@@internal@shdfnd@physx@@QEAA_NAEB_K@Z 0000000180031cc0 f i CmCollection.obj
 0001:00030cf0       ?find@?$HashBase@V?$Pair@$$CB_KPEAVPxBase@physx@@@shdfnd@physx@@_KU?$Hash@_K@23@UGetKey@?$HashMapBase@_KPEAVPxBase@physx@@U?$Hash@_K@shdfnd@2@VAllocator@42@@internal@23@VAllocator@23@$00@internal@shdfnd@physx@@QEBAPEBV?$Pair@$$CB_KPEAVPxBase@physx@@@34@AEB_K@Z 0000000180031cf0 f i CmCollection.obj
 0001:00030df0       ?find@?$HashBase@V?$Pair@QEAVPxBase@physx@@_K@shdfnd@physx@@PEAVPxBase@3@U?$Hash@PEAVPxBase@physx@@@23@UGetKey@?$HashMapBase@PEAVPxBase@physx@@_KU?$Hash@PEAVPxBase@physx@@@shdfnd@2@VAllocator@42@@internal@23@VAllocator@23@$00@internal@shdfnd@physx@@QEBAPEBV?$Pair@QEAVPxBase@physx@@_K@34@AEBQEAVPxBase@4@@Z 0000000180031df0 f i CmCollection.obj
 0001:00030ef0       ?find@?$HashMapBase@PEAVPxBase@physx@@_KU?$Hash@PEAVPxBase@physx@@@shdfnd@2@VAllocator@42@@internal@shdfnd@physx@@QEBAPEBV?$Pair@QEAVPxBase@physx@@_K@34@AEBQEAVPxBase@4@@Z 0000000180031ef0 f i CmCollection.obj
 0001:00030f20       ?find@?$HashMapBase@_KPEAVPxBase@physx@@U?$Hash@_K@shdfnd@2@VAllocator@42@@internal@shdfnd@physx@@QEBAPEBV?$Pair@$$CB_KPEAVPxBase@physx@@@34@AEB_K@Z 0000000180031f20 f i CmCollection.obj
 0001:00030f50       ?freeListAdd@?$HashBase@V?$Pair@$$CB_KPEAVPxBase@physx@@@shdfnd@physx@@_KU?$Hash@_K@23@UGetKey@?$HashMapBase@_KPEAVPxBase@physx@@U?$Hash@_K@shdfnd@2@VAllocator@42@@internal@23@VAllocator@23@$00@internal@shdfnd@physx@@AEAAXI@Z 0000000180031f50 f i CmCollection.obj
 0001:00031030       ?freeListAdd@?$HashBase@V?$Pair@$$CB_KPEAVPxBase@physx@@@shdfnd@physx@@_KU?$Hash@_K@23@UGetKey@?$HashMapBase@_KPEAVPxBase@physx@@U?$Hash@_K@shdfnd@2@VAllocator@42@@internal@23@VAllocator@23@$00@internal@shdfnd@physx@@AEAAXII@Z 0000000180032030 f i CmCollection.obj
 0001:00031160       ?freeListAdd@?$HashBase@V?$Pair@QEAVPxBase@physx@@_K@shdfnd@physx@@PEAVPxBase@3@U?$Hash@PEAVPxBase@physx@@@23@UGetKey@?$HashMapBase@PEAVPxBase@physx@@_KU?$Hash@PEAVPxBase@physx@@@shdfnd@2@VAllocator@42@@internal@23@VAllocator@23@$00@internal@shdfnd@physx@@AEAAXI@Z 0000000180032160 f i CmCollection.obj
 0001:00031240       ?freeListAdd@?$HashBase@V?$Pair@QEAVPxBase@physx@@_K@shdfnd@physx@@PEAVPxBase@3@U?$Hash@PEAVPxBase@physx@@@23@UGetKey@?$HashMapBase@PEAVPxBase@physx@@_KU?$Hash@PEAVPxBase@physx@@@shdfnd@2@VAllocator@42@@internal@23@VAllocator@23@$00@internal@shdfnd@physx@@AEAAXII@Z 0000000180032240 f i CmCollection.obj
 0001:00031370       ?freeListEmpty@?$HashBase@V?$Pair@$$CB_KPEAVPxBase@physx@@@shdfnd@physx@@_KU?$Hash@_K@23@UGetKey@?$HashMapBase@_KPEAVPxBase@physx@@U?$Hash@_K@shdfnd@2@VAllocator@42@@internal@23@VAllocator@23@$00@internal@shdfnd@physx@@AEBA_NXZ 0000000180032370 f i CmCollection.obj
 0001:000313f0       ?freeListEmpty@?$HashBase@V?$Pair@QEAVPxBase@physx@@_K@shdfnd@physx@@PEAVPxBase@3@U?$Hash@PEAVPxBase@physx@@@23@UGetKey@?$HashMapBase@PEAVPxBase@physx@@_KU?$Hash@PEAVPxBase@physx@@@shdfnd@2@VAllocator@42@@internal@23@VAllocator@23@$00@internal@shdfnd@physx@@AEBA_NXZ 00000001800323f0 f i CmCollection.obj
 0001:00031470       ?freeListGetNext@?$HashBase@V?$Pair@$$CB_KPEAVPxBase@physx@@@shdfnd@physx@@_KU?$Hash@_K@23@UGetKey@?$HashMapBase@_KPEAVPxBase@physx@@U?$Hash@_K@shdfnd@2@VAllocator@42@@internal@23@VAllocator@23@$00@internal@shdfnd@physx@@AEAAIXZ 0000000180032470 f i CmCollection.obj
 0001:000315d0       ?freeListGetNext@?$HashBase@V?$Pair@QEAVPxBase@physx@@_K@shdfnd@physx@@PEAVPxBase@3@U?$Hash@PEAVPxBase@physx@@@23@UGetKey@?$HashMapBase@PEAVPxBase@physx@@_KU?$Hash@PEAVPxBase@physx@@@shdfnd@2@VAllocator@42@@internal@23@VAllocator@23@$00@internal@shdfnd@physx@@AEAAIXZ 00000001800325d0 f i CmCollection.obj
 0001:00031730       ?getEntries@?$CoalescedHashMap@PEAVPxBase@physx@@_KU?$Hash@PEAVPxBase@physx@@@shdfnd@2@VAllocator@42@@shdfnd@physx@@QEBAPEBV?$Pair@QEAVPxBase@physx@@_K@23@XZ 0000000180032730 f i CmCollection.obj
 0001:00031750       ?getEntries@?$HashBase@V?$Pair@QEAVPxBase@physx@@_K@shdfnd@physx@@PEAVPxBase@3@U?$Hash@PEAVPxBase@physx@@@23@UGetKey@?$HashMapBase@PEAVPxBase@physx@@_KU?$Hash@PEAVPxBase@physx@@@shdfnd@2@VAllocator@42@@internal@23@VAllocator@23@$00@internal@shdfnd@physx@@QEBAPEBV?$Pair@QEAVPxBase@physx@@_K@34@XZ 0000000180032750 f i CmCollection.obj
 0001:00031770       ?getIterator@?$HashMapBase@_KPEAVPxBase@physx@@U?$Hash@_K@shdfnd@2@VAllocator@42@@internal@shdfnd@physx@@QEAA?AVIter@?$HashBase@V?$Pair@$$CB_KPEAVPxBase@physx@@@shdfnd@physx@@_KU?$Hash@_K@23@UGetKey@?$HashMapBase@_KPEAVPxBase@physx@@U?$Hash@_K@shdfnd@2@VAllocator@42@@internal@23@VAllocator@23@$00@234@XZ 0000000180032770 f i CmCollection.obj
 0001:000317b0       ?getName@?$ReflectionAllocator@VCollection@Cm@physx@@@shdfnd@physx@@CAPEBDXZ 00000001800327b0 f i CmCollection.obj
 0001:00031800       ?grow@?$HashBase@V?$Pair@$$CB_KPEAVPxBase@physx@@@shdfnd@physx@@_KU?$Hash@_K@23@UGetKey@?$HashMapBase@_KPEAVPxBase@physx@@U?$Hash@_K@shdfnd@2@VAllocator@42@@internal@23@VAllocator@23@$00@internal@shdfnd@physx@@AEAAXXZ 0000000180032800 f i CmCollection.obj
 0001:000318e0       ?grow@?$HashBase@V?$Pair@QEAVPxBase@physx@@_K@shdfnd@physx@@PEAVPxBase@3@U?$Hash@PEAVPxBase@physx@@@23@UGetKey@?$HashMapBase@PEAVPxBase@physx@@_KU?$Hash@PEAVPxBase@physx@@@shdfnd@2@VAllocator@42@@internal@23@VAllocator@23@$00@internal@shdfnd@physx@@AEAAXXZ 00000001800328e0 f i CmCollection.obj
 0001:000319c0       ?hash@?$HashBase@V?$Pair@$$CB_KPEAVPxBase@physx@@@shdfnd@physx@@_KU?$Hash@_K@23@UGetKey@?$HashMapBase@_KPEAVPxBase@physx@@U?$Hash@_K@shdfnd@2@VAllocator@42@@internal@23@VAllocator@23@$00@internal@shdfnd@physx@@AEBAIAEB_K@Z 00000001800329c0 f i CmCollection.obj
 0001:00031a00       ?hash@?$HashBase@V?$Pair@$$CB_KPEAVPxBase@physx@@@shdfnd@physx@@_KU?$Hash@_K@23@UGetKey@?$HashMapBase@_KPEAVPxBase@physx@@U?$Hash@_K@shdfnd@2@VAllocator@42@@internal@23@VAllocator@23@$00@internal@shdfnd@physx@@AEBAIAEB_KI@Z 0000000180032a00 f i CmCollection.obj
 0001:00031a40       ?hash@?$HashBase@V?$Pair@QEAVPxBase@physx@@_K@shdfnd@physx@@PEAVPxBase@3@U?$Hash@PEAVPxBase@physx@@@23@UGetKey@?$HashMapBase@PEAVPxBase@physx@@_KU?$Hash@PEAVPxBase@physx@@@shdfnd@2@VAllocator@42@@internal@23@VAllocator@23@$00@internal@shdfnd@physx@@AEBAIAEBQEAVPxBase@4@@Z 0000000180032a40 f i CmCollection.obj
 0001:00031a80       ?hash@?$HashBase@V?$Pair@QEAVPxBase@physx@@_K@shdfnd@physx@@PEAVPxBase@3@U?$Hash@PEAVPxBase@physx@@@23@UGetKey@?$HashMapBase@PEAVPxBase@physx@@_KU?$Hash@PEAVPxBase@physx@@@shdfnd@2@VAllocator@42@@internal@23@VAllocator@23@$00@internal@shdfnd@physx@@AEBAIAEBQEAVPxBase@4@I@Z 0000000180032a80 f i CmCollection.obj
 0001:00031ac0       ?init@?$HashBase@V?$Pair@$$CB_KPEAVPxBase@physx@@@shdfnd@physx@@_KU?$Hash@_K@23@UGetKey@?$HashMapBase@_KPEAVPxBase@physx@@U?$Hash@_K@shdfnd@2@VAllocator@42@@internal@23@VAllocator@23@$00@internal@shdfnd@physx@@AEAAXIM@Z 0000000180032ac0 f i CmCollection.obj
 0001:00031ba0       ?init@?$HashBase@V?$Pair@QEAVPxBase@physx@@_K@shdfnd@physx@@PEAVPxBase@3@U?$Hash@PEAVPxBase@physx@@@23@UGetKey@?$HashMapBase@PEAVPxBase@physx@@_KU?$Hash@PEAVPxBase@physx@@@shdfnd@2@VAllocator@42@@internal@23@VAllocator@23@$00@internal@shdfnd@physx@@AEAAXIM@Z 0000000180032ba0 f i CmCollection.obj
 0001:00031c80       ?insert@?$HashMapBase@PEAVPxBase@physx@@_KU?$Hash@PEAVPxBase@physx@@@shdfnd@2@VAllocator@42@@internal@shdfnd@physx@@QEAA_NQEAVPxBase@4@_K@Z 0000000180032c80 f i CmCollection.obj
 0001:00031d50       ?insert@?$HashMapBase@_KPEAVPxBase@physx@@U?$Hash@_K@shdfnd@2@VAllocator@42@@internal@shdfnd@physx@@QEAA_N_KQEAVPxBase@4@@Z 0000000180032d50 f i CmCollection.obj
 0001:00031e20       ?release@Collection@Cm@physx@@UEAAXXZ 0000000180032e20 f i CmCollection.obj
 0001:00031e90       ?replaceWithLast@?$HashBase@V?$Pair@$$CB_KPEAVPxBase@physx@@@shdfnd@physx@@_KU?$Hash@_K@23@UGetKey@?$HashMapBase@_KPEAVPxBase@physx@@U?$Hash@_K@shdfnd@2@VAllocator@42@@internal@23@VAllocator@23@$00@internal@shdfnd@physx@@AEAAXI@Z 0000000180032e90 f i CmCollection.obj
 0001:00032050       ?replaceWithLast@?$HashBase@V?$Pair@QEAVPxBase@physx@@_K@shdfnd@physx@@PEAVPxBase@3@U?$Hash@PEAVPxBase@physx@@@23@UGetKey@?$HashMapBase@PEAVPxBase@physx@@_KU?$Hash@PEAVPxBase@physx@@@shdfnd@2@VAllocator@42@@internal@23@VAllocator@23@$00@internal@shdfnd@physx@@AEAAXI@Z 0000000180033050 f i CmCollection.obj
 0001:00032210       ?reserve@?$HashBase@V?$Pair@$$CB_KPEAVPxBase@physx@@@shdfnd@physx@@_KU?$Hash@_K@23@UGetKey@?$HashMapBase@_KPEAVPxBase@physx@@U?$Hash@_K@shdfnd@2@VAllocator@42@@internal@23@VAllocator@23@$00@internal@shdfnd@physx@@QEAAXI@Z 0000000180033210 f i CmCollection.obj
 0001:00032250       ?reserve@?$HashBase@V?$Pair@QEAVPxBase@physx@@_K@shdfnd@physx@@PEAVPxBase@3@U?$Hash@PEAVPxBase@physx@@@23@UGetKey@?$HashMapBase@PEAVPxBase@physx@@_KU?$Hash@PEAVPxBase@physx@@@shdfnd@2@VAllocator@42@@internal@23@VAllocator@23@$00@internal@shdfnd@physx@@QEAAXI@Z 0000000180033250 f i CmCollection.obj
 0001:00032290       ?reserve@?$HashMapBase@PEAVPxBase@physx@@_KU?$Hash@PEAVPxBase@physx@@@shdfnd@2@VAllocator@42@@internal@shdfnd@physx@@QEAAXI@Z 0000000180033290 f i CmCollection.obj
 0001:000322c0       ?reserveInternal@?$HashBase@V?$Pair@$$CB_KPEAVPxBase@physx@@@shdfnd@physx@@_KU?$Hash@_K@23@UGetKey@?$HashMapBase@_KPEAVPxBase@physx@@U?$Hash@_K@shdfnd@2@VAllocator@42@@internal@23@VAllocator@23@$00@internal@shdfnd@physx@@AEAAXI@Z 00000001800332c0 f i CmCollection.obj
 0001:000329c0       ?reserveInternal@?$HashBase@V?$Pair@QEAVPxBase@physx@@_K@shdfnd@physx@@PEAVPxBase@3@U?$Hash@PEAVPxBase@physx@@@23@UGetKey@?$HashMapBase@PEAVPxBase@physx@@_KU?$Hash@PEAVPxBase@physx@@@shdfnd@2@VAllocator@42@@internal@23@VAllocator@23@$00@internal@shdfnd@physx@@AEAAXI@Z 00000001800339c0 f i CmCollection.obj
 0001:000330c0       ?size@?$HashBase@V?$Pair@$$CB_KPEAVPxBase@physx@@@shdfnd@physx@@_KU?$Hash@_K@23@UGetKey@?$HashMapBase@_KPEAVPxBase@physx@@U?$Hash@_K@shdfnd@2@VAllocator@42@@internal@23@VAllocator@23@$00@internal@shdfnd@physx@@QEBAIXZ 00000001800340c0 f i CmCollection.obj
 0001:000330e0       ?size@?$HashBase@V?$Pair@QEAVPxBase@physx@@_K@shdfnd@physx@@PEAVPxBase@3@U?$Hash@PEAVPxBase@physx@@@23@UGetKey@?$HashMapBase@PEAVPxBase@physx@@_KU?$Hash@PEAVPxBase@physx@@@shdfnd@2@VAllocator@42@@internal@23@VAllocator@23@$00@internal@shdfnd@physx@@QEBAIXZ 00000001800340e0 f i CmCollection.obj
 0001:00033100       ?size@?$HashMapBase@PEAVPxBase@physx@@_KU?$Hash@PEAVPxBase@physx@@@shdfnd@2@VAllocator@42@@internal@shdfnd@physx@@QEBAIXZ 0000000180034100 f i CmCollection.obj
 0001:00033130       ?size@?$HashMapBase@_KPEAVPxBase@physx@@U?$Hash@_K@shdfnd@2@VAllocator@42@@internal@shdfnd@physx@@QEBAIXZ 0000000180034130 f i CmCollection.obj
 0001:00033160       ?skip@Iter@?$HashBase@V?$Pair@$$CB_KPEAVPxBase@physx@@@shdfnd@physx@@_KU?$Hash@_K@23@UGetKey@?$HashMapBase@_KPEAVPxBase@physx@@U?$Hash@_K@shdfnd@2@VAllocator@42@@internal@23@VAllocator@23@$00@internal@shdfnd@physx@@AEAAXXZ 0000000180034160 f i CmCollection.obj
 0001:000331e0       ?getProfileNames@CmEventNameProvider@Cm@physx@@UEBA?AUPxProfileNames@3@XZ 00000001800341e0 f   CmEventProfiler.obj
 0001:00033210       ?getStringFromId@EventProfiler@Cm@physx@@QEAAPEBDG@Z 0000000180034210 f   CmEventProfiler.obj
 0001:00033240       ?enableNVTXSupport@Cm@physx@@YAX_N@Z 0000000180034240 f   CmEventProfiler.obj
 0001:00033260       ?isNVTXSupportEnabled@Cm@physx@@YA_NXZ 0000000180034260 f   CmEventProfiler.obj
 0001:00033290       ??0?$Pair@$$CBUEventIdContextPair@nvtx@@_K@shdfnd@physx@@QEAA@AEBUEventIdContextPair@nvtx@@AEB_K@Z 0000000180034290 f i CmEventProfiler.obj
 0001:000332e0       ??0?$Pair@$$CBUEventIdContextPair@nvtx@@_K@shdfnd@physx@@QEAA@AEBV012@@Z 00000001800342e0 f i CmEventProfiler.obj
 0001:00033330       ??0?$PxProfileCompileTimeFilteredEventId@$00@physx@@QEAA@G@Z 0000000180034330 f i CmEventProfiler.obj
 0001:00033370       ??0?$PxProfileCompileTimeFilteredEventId@$0A@@physx@@QEAA@G@Z 0000000180034370 f i CmEventProfiler.obj
 0001:000333b0       ??0EventIdContextPair@nvtx@@QEAA@_KG@Z 00000001800343b0 f i CmEventProfiler.obj
 0001:000333f0       ??0PxProfileEventId@physx@@QEAA@G_N@Z 00000001800343f0 f i CmEventProfiler.obj
 0001:00033430       ??0PxProfileEventName@physx@@QEAA@PEBDUPxProfileEventId@1@@Z 0000000180034430 f i CmEventProfiler.obj
 0001:00033470       ??0PxProfileNames@physx@@QEAA@IPEBUPxProfileEventName@1@@Z 0000000180034470 f i CmEventProfiler.obj
 0001:000334b0       ??0ScopedLock@?$MutexT@V?$ReflectionAllocator@VMutexImpl@shdfnd@physx@@@shdfnd@physx@@@shdfnd@physx@@QEAA@AEAV123@@Z 00000001800344b0 f i CmEventProfiler.obj
 0001:000334f0       ??1ScopedLock@?$MutexT@V?$ReflectionAllocator@VMutexImpl@shdfnd@physx@@@shdfnd@physx@@@shdfnd@physx@@QEAA@XZ 00000001800344f0 f i CmEventProfiler.obj
 0001:00033520       ??8EventIdContextPair@nvtx@@QEBA_NAEBU01@@Z 0000000180034520 f i CmEventProfiler.obj
 0001:00033590       ??A?$HashMapBase@UEventIdContextPair@nvtx@@_KU?$Hash@UEventIdContextPair@nvtx@@@2@VAllocator@shdfnd@physx@@@internal@shdfnd@physx@@QEAAAEA_KAEBUEventIdContextPair@nvtx@@@Z 0000000180034590 f i CmEventProfiler.obj
 0001:00033640       ??R?$Hash@UEventIdContextPair@nvtx@@@nvtx@@QEBAIAEBUEventIdContextPair@1@@Z 0000000180034640 f i CmEventProfiler.obj
 0001:00033690       ??R?$Hash@UEventIdContextPair@nvtx@@@nvtx@@QEBA_NAEBUEventIdContextPair@1@0@Z 0000000180034690 f i CmEventProfiler.obj
 0001:000336c0       ??RGetKey@?$HashMapBase@UEventIdContextPair@nvtx@@_KU?$Hash@UEventIdContextPair@nvtx@@@2@VAllocator@shdfnd@physx@@@internal@shdfnd@physx@@QEAAAEBUEventIdContextPair@nvtx@@AEBV?$Pair@$$CBUEventIdContextPair@nvtx@@_K@34@@Z 00000001800346c0 f i CmEventProfiler.obj
 0001:000336e0       ?GetMBPPostUpdate@BroadPhase@ProfileEventId@Cm@physx@@SAAEBUPxProfileEventId@4@XZ 00000001800346e0 f i CmEventProfiler.obj
 0001:000336f0       ?GetMBPPostUpdateSPU@BroadPhase@ProfileEventId@Cm@physx@@SAAEBUPxProfileEventId@4@XZ 00000001800346f0 f i CmEventProfiler.obj
 0001:00033700       ?GetMBPUpdate@BroadPhase@ProfileEventId@Cm@physx@@SAAEBUPxProfileEventId@4@XZ 0000000180034700 f i CmEventProfiler.obj
 0001:00033710       ?GetMBPUpdateSPU@BroadPhase@ProfileEventId@Cm@physx@@SAAEBUPxProfileEventId@4@XZ 0000000180034710 f i CmEventProfiler.obj
 0001:00033720       ?GetSapPostUpdate@BroadPhase@ProfileEventId@Cm@physx@@SAAEBUPxProfileEventId@4@XZ 0000000180034720 f i CmEventProfiler.obj
 0001:00033730       ?GetSapPostUpdateSPU@BroadPhase@ProfileEventId@Cm@physx@@SAAEBUPxProfileEventId@4@XZ 0000000180034730 f i CmEventProfiler.obj
 0001:00033740       ?GetSapUpdate@BroadPhase@ProfileEventId@Cm@physx@@SAAEBUPxProfileEventId@4@XZ 0000000180034740 f i CmEventProfiler.obj
 0001:00033750       ?GetSapUpdateSPU@BroadPhase@ProfileEventId@Cm@physx@@SAAEBUPxProfileEventId@4@XZ 0000000180034750 f i CmEventProfiler.obj
 0001:00033760       ?GetaddActor@API@ProfileEventId@Cm@physx@@SAAEBUPxProfileEventId@4@XZ 0000000180034760 f i CmEventProfiler.obj
 0001:00033770       ?GetaddActorToSim@API@ProfileEventId@Cm@physx@@SAAEBUPxProfileEventId@4@XZ 0000000180034770 f i CmEventProfiler.obj
 0001:00033780       ?GetaddActors@API@ProfileEventId@Cm@physx@@SAAEBUPxProfileEventId@4@XZ 0000000180034780 f i CmEventProfiler.obj
 0001:00033790       ?GetaddAggregate@API@ProfileEventId@Cm@physx@@SAAEBUPxProfileEventId@4@XZ 0000000180034790 f i CmEventProfiler.obj
 0001:000337a0       ?GetaddArticulation@API@ProfileEventId@Cm@physx@@SAAEBUPxProfileEventId@4@XZ 00000001800347a0 f i CmEventProfiler.obj
 0001:000337b0       ?GetaddCloth@API@ProfileEventId@Cm@physx@@SAAEBUPxProfileEventId@4@XZ 00000001800347b0 f i CmEventProfiler.obj
 0001:000337c0       ?GetaddCollection@API@ProfileEventId@Cm@physx@@SAAEBUPxProfileEventId@4@XZ 00000001800347c0 f i CmEventProfiler.obj
 0001:000337d0       ?GetaddParticleFluid@API@ProfileEventId@Cm@physx@@SAAEBUPxProfileEventId@4@XZ 00000001800347d0 f i CmEventProfiler.obj
 0001:000337e0       ?GetaddParticleSystem@API@ProfileEventId@Cm@physx@@SAAEBUPxProfileEventId@4@XZ 00000001800347e0 f i CmEventProfiler.obj
 0001:000337f0       ?GetaddShapesToSQ@API@ProfileEventId@Cm@physx@@SAAEBUPxProfileEventId@4@XZ 00000001800347f0 f i CmEventProfiler.obj
 0001:00033800       ?GetaddShapesToSim@API@ProfileEventId@Cm@physx@@SAAEBUPxProfileEventId@4@XZ 0000000180034800 f i CmEventProfiler.obj
 0001:00033810       ?GetapplyExternalImpulses@Articulations@ProfileEventId@Cm@physx@@SAAEBUPxProfileEventId@4@XZ 0000000180034810 f i CmEventProfiler.obj
 0001:00033820       ?GetapplyJointDrives@Articulations@ProfileEventId@Cm@physx@@SAAEBUPxProfileEventId@4@XZ 0000000180034820 f i CmEventProfiler.obj
 0001:00033830       ?GetbroadPhase@Basic@ProfileEventId@Cm@physx@@SAAEBUPxProfileEventId@4@XZ 0000000180034830 f i CmEventProfiler.obj
 0001:00033840       ?GetbrokenEdgeIslands@IslandGen@ProfileEventId@Cm@physx@@SAAEBUPxProfileEventId@4@XZ 0000000180034840 f i CmEventProfiler.obj
 0001:00033850       ?GetbuildActiveTransforms@Sim@ProfileEventId@Cm@physx@@SAAEBUPxProfileEventId@4@XZ 0000000180034850 f i CmEventProfiler.obj
 0001:00033860       ?GetccdBroadPhase@Sim@ProfileEventId@Cm@physx@@SAAEBUPxProfileEventId@4@XZ 0000000180034860 f i CmEventProfiler.obj
 0001:00033870       ?GetccdBroadPhaseComplete@Sim@ProfileEventId@Cm@physx@@SAAEBUPxProfileEventId@4@XZ 0000000180034870 f i CmEventProfiler.obj
 0001:00033880       ?GetccdIsland@Sim@ProfileEventId@Cm@physx@@SAAEBUPxProfileEventId@4@XZ 0000000180034880 f i CmEventProfiler.obj
 0001:00033890       ?GetccdPair@Sim@ProfileEventId@Cm@physx@@SAAEBUPxProfileEventId@4@XZ 0000000180034890 f i CmEventProfiler.obj
 0001:000338a0       ?GetccdSweep@Sim@ProfileEventId@Cm@physx@@SAAEBUPxProfileEventId@4@XZ 00000001800348a0 f i CmEventProfiler.obj
 0001:000338b0       ?GetccdSweepMerge@Sim@ProfileEventId@Cm@physx@@SAAEBUPxProfileEventId@4@XZ 00000001800348b0 f i CmEventProfiler.obj
 0001:000338c0       ?GetcheckCollision@Basic@ProfileEventId@Cm@physx@@SAAEBUPxProfileEventId@4@XZ 00000001800348c0 f i CmEventProfiler.obj
 0001:000338d0       ?GetcheckConstraintBreakage@Sim@ProfileEventId@Cm@physx@@SAAEBUPxProfileEventId@4@XZ 00000001800348d0 f i CmEventProfiler.obj
 0001:000338e0       ?GetcheckResults@Basic@ProfileEventId@Cm@physx@@SAAEBUPxProfileEventId@4@XZ 00000001800348e0 f i CmEventProfiler.obj
 0001:000338f0       ?GetcleanupEdgeEvents@IslandGen@ProfileEventId@Cm@physx@@SAAEBUPxProfileEventId@4@XZ 00000001800348f0 f i CmEventProfiler.obj
 0001:00033900       ?GetcollideQueueTasks@Sim@ProfileEventId@Cm@physx@@SAAEBUPxProfileEventId@4@XZ 0000000180034900 f i CmEventProfiler.obj
 0001:00033910       ?Getcollision@Basic@ProfileEventId@Cm@physx@@SAAEBUPxProfileEventId@4@XZ 0000000180034910 f i CmEventProfiler.obj
 0001:00033920       ?GetcomputeAABBUpdateLists@BroadPhase@ProfileEventId@Cm@physx@@SAAEBUPxProfileEventId@4@XZ 0000000180034920 f i CmEventProfiler.obj
 0001:00033930       ?GetcomputeAggAggShapePairs@BroadPhase@ProfileEventId@Cm@physx@@SAAEBUPxProfileEventId@4@XZ 0000000180034930 f i CmEventProfiler.obj
 0001:00033940       ?GetcomputeJointDrives@Articulations@ProfileEventId@Cm@physx@@SAAEBUPxProfileEventId@4@XZ 0000000180034940 f i CmEventProfiler.obj
 0001:00033950       ?GetcorrelatePatches@Dynamics@ProfileEventId@Cm@physx@@SAAEBUPxProfileEventId@4@XZ 0000000180034950 f i CmEventProfiler.obj
 0001:00033960       ?GetcreateBatchQuery@API@ProfileEventId@Cm@physx@@SAAEBUPxProfileEventId@4@XZ 0000000180034960 f i CmEventProfiler.obj
 0001:00033970       ?GetcreateContactPatches@Dynamics@ProfileEventId@Cm@physx@@SAAEBUPxProfileEventId@4@XZ 0000000180034970 f i CmEventProfiler.obj
 0001:00033980       ?GetcreateFinalize@Dynamics@ProfileEventId@Cm@physx@@SAAEBUPxProfileEventId@4@XZ 0000000180034980 f i CmEventProfiler.obj
 0001:00033990       ?GetcreatePVDInstance@PVD@ProfileEventId@Cm@physx@@SAAEBUPxProfileEventId@4@XZ 0000000180034990 f i CmEventProfiler.obj
 0001:000339a0       ?GetcreatedNodes@IslandGen@ProfileEventId@Cm@physx@@SAAEBUPxProfileEventId@4@XZ 00000001800349a0 f i CmEventProfiler.obj
 0001:000339b0       ?GetdeletedNodesEdges@IslandGen@ProfileEventId@Cm@physx@@SAAEBUPxProfileEventId@4@XZ 00000001800349b0 f i CmEventProfiler.obj
 0001:000339c0       ?GetduplicateKinematicNodes@IslandGen@ProfileEventId@Cm@physx@@SAAEBUPxProfileEventId@4@XZ 00000001800349c0 f i CmEventProfiler.obj
 0001:000339d0       ?Getdynamics@Basic@ProfileEventId@Cm@physx@@SAAEBUPxProfileEventId@4@XZ 00000001800349d0 f i CmEventProfiler.obj
 0001:000339e0       ?GetemptyIslands@IslandGen@ProfileEventId@Cm@physx@@SAAEBUPxProfileEventId@4@XZ 00000001800349e0 f i CmEventProfiler.obj
 0001:000339f0       ?GetendStep@ParticleSim@ProfileEventId@Cm@physx@@SAAEBUPxProfileEventId@4@XZ 00000001800349f0 f i CmEventProfiler.obj
 0001:00033a00       ?Getexecute@BatchedSceneQuery@ProfileEventId@Cm@physx@@SAAEBUPxProfileEventId@4@XZ 0000000180034a00 f i CmEventProfiler.obj
 0001:00033a10       ?GetfetchResults@Basic@ProfileEventId@Cm@physx@@SAAEBUPxProfileEventId@4@XZ 0000000180034a10 f i CmEventProfiler.obj
 0001:00033a20       ?GetfetchResults@Sim@ProfileEventId@Cm@physx@@SAAEBUPxProfileEventId@4@XZ 0000000180034a20 f i CmEventProfiler.obj
 0001:00033a30       ?GetfindAndReplaceWithLast@API@ProfileEventId@Cm@physx@@SAAEBUPxProfileEventId@4@XZ 0000000180034a30 f i CmEventProfiler.obj
 0001:00033a40       ?Getfinish@BroadPhase@ProfileEventId@Cm@physx@@SAAEBUPxProfileEventId@4@XZ 0000000180034a40 f i CmEventProfiler.obj
 0001:00033a50       ?GetfinishModifiablePairs@Sim@ProfileEventId@Cm@physx@@SAAEBUPxProfileEventId@4@XZ 0000000180034a50 f i CmEventProfiler.obj
 0001:00033a60       ?GetfireCallBacksPostSync@Sim@ProfileEventId@Cm@physx@@SAAEBUPxProfileEventId@4@XZ 0000000180034a60 f i CmEventProfiler.obj
 0001:00033a70       ?GetfireCallBacksPreSync@Sim@ProfileEventId@Cm@physx@@SAAEBUPxProfileEventId@4@XZ 0000000180034a70 f i CmEventProfiler.obj
 0001:00033a80       ?GetfireCustomFilteringCallbacks@Sim@ProfileEventId@Cm@physx@@SAAEBUPxProfileEventId@4@XZ 0000000180034a80 f i CmEventProfiler.obj
 0001:00033a90       ?GetflushQueryUpdates@API@ProfileEventId@Cm@physx@@SAAEBUPxProfileEventId@4@XZ 0000000180034a90 f i CmEventProfiler.obj
 0001:00033aa0       ?GetflushSimulation@API@ProfileEventId@Cm@physx@@SAAEBUPxProfileEventId@4@XZ 0000000180034aa0 f i CmEventProfiler.obj
 0001:00033ab0       ?GetflushUpdates@SceneQuery@ProfileEventId@Cm@physx@@SAAEBUPxProfileEventId@4@XZ 0000000180034ab0 f i CmEventProfiler.obj
 0001:00033ac0       ?GetforceDynamicTreeRebuild@API@ProfileEventId@Cm@physx@@SAAEBUPxProfileEventId@4@XZ 0000000180034ac0 f i CmEventProfiler.obj
 0001:00033ad0       ?GetfreeBuffers@IslandGen@ProfileEventId@Cm@physx@@SAAEBUPxProfileEventId@4@XZ 0000000180034ad0 f i CmEventProfiler.obj
 0001:00033ae0       ?GetgetFrictionPatch@Dynamics@ProfileEventId@Cm@physx@@SAAEBUPxProfileEventId@4@XZ 0000000180034ae0 f i CmEventProfiler.obj
 0001:00033af0       ?GetgetSimEvents@Sim@ProfileEventId@Cm@physx@@SAAEBUPxProfileEventId@4@XZ 0000000180034af0 f i CmEventProfiler.obj
 0001:00033b00       ?GetgrowPatches@Dynamics@ProfileEventId@Cm@physx@@SAAEBUPxProfileEventId@4@XZ 0000000180034b00 f i CmEventProfiler.obj
 0001:00033b10       ?Getintegrate@Articulations@ProfileEventId@Cm@physx@@SAAEBUPxProfileEventId@4@XZ 0000000180034b10 f i CmEventProfiler.obj
 0001:00033b20       ?GetislandGen@Basic@ProfileEventId@Cm@physx@@SAAEBUPxProfileEventId@4@XZ 0000000180034b20 f i CmEventProfiler.obj
 0001:00033b30       ?GetjoinedEdges@IslandGen@ProfileEventId@Cm@physx@@SAAEBUPxProfileEventId@4@XZ 0000000180034b30 f i CmEventProfiler.obj
 0001:00033b40       ?GetjointLoads@Articulations@ProfileEventId@Cm@physx@@SAAEBUPxProfileEventId@4@XZ 0000000180034b40 f i CmEventProfiler.obj
 0001:00033b50       ?GetnarrowPhase@Basic@ProfileEventId@Cm@physx@@SAAEBUPxProfileEventId@4@XZ 0000000180034b50 f i CmEventProfiler.obj
 0001:00033b60       ?GetnarrowPhase@Sim@ProfileEventId@Cm@physx@@SAAEBUPxProfileEventId@4@XZ 0000000180034b60 f i CmEventProfiler.obj
 0001:00033b70       ?GetnarrowPhaseMerge@Sim@ProfileEventId@Cm@physx@@SAAEBUPxProfileEventId@4@XZ 0000000180034b70 f i CmEventProfiler.obj
 0001:00033b80       ?GetoriginShift@PVD@ProfileEventId@Cm@physx@@SAAEBUPxProfileEventId@4@XZ 0000000180034b80 f i CmEventProfiler.obj
 0001:00033b90       ?GetoverlapMultiple@BatchedSceneQuery@ProfileEventId@Cm@physx@@SAAEBUPxProfileEventId@4@XZ 0000000180034b90 f i CmEventProfiler.obj
 0001:00033ba0       ?GetoverlapMultiple@SceneQuery@ProfileEventId@Cm@physx@@SAAEBUPxProfileEventId@4@XZ 0000000180034ba0 f i CmEventProfiler.obj
 0001:00033bb0       ?GetparallelSolve@Dynamics@ProfileEventId@Cm@physx@@SAAEBUPxProfileEventId@4@XZ 0000000180034bb0 f i CmEventProfiler.obj
 0001:00033bc0       ?GetpostIslandGenSecondPass@Sim@ProfileEventId@Cm@physx@@SAAEBUPxProfileEventId@4@XZ 0000000180034bc0 f i CmEventProfiler.obj
 0001:00033bd0       ?GetpreIslandGen@Sim@ProfileEventId@Cm@physx@@SAAEBUPxProfileEventId@4@XZ 0000000180034bd0 f i CmEventProfiler.obj
 0001:00033be0       ?GetpreIslandGenSecondPass@Sim@ProfileEventId@Cm@physx@@SAAEBUPxProfileEventId@4@XZ 0000000180034be0 f i CmEventProfiler.obj
 0001:00033bf0       ?GetprepareDataBlock@Articulations@ProfileEventId@Cm@physx@@SAAEBUPxProfileEventId@4@XZ 0000000180034bf0 f i CmEventProfiler.obj
 0001:00033c00       ?GetprepareFsData@Articulations@ProfileEventId@Cm@physx@@SAAEBUPxProfileEventId@4@XZ 0000000180034c00 f i CmEventProfiler.obj
 0001:00033c10       ?GetprocessBPResults@BroadPhase@ProfileEventId@Cm@physx@@SAAEBUPxProfileEventId@4@XZ 0000000180034c10 f i CmEventProfiler.obj
 0001:00033c20       ?GetprocessLostOverlaps@Sim@ProfileEventId@Cm@physx@@SAAEBUPxProfileEventId@4@XZ 0000000180034c20 f i CmEventProfiler.obj
 0001:00033c30       ?GetprocessNewOverlaps@Sim@ProfileEventId@Cm@physx@@SAAEBUPxProfileEventId@4@XZ 0000000180034c30 f i CmEventProfiler.obj
 0001:00033c40       ?GetprocessSleepingIslands@IslandGen@ProfileEventId@Cm@physx@@SAAEBUPxProfileEventId@4@XZ 0000000180034c40 f i CmEventProfiler.obj
 0001:00033c50       ?GetprocessTriggers@Sim@ProfileEventId@Cm@physx@@SAAEBUPxProfileEventId@4@XZ 0000000180034c50 f i CmEventProfiler.obj
 0001:00033c60       ?GetprojectConstraints@Sim@ProfileEventId@Cm@physx@@SAAEBUPxProfileEventId@4@XZ 0000000180034c60 f i CmEventProfiler.obj
 0001:00033c70       ?GetprojectContacts@Sim@ProfileEventId@Cm@physx@@SAAEBUPxProfileEventId@4@XZ 0000000180034c70 f i CmEventProfiler.obj
 0001:00033c80       ?GetprojectionTreeUpdates@Sim@ProfileEventId@Cm@physx@@SAAEBUPxProfileEventId@4@XZ 0000000180034c80 f i CmEventProfiler.obj
 0001:00033c90       ?GetpropagateDrivenInertia@Articulations@ProfileEventId@Cm@physx@@SAAEBUPxProfileEventId@4@XZ 0000000180034c90 f i CmEventProfiler.obj
 0001:00033ca0       ?GetpvdFrameStart@Basic@ProfileEventId@Cm@physx@@SAAEBUPxProfileEventId@4@XZ 0000000180034ca0 f i CmEventProfiler.obj
 0001:00033cb0       ?GetqueueNarrowPhase@Sim@ProfileEventId@Cm@physx@@SAAEBUPxProfileEventId@4@XZ 0000000180034cb0 f i CmEventProfiler.obj
 0001:00033cc0       ?GetraycastAny@BatchedSceneQuery@ProfileEventId@Cm@physx@@SAAEBUPxProfileEventId@4@XZ 0000000180034cc0 f i CmEventProfiler.obj
 0001:00033cd0       ?GetraycastAny@SceneQuery@ProfileEventId@Cm@physx@@SAAEBUPxProfileEventId@4@XZ 0000000180034cd0 f i CmEventProfiler.obj
 0001:00033ce0       ?GetraycastMultiple@BatchedSceneQuery@ProfileEventId@Cm@physx@@SAAEBUPxProfileEventId@4@XZ 0000000180034ce0 f i CmEventProfiler.obj
 0001:00033cf0       ?GetraycastMultiple@SceneQuery@ProfileEventId@Cm@physx@@SAAEBUPxProfileEventId@4@XZ 0000000180034cf0 f i CmEventProfiler.obj
 0001:00033d00       ?GetraycastSingle@BatchedSceneQuery@ProfileEventId@Cm@physx@@SAAEBUPxProfileEventId@4@XZ 0000000180034d00 f i CmEventProfiler.obj
 0001:00033d10       ?GetraycastSingle@SceneQuery@ProfileEventId@Cm@physx@@SAAEBUPxProfileEventId@4@XZ 0000000180034d10 f i CmEventProfiler.obj
 0001:00033d20       ?GetreleaseBatchQuery@API@ProfileEventId@Cm@physx@@SAAEBUPxProfileEventId@4@XZ 0000000180034d20 f i CmEventProfiler.obj
 0001:00033d30       ?GetreleasePVDInstance@PVD@ProfileEventId@Cm@physx@@SAAEBUPxProfileEventId@4@XZ 0000000180034d30 f i CmEventProfiler.obj
 0001:00033d40       ?GetremoveActor@API@ProfileEventId@Cm@physx@@SAAEBUPxProfileEventId@4@XZ 0000000180034d40 f i CmEventProfiler.obj
 0001:00033d50       ?GetremoveActorFromSim@API@ProfileEventId@Cm@physx@@SAAEBUPxProfileEventId@4@XZ 0000000180034d50 f i CmEventProfiler.obj
 0001:00033d60       ?GetremoveActors@API@ProfileEventId@Cm@physx@@SAAEBUPxProfileEventId@4@XZ 0000000180034d60 f i CmEventProfiler.obj
 0001:00033d70       ?GetremoveAggregate@API@ProfileEventId@Cm@physx@@SAAEBUPxProfileEventId@4@XZ 0000000180034d70 f i CmEventProfiler.obj
 0001:00033d80       ?GetremoveArticulation@API@ProfileEventId@Cm@physx@@SAAEBUPxProfileEventId@4@XZ 0000000180034d80 f i CmEventProfiler.obj
 0001:00033d90       ?GetremoveCloth@API@ProfileEventId@Cm@physx@@SAAEBUPxProfileEventId@4@XZ 0000000180034d90 f i CmEventProfiler.obj
 0001:00033da0       ?GetremoveParticleFluid@API@ProfileEventId@Cm@physx@@SAAEBUPxProfileEventId@4@XZ 0000000180034da0 f i CmEventProfiler.obj
 0001:00033db0       ?GetremoveParticleSystem@API@ProfileEventId@Cm@physx@@SAAEBUPxProfileEventId@4@XZ 0000000180034db0 f i CmEventProfiler.obj
 0001:00033dc0       ?GetremoveShapesFromSQ@API@ProfileEventId@Cm@physx@@SAAEBUPxProfileEventId@4@XZ 0000000180034dc0 f i CmEventProfiler.obj
 0001:00033dd0       ?GetremoveShapesFromSim@API@ProfileEventId@Cm@physx@@SAAEBUPxProfileEventId@4@XZ 0000000180034dd0 f i CmEventProfiler.obj
 0001:00033de0       ?GetresetDependencies@Sim@ProfileEventId@Cm@physx@@SAAEBUPxProfileEventId@4@XZ 0000000180034de0 f i CmEventProfiler.obj
 0001:00033df0       ?GetresizeArrays@IslandGen@ProfileEventId@Cm@physx@@SAAEBUPxProfileEventId@4@XZ 0000000180034df0 f i CmEventProfiler.obj
 0001:00033e00       ?GetresizeForKinematics@IslandGen@ProfileEventId@Cm@physx@@SAAEBUPxProfileEventId@4@XZ 0000000180034e00 f i CmEventProfiler.obj
 0001:00033e10       ?GetrigidBodySolver@Basic@ProfileEventId@Cm@physx@@SAAEBUPxProfileEventId@4@XZ 0000000180034e10 f i CmEventProfiler.obj
 0001:00033e20       ?GetsceneFinalization@Sim@ProfileEventId@Cm@physx@@SAAEBUPxProfileEventId@4@XZ 0000000180034e20 f i CmEventProfiler.obj
 0001:00033e30       ?GetsceneUpdate@PVD@ProfileEventId@Cm@physx@@SAAEBUPxProfileEventId@4@XZ 0000000180034e30 f i CmEventProfiler.obj
 0001:00033e40       ?GetsendPVDArrays@PVD@ProfileEventId@Cm@physx@@SAAEBUPxProfileEventId@4@XZ 0000000180034e40 f i CmEventProfiler.obj
 0001:00033e50       ?GetsetupConstraints@Articulations@ProfileEventId@Cm@physx@@SAAEBUPxProfileEventId@4@XZ 0000000180034e50 f i CmEventProfiler.obj
 0001:00033e60       ?GetsetupDrives@Articulations@ProfileEventId@Cm@physx@@SAAEBUPxProfileEventId@4@XZ 0000000180034e60 f i CmEventProfiler.obj
 0001:00033e70       ?GetsetupFinalize@Dynamics@ProfileEventId@Cm@physx@@SAAEBUPxProfileEventId@4@XZ 0000000180034e70 f i CmEventProfiler.obj
 0001:00033e80       ?GetsetupProject@Articulations@ProfileEventId@Cm@physx@@SAAEBUPxProfileEventId@4@XZ 0000000180034e80 f i CmEventProfiler.obj
 0001:00033e90       ?GetshapesUpdateProcessing@ParticleSim@ProfileEventId@Cm@physx@@SAAEBUPxProfileEventId@4@XZ 0000000180034e90 f i CmEventProfiler.obj
 0001:00033ea0       ?GetshiftOrigin@API@ProfileEventId@Cm@physx@@SAAEBUPxProfileEventId@4@XZ 0000000180034ea0 f i CmEventProfiler.obj
 0001:00033eb0       ?GetsimAddShapeToBroadPhase@API@ProfileEventId@Cm@physx@@SAAEBUPxProfileEventId@4@XZ 0000000180034eb0 f i CmEventProfiler.obj
 0001:00033ec0       ?Getsimulate@Basic@ProfileEventId@Cm@physx@@SAAEBUPxProfileEventId@4@XZ 0000000180034ec0 f i CmEventProfiler.obj
 0001:00033ed0       ?GetsolveGroup@Dynamics@ProfileEventId@Cm@physx@@SAAEBUPxProfileEventId@4@XZ 0000000180034ed0 f i CmEventProfiler.obj
 0001:00033ee0       ?GetsolveQueueTasks@Sim@ProfileEventId@Cm@physx@@SAAEBUPxProfileEventId@4@XZ 0000000180034ee0 f i CmEventProfiler.obj
 0001:00033ef0       ?Getsolver@Dynamics@ProfileEventId@Cm@physx@@SAAEBUPxProfileEventId@4@XZ 0000000180034ef0 f i CmEventProfiler.obj
 0001:00033f00       ?GetsolverMergeResults@Dynamics@ProfileEventId@Cm@physx@@SAAEBUPxProfileEventId@4@XZ 0000000180034f00 f i CmEventProfiler.obj
 0001:00033f10       ?GetsolverQueueTasks@Dynamics@ProfileEventId@Cm@physx@@SAAEBUPxProfileEventId@4@XZ 0000000180034f10 f i CmEventProfiler.obj
 0001:00033f20       ?GetstartStep@ParticleSim@ProfileEventId@Cm@physx@@SAAEBUPxProfileEventId@4@XZ 0000000180034f20 f i CmEventProfiler.obj
 0001:00033f30       ?GetstepSetupCollide@Sim@ProfileEventId@Cm@physx@@SAAEBUPxProfileEventId@4@XZ 0000000180034f30 f i CmEventProfiler.obj
 0001:00033f40       ?GetstepSetupSimulate@Sim@ProfileEventId@Cm@physx@@SAAEBUPxProfileEventId@4@XZ 0000000180034f40 f i CmEventProfiler.obj
 0001:00033f50       ?GetstepSetupSolve@Sim@ProfileEventId@Cm@physx@@SAAEBUPxProfileEventId@4@XZ 0000000180034f50 f i CmEventProfiler.obj
 0001:00033f60       ?GetsweepAny@SceneQuery@ProfileEventId@Cm@physx@@SAAEBUPxProfileEventId@4@XZ 0000000180034f60 f i CmEventProfiler.obj
 0001:00033f70       ?GetsweepAnyList@SceneQuery@ProfileEventId@Cm@physx@@SAAEBUPxProfileEventId@4@XZ 0000000180034f70 f i CmEventProfiler.obj
 0001:00033f80       ?GetsweepMultiple@BatchedSceneQuery@ProfileEventId@Cm@physx@@SAAEBUPxProfileEventId@4@XZ 0000000180034f80 f i CmEventProfiler.obj
 0001:00033f90       ?GetsweepMultiple@SceneQuery@ProfileEventId@Cm@physx@@SAAEBUPxProfileEventId@4@XZ 0000000180034f90 f i CmEventProfiler.obj
 0001:00033fa0       ?GetsweepMultipleList@SceneQuery@ProfileEventId@Cm@physx@@SAAEBUPxProfileEventId@4@XZ 0000000180034fa0 f i CmEventProfiler.obj
 0001:00033fb0       ?GetsweepSingle@BatchedSceneQuery@ProfileEventId@Cm@physx@@SAAEBUPxProfileEventId@4@XZ 0000000180034fb0 f i CmEventProfiler.obj
 0001:00033fc0       ?GetsweepSingle@SceneQuery@ProfileEventId@Cm@physx@@SAAEBUPxProfileEventId@4@XZ 0000000180034fc0 f i CmEventProfiler.obj
 0001:00033fd0       ?GetsweepSingleList@SceneQuery@ProfileEventId@Cm@physx@@SAAEBUPxProfileEventId@4@XZ 0000000180034fd0 f i CmEventProfiler.obj
 0001:00033fe0       ?GetsyncBodiesAfterIntegration@Sim@ProfileEventId@Cm@physx@@SAAEBUPxProfileEventId@4@XZ 0000000180034fe0 f i CmEventProfiler.obj
 0001:00033ff0       ?GetsyncBodiesAfterSolver@Sim@ProfileEventId@Cm@physx@@SAAEBUPxProfileEventId@4@XZ 0000000180034ff0 f i CmEventProfiler.obj
 0001:00034000       ?GetsyncState@Sim@ProfileEventId@Cm@physx@@SAAEBUPxProfileEventId@4@XZ 0000000180035000 f i CmEventProfiler.obj
 0001:00034010       ?GettaskFrameworkSetup@Sim@ProfileEventId@Cm@physx@@SAAEBUPxProfileEventId@4@XZ 0000000180035010 f i CmEventProfiler.obj
 0001:00034020       ?GetupdateAggAABBs@BroadPhase@ProfileEventId@Cm@physx@@SAAEBUPxProfileEventId@4@XZ 0000000180035020 f i CmEventProfiler.obj
 0001:00034030       ?GetupdateAggLocalSpaceBounds@BroadPhase@ProfileEventId@Cm@physx@@SAAEBUPxProfileEventId@4@XZ 0000000180035030 f i CmEventProfiler.obj
 0001:00034040       ?GetupdateBroadphase@BroadPhase@ProfileEventId@Cm@physx@@SAAEBUPxProfileEventId@4@XZ 0000000180035040 f i CmEventProfiler.obj
 0001:00034050       ?GetupdateCCDMultiPass@Sim@ProfileEventId@Cm@physx@@SAAEBUPxProfileEventId@4@XZ 0000000180035050 f i CmEventProfiler.obj
 0001:00034060       ?GetupdateCCDSinglePass@Sim@ProfileEventId@Cm@physx@@SAAEBUPxProfileEventId@4@XZ 0000000180035060 f i CmEventProfiler.obj
 0001:00034070       ?GetupdateCloths@PVD@ProfileEventId@Cm@physx@@SAAEBUPxProfileEventId@4@XZ 0000000180035070 f i CmEventProfiler.obj
 0001:00034080       ?GetupdateCollision@ParticleSim@ProfileEventId@Cm@physx@@SAAEBUPxProfileEventId@4@XZ 0000000180035080 f i CmEventProfiler.obj
 0001:00034090       ?GetupdateContacts@PVD@ProfileEventId@Cm@physx@@SAAEBUPxProfileEventId@4@XZ 0000000180035090 f i CmEventProfiler.obj
 0001:000340a0       ?GetupdateDirtyShaders@Sim@ProfileEventId@Cm@physx@@SAAEBUPxProfileEventId@4@XZ 00000001800350a0 f i CmEventProfiler.obj
 0001:000340b0       ?GetupdateDynamicBodies@PVD@ProfileEventId@Cm@physx@@SAAEBUPxProfileEventId@4@XZ 00000001800350b0 f i CmEventProfiler.obj
 0001:000340c0       ?GetupdateForces@Sim@ProfileEventId@Cm@physx@@SAAEBUPxProfileEventId@4@XZ 00000001800350c0 f i CmEventProfiler.obj
 0001:000340d0       ?GetupdateIslands@Sim@ProfileEventId@Cm@physx@@SAAEBUPxProfileEventId@4@XZ 00000001800350d0 f i CmEventProfiler.obj
 0001:000340e0       ?GetupdateIslandsSecondPass@Sim@ProfileEventId@Cm@physx@@SAAEBUPxProfileEventId@4@XZ 00000001800350e0 f i CmEventProfiler.obj
 0001:000340f0       ?GetupdateJoints@PVD@ProfileEventId@Cm@physx@@SAAEBUPxProfileEventId@4@XZ 00000001800350f0 f i CmEventProfiler.obj
 0001:00034100       ?GetupdateKinematics@Dynamics@ProfileEventId@Cm@physx@@SAAEBUPxProfileEventId@4@XZ 0000000180035100 f i CmEventProfiler.obj
 0001:00034110       ?GetupdateLazyAggShapeAABBs@BroadPhase@ProfileEventId@Cm@physx@@SAAEBUPxProfileEventId@4@XZ 0000000180035110 f i CmEventProfiler.obj
 0001:00034120       ?GetupdatePVDProperties@PVD@ProfileEventId@Cm@physx@@SAAEBUPxProfileEventId@4@XZ 0000000180035120 f i CmEventProfiler.obj
 0001:00034130       ?GetupdatePariclesAndFluids@PVD@ProfileEventId@Cm@physx@@SAAEBUPxProfileEventId@4@XZ 0000000180035130 f i CmEventProfiler.obj
 0001:00034140       ?GetupdatePositions@Dynamics@ProfileEventId@Cm@physx@@SAAEBUPxProfileEventId@4@XZ 0000000180035140 f i CmEventProfiler.obj
 0001:00034150       ?GetupdatePruningTrees@Sim@ProfileEventId@Cm@physx@@SAAEBUPxProfileEventId@4@XZ 0000000180035150 f i CmEventProfiler.obj
 0001:00034160       ?GetupdateShapeAABBs@BroadPhase@ProfileEventId@Cm@physx@@SAAEBUPxProfileEventId@4@XZ 0000000180035160 f i CmEventProfiler.obj
 0001:00034170       ?GetupdateSleeping@PVD@ProfileEventId@Cm@physx@@SAAEBUPxProfileEventId@4@XZ 0000000180035170 f i CmEventProfiler.obj
 0001:00034180       ?GetupdateVelocities@Dynamics@ProfileEventId@Cm@physx@@SAAEBUPxProfileEventId@4@XZ 0000000180035180 f i CmEventProfiler.obj
 0001:00034190       ?GetvisualizeEndStep@Sim@ProfileEventId@Cm@physx@@SAAEBUPxProfileEventId@4@XZ 0000000180035190 f i CmEventProfiler.obj
 0001:000341a0       ?GetvisualizeStartStep@Sim@ProfileEventId@Cm@physx@@SAAEBUPxProfileEventId@4@XZ 00000001800351a0 f i CmEventProfiler.obj
 0001:000341b0       ?create@?$HashBase@V?$Pair@$$CBUEventIdContextPair@nvtx@@_K@shdfnd@physx@@UEventIdContextPair@nvtx@@U?$Hash@UEventIdContextPair@nvtx@@@5@UGetKey@?$HashMapBase@UEventIdContextPair@nvtx@@_KU?$Hash@UEventIdContextPair@nvtx@@@2@VAllocator@shdfnd@physx@@@internal@23@VAllocator@23@$00@internal@shdfnd@physx@@QEAAPEAV?$Pair@$$CBUEventIdContextPair@nvtx@@_K@34@AEBUEventIdContextPair@nvtx@@AEA_N@Z 00000001800351b0 f i CmEventProfiler.obj
 0001:000343c0       ?freeListAdd@?$HashBase@V?$Pair@$$CBUEventIdContextPair@nvtx@@_K@shdfnd@physx@@UEventIdContextPair@nvtx@@U?$Hash@UEventIdContextPair@nvtx@@@5@UGetKey@?$HashMapBase@UEventIdContextPair@nvtx@@_KU?$Hash@UEventIdContextPair@nvtx@@@2@VAllocator@shdfnd@physx@@@internal@23@VAllocator@23@$00@internal@shdfnd@physx@@AEAAXII@Z 00000001800353c0 f i CmEventProfiler.obj
 0001:000344f0       ?freeListEmpty@?$HashBase@V?$Pair@$$CBUEventIdContextPair@nvtx@@_K@shdfnd@physx@@UEventIdContextPair@nvtx@@U?$Hash@UEventIdContextPair@nvtx@@@5@UGetKey@?$HashMapBase@UEventIdContextPair@nvtx@@_KU?$Hash@UEventIdContextPair@nvtx@@@2@VAllocator@shdfnd@physx@@@internal@23@VAllocator@23@$00@internal@shdfnd@physx@@AEBA_NXZ 00000001800354f0 f i CmEventProfiler.obj
 0001:00034570       ?freeListGetNext@?$HashBase@V?$Pair@$$CBUEventIdContextPair@nvtx@@_K@shdfnd@physx@@UEventIdContextPair@nvtx@@U?$Hash@UEventIdContextPair@nvtx@@@5@UGetKey@?$HashMapBase@UEventIdContextPair@nvtx@@_KU?$Hash@UEventIdContextPair@nvtx@@@2@VAllocator@shdfnd@physx@@@internal@23@VAllocator@23@$00@internal@shdfnd@physx@@AEAAIXZ 0000000180035570 f i CmEventProfiler.obj
 0001:000346d0       ?grow@?$HashBase@V?$Pair@$$CBUEventIdContextPair@nvtx@@_K@shdfnd@physx@@UEventIdContextPair@nvtx@@U?$Hash@UEventIdContextPair@nvtx@@@5@UGetKey@?$HashMapBase@UEventIdContextPair@nvtx@@_KU?$Hash@UEventIdContextPair@nvtx@@@2@VAllocator@shdfnd@physx@@@internal@23@VAllocator@23@$00@internal@shdfnd@physx@@AEAAXXZ 00000001800356d0 f i CmEventProfiler.obj
 0001:000347b0       ?hash@?$HashBase@V?$Pair@$$CBUEventIdContextPair@nvtx@@_K@shdfnd@physx@@UEventIdContextPair@nvtx@@U?$Hash@UEventIdContextPair@nvtx@@@5@UGetKey@?$HashMapBase@UEventIdContextPair@nvtx@@_KU?$Hash@UEventIdContextPair@nvtx@@@2@VAllocator@shdfnd@physx@@@internal@23@VAllocator@23@$00@internal@shdfnd@physx@@AEBAIAEBUEventIdContextPair@nvtx@@@Z 00000001800357b0 f i CmEventProfiler.obj
 0001:000347f0       ?hash@?$HashBase@V?$Pair@$$CBUEventIdContextPair@nvtx@@_K@shdfnd@physx@@UEventIdContextPair@nvtx@@U?$Hash@UEventIdContextPair@nvtx@@@5@UGetKey@?$HashMapBase@UEventIdContextPair@nvtx@@_KU?$Hash@UEventIdContextPair@nvtx@@@2@VAllocator@shdfnd@physx@@@internal@23@VAllocator@23@$00@internal@shdfnd@physx@@AEBAIAEBUEventIdContextPair@nvtx@@I@Z 00000001800357f0 f i CmEventProfiler.obj
 0001:00034830       ?reserve@?$HashBase@V?$Pair@$$CBUEventIdContextPair@nvtx@@_K@shdfnd@physx@@UEventIdContextPair@nvtx@@U?$Hash@UEventIdContextPair@nvtx@@@5@UGetKey@?$HashMapBase@UEventIdContextPair@nvtx@@_KU?$Hash@UEventIdContextPair@nvtx@@@2@VAllocator@shdfnd@physx@@@internal@23@VAllocator@23@$00@internal@shdfnd@physx@@QEAAXI@Z 0000000180035830 f i CmEventProfiler.obj
 0001:00034870       ?reserveInternal@?$HashBase@V?$Pair@$$CBUEventIdContextPair@nvtx@@_K@shdfnd@physx@@UEventIdContextPair@nvtx@@U?$Hash@UEventIdContextPair@nvtx@@@5@UGetKey@?$HashMapBase@UEventIdContextPair@nvtx@@_KU?$Hash@UEventIdContextPair@nvtx@@@2@VAllocator@shdfnd@physx@@@internal@23@VAllocator@23@$00@internal@shdfnd@physx@@AEAAXI@Z 0000000180035870 f i CmEventProfiler.obj
 0001:00034f70       ?storeCrossEvent@EventProfiler@Cm@physx@@QEAAXG_K0@Z 0000000180035f70 f i CmEventProfiler.obj
 0001:00035000       ?dumpFreeListAllocatorState@Cm@physx@@YAXAEAVFreeListAllocator@12@@Z 0000000180036000 f   CmFreeListAllocator.obj
 0001:00035190       ??0FreeListAllocator@Cm@physx@@QEAA@AEAVPxAllocatorCallback@2@@Z 0000000180036190 f   CmFreeListAllocator.obj
 0001:00035250       ??1FreeListAllocator@Cm@physx@@UEAA@XZ 0000000180036250 f   CmFreeListAllocator.obj
 0001:000352f0       ?getQWSize@FreeListAllocator@Cm@physx@@SAI_K@Z 00000001800362f0 f   CmFreeListAllocator.obj
 0001:00035310       ?allocate@FreeListAllocator@Cm@physx@@UEAAPEAX_KPEBD1H@Z 0000000180036310 f   CmFreeListAllocator.obj
 0001:000353a0       ?deallocate@FreeListAllocator@Cm@physx@@UEAAXPEAX@Z 00000001800363a0 f   CmFreeListAllocator.obj
 0001:00035430       ?findBestFit@FreeListAllocator@Cm@physx@@AEAAPEAVChunk@23@IAEAI@Z 0000000180036430 f   CmFreeListAllocator.obj
 0001:000354d0       ?pushOnFreeList@FreeListAllocator@Cm@physx@@AEAAXPEAVChunk@23@I@Z 00000001800364d0 f   CmFreeListAllocator.obj
 0001:00035550       ?popFromFreeList@FreeListAllocator@Cm@physx@@AEAAPEAVChunk@23@I@Z 0000000180036550 f   CmFreeListAllocator.obj
 0001:00035620       ?unlinkFromFreeList@FreeListAllocator@Cm@physx@@AEAAXPEAVChunk@23@@Z 0000000180036620 f   CmFreeListAllocator.obj
 0001:00035690       ?allocChunk@FreeListAllocator@Cm@physx@@AEAAPEAXI@Z 0000000180036690 f   CmFreeListAllocator.obj
 0001:000357c0       ?freeChunk@FreeListAllocator@Cm@physx@@AEAAXPEAVChunk@23@@Z 00000001800367c0 f   CmFreeListAllocator.obj
 0001:00035920       ?directAlloc@FreeListAllocator@Cm@physx@@AEAAPEAX_K@Z 0000000180036920 f   CmFreeListAllocator.obj
 0001:00035a10       ?directFree@FreeListAllocator@Cm@physx@@AEAAXPEAX@Z 0000000180036a10 f   CmFreeListAllocator.obj
 0001:00035ac0       ?createFreeListAllocator@Cm@physx@@YAPEAVFreeListAllocator@12@AEAVPxAllocatorCallback@2@@Z 0000000180036ac0 f   CmFreeListAllocator.obj
 0001:00035b70       ?destroyFreeListAllocator@Cm@physx@@YAXAEAVFreeListAllocator@12@@Z 0000000180036b70 f   CmFreeListAllocator.obj
 0001:00035eb0       ??$addAddr@VBlock@Cm@physx@@@Cm@physx@@YAPEAVBlock@01@PEAV201@H@Z 0000000180036eb0 f i CmFreeListAllocator.obj
 0001:00035ed0       ??$addAddr@VChunk@Cm@physx@@@Cm@physx@@YAPEAVChunk@01@PEAV201@H@Z 0000000180036ed0 f i CmFreeListAllocator.obj
 0001:00035ef0       ??$addAddr@X@Cm@physx@@YAPEAXPEAXH@Z 0000000180036ef0 f i CmFreeListAllocator.obj
 0001:00035f10       ??0?$MutexT@VMutexAllocator@FreeListAllocator@Cm@physx@@@shdfnd@physx@@QEAA@AEBVMutexAllocator@FreeListAllocator@Cm@2@@Z 0000000180036f10 f i CmFreeListAllocator.obj
 0001:00035fc0       ??0FastBitMap@Cm@physx@@QEAA@XZ 0000000180036fc0 f i CmFreeListAllocator.obj
 0001:00036020       ??0MutexAllocator@FreeListAllocator@Cm@physx@@QEAA@AEAVPxAllocatorCallback@3@@Z 0000000180037020 f i CmFreeListAllocator.obj
 0001:00036050       ??0ScopedLock@?$MutexT@VMutexAllocator@FreeListAllocator@Cm@physx@@@shdfnd@physx@@QEAA@AEAV123@@Z 0000000180037050 f i CmFreeListAllocator.obj
 0001:00036090       ??1?$MutexT@VMutexAllocator@FreeListAllocator@Cm@physx@@@shdfnd@physx@@QEAA@XZ 0000000180037090 f i CmFreeListAllocator.obj
 0001:000360d0       ??1ScopedLock@?$MutexT@VMutexAllocator@FreeListAllocator@Cm@physx@@@shdfnd@physx@@QEAA@XZ 00000001800370d0 f i CmFreeListAllocator.obj
 0001:00036100       ??_EFreeListAllocator@Cm@physx@@UEAAPEAXI@Z 0000000180037100 f i CmFreeListAllocator.obj
 0001:00036100       ??_GFreeListAllocator@Cm@physx@@UEAAPEAXI@Z 0000000180037100 f i CmFreeListAllocator.obj
 0001:00036150       ?acquire@Chunk@Cm@physx@@QEAAXXZ 0000000180037150 f i CmFreeListAllocator.obj
 0001:00036170       ?allocate@MutexAllocator@FreeListAllocator@Cm@physx@@QEAAPEAX_KPEBDH@Z 0000000180037170 f i CmFreeListAllocator.obj
 0001:000361d0       ?deallocate@MutexAllocator@FreeListAllocator@Cm@physx@@QEAAXPEAX@Z 00000001800371d0 f i CmFreeListAllocator.obj
 0001:00036210       ?finalize@Block@Cm@physx@@QEAAXAEAPEAV123@@Z 0000000180037210 f i CmFreeListAllocator.obj
 0001:00036240       ?findFirst@FastBitMap@Cm@physx@@QEAAII@Z 0000000180037240 f i CmFreeListAllocator.obj
 0001:00036330       ?firstChunk@Block@Cm@physx@@QEAAPEAVChunk@23@XZ 0000000180037330 f i CmFreeListAllocator.obj
 0001:00036360       ?fromFirstChunk@Block@Cm@physx@@SAPEAV123@PEAVChunk@23@@Z 0000000180037360 f i CmFreeListAllocator.obj
 0001:00036390       ?fromMemAddr@Chunk@Cm@physx@@SAPEAV123@PEAX@Z 0000000180037390 f i CmFreeListAllocator.obj
 0001:000363c0       ?getBaseAllocator@FreeListAllocator@Cm@physx@@QEBAAEAVPxAllocatorCallback@3@XZ 00000001800373c0 f i CmFreeListAllocator.obj
 0001:000363e0       ?getNext@?$Link@VBlock@Cm@physx@@@Cm@physx@@QEAAPEAVBlock@23@XZ 00000001800373e0 f i CmFreeListAllocator.obj
 0001:00036400       ?getNextInBlock@Chunk@Cm@physx@@QEAAPEAV123@XZ 0000000180037400 f i CmFreeListAllocator.obj
 0001:00036460       ?getPrevChunkQWSize@Chunk@Cm@physx@@AEAAIXZ 0000000180037460 f i CmFreeListAllocator.obj
 0001:00036480       ?getPrevInBlock@Chunk@Cm@physx@@QEAAPEAV123@XZ 0000000180037480 f i CmFreeListAllocator.obj
 0001:000364f0       ?getQWSize@Chunk@Cm@physx@@QEBAIXZ 00000001800374f0 f i CmFreeListAllocator.obj
 0001:00036510       ?getQWSizeFromBytes@Chunk@Cm@physx@@SAI_K@Z 0000000180037510 f i CmFreeListAllocator.obj
 0001:00036550       ?init@?$Link@VBlock@Cm@physx@@@Cm@physx@@QEAAXXZ 0000000180037550 f i CmFreeListAllocator.obj
 0001:00036580       ?init@?$Link@VChunk@Cm@physx@@@Cm@physx@@QEAAXXZ 0000000180037580 f i CmFreeListAllocator.obj
 0001:000365b0       ?init@Block@Cm@physx@@QEAAXAEAPEAV123@@Z 00000001800375b0 f i CmFreeListAllocator.obj
 0001:00036620       ?init@Chunk@Cm@physx@@QEAAXI@Z 0000000180037620 f i CmFreeListAllocator.obj
 0001:00036670       ?isUsed@Chunk@Cm@physx@@QEBA_NXZ 0000000180037670 f i CmFreeListAllocator.obj
 0001:000366b0       ?link@?$Link@VBlock@Cm@physx@@@Cm@physx@@QEAAXAEAPEAVBlock@23@PEAV423@@Z 00000001800376b0 f i CmFreeListAllocator.obj
 0001:00036760       ?link@?$Link@VChunk@Cm@physx@@@Cm@physx@@QEAAXAEAPEAVChunk@23@PEAV423@@Z 0000000180037760 f i CmFreeListAllocator.obj
 0001:00036810       ?link@Chunk@Cm@physx@@QEAAXAEAPEAV123@@Z 0000000180037810 f i CmFreeListAllocator.obj
 0001:00036850       ?lock@?$MutexT@VMutexAllocator@FreeListAllocator@Cm@physx@@@shdfnd@physx@@QEBAXXZ 0000000180037850 f i CmFreeListAllocator.obj
 0001:00036880       ?memAddr@Chunk@Cm@physx@@QEAAPEAXXZ 0000000180037880 f i CmFreeListAllocator.obj
 0001:000368b0       ?merge@Chunk@Cm@physx@@QEAAXAEAV123@@Z 00000001800378b0 f i CmFreeListAllocator.obj
 0001:000369d0       ?release@Chunk@Cm@physx@@QEAAXXZ 00000001800379d0 f i CmFreeListAllocator.obj
 0001:00036a10       ?reset@FastBitMap@Cm@physx@@QEAAXI@Z 0000000180037a10 f i CmFreeListAllocator.obj
 0001:00036ac0       ?set@FastBitMap@Cm@physx@@QEAAXI@Z 0000000180037ac0 f i CmFreeListAllocator.obj
 0001:00036b60       ?split@Chunk@Cm@physx@@QEAAPEAV123@I@Z 0000000180037b60 f i CmFreeListAllocator.obj
 0001:00036cc0       ?unlink@?$Link@VBlock@Cm@physx@@@Cm@physx@@QEAAXAEAPEAVBlock@23@@Z 0000000180037cc0 f i CmFreeListAllocator.obj
 0001:00036d60       ?unlink@?$Link@VChunk@Cm@physx@@@Cm@physx@@QEAAXAEAPEAVChunk@23@@Z 0000000180037d60 f i CmFreeListAllocator.obj
 0001:00036e00       ?unlink@Chunk@Cm@physx@@QEAAXAEAPEAV123@@Z 0000000180037e00 f i CmFreeListAllocator.obj
 0001:00036e40       ?unlock@?$MutexT@VMutexAllocator@FreeListAllocator@Cm@physx@@@shdfnd@physx@@QEBAXXZ 0000000180037e40 f i CmFreeListAllocator.obj
 0001:00036e70       _vfprintf_l                0000000180037e70 f i CmFreeListAllocator.obj
 0001:00036ed0       printf                     0000000180037ed0 f i CmFreeListAllocator.obj
 0001:00036f50       ?PxShortestRotation@physx@@YA?AVPxQuat@1@AEBVPxVec3@1@0@Z 0000000180037f50 f   CmMathUtils.obj
 0001:000370f0       ?PxTransformFromPlaneEquation@physx@@YA?AVPxTransform@1@AEBVPxPlane@1@@Z 00000001800380f0 f   CmMathUtils.obj
 0001:00037310       ?PxTransformFromSegment@physx@@YA?AVPxTransform@1@AEBVPxVec3@1@0PEAM@Z 0000000180038310 f   CmMathUtils.obj
 0001:000374d0       ?PxDiagonalize@physx@@YA?AVPxVec3@1@AEBVPxMat33@1@AEAVPxQuat@1@@Z 00000001800384d0 f   CmMathUtils.obj
 0001:00037cf0       ??0PxMat33@physx@@QEAA@AEBVPxQuat@1@@Z 0000000180038cf0 f i CmMathUtils.obj
 0001:00038030       ??0PxMat33@physx@@QEAA@AEBVPxVec3@1@00@Z 0000000180039030 f i CmMathUtils.obj
 0001:000380b0       ??0PxMat33@physx@@QEAA@XZ  00000001800390b0 f i CmMathUtils.obj
 0001:00038110       ??0PxPlane@physx@@QEAA@AEBV01@@Z 0000000180039110 f i CmMathUtils.obj
 0001:00038160       ??0PxTransform@physx@@QEAA@AEBVPxVec3@1@AEBVPxQuat@1@@Z 0000000180039160 f i CmMathUtils.obj
 0001:00038230       ??0PxVec3@physx@@QEAA@XZ   0000000180039230 f i CmMathUtils.obj
 0001:00038240       ??0PxVec4@physx@@QEAA@MMMM@Z 0000000180039240 f i CmMathUtils.obj
 0001:000382c0       ??4PxMat33@physx@@QEAAAEAV01@AEBV01@@Z 00000001800392c0 f i CmMathUtils.obj
 0001:00038340       ??APxMat33@physx@@QEAAAEAVPxVec3@1@I@Z 0000000180039340 f i CmMathUtils.obj
 0001:00038370       ??APxVec4@physx@@QEAAAEAMI@Z 0000000180039370 f i CmMathUtils.obj
 0001:00038400       ??DPxMat33@physx@@QEBA?AV01@AEBV01@@Z 0000000180039400 f i CmMathUtils.obj
 0001:000384c0       ??GPxVec3@physx@@QEBA?AV01@AEBV01@@Z 00000001800394c0 f i CmMathUtils.obj
 0001:00038560       ??GPxVec3@physx@@QEBA?AV01@XZ 0000000180039560 f i CmMathUtils.obj
 0001:000385f0       ??KPxVec3@physx@@QEBA?AV01@M@Z 00000001800395f0 f i CmMathUtils.obj
 0001:00038690       ?PxSign@physx@@YAMM@Z      0000000180039690 f i CmMathUtils.obj
 0001:000386b0       ?cross@PxVec3@physx@@QEBA?AV12@AEBV12@@Z 00000001800396b0 f i CmMathUtils.obj
 0001:000387a0       ?getNextIndex3@shdfnd@physx@@YAII@Z 00000001800397a0 f i CmMathUtils.obj
 0001:000387c0       ?getNormalized@PxQuat@physx@@QEBA?AV12@XZ 00000001800397c0 f i CmMathUtils.obj
 0001:00038880       ?getTranspose@PxMat33@physx@@QEBA?AV12@XZ 0000000180039880 f i CmMathUtils.obj
 0001:00038960       ?isFinite@PxQuat@physx@@QEBA_NXZ 0000000180039960 f i CmMathUtils.obj
 0001:00038a00       ?isSane@PxQuat@physx@@QEBA_NXZ 0000000180039a00 f i CmMathUtils.obj
 0001:00038a80       ?magnitude@PxQuat@physx@@QEBAMXZ 0000000180039a80 f i CmMathUtils.obj
 0001:00038ab0       ?magnitudeSquared@PxQuat@physx@@QEBAMXZ 0000000180039ab0 f i CmMathUtils.obj
 0001:00038b30       ?normalize@PxPlane@physx@@QEAAXXZ 0000000180039b30 f i CmMathUtils.obj
 0001:00038bb0       ?sign@intrinsics@physx@@YAMM@Z 0000000180039bb0 f i CmMathUtils.obj
 0001:00038c00       ?transform@PxMat33@physx@@QEBA?AVPxVec3@2@AEBV32@@Z 0000000180039c00 f i CmMathUtils.obj
 0001:00038ce0       ??0PtrTable@Cm@physx@@QEAA@XZ 0000000180039ce0 f   CmPtrTable.obj
 0001:00038d20       ??1PtrTable@Cm@physx@@QEAA@XZ 0000000180039d20 f   CmPtrTable.obj
 0001:00038e30       ?add@PtrTable@Cm@physx@@QEAAXPEAXAEAVPtrTableStorageManager@23@@Z 0000000180039e30 f   CmPtrTable.obj
 0001:00039250       ?replaceWithLast@PtrTable@Cm@physx@@QEAAXIAEAVPtrTableStorageManager@23@@Z 000000018003a250 f   CmPtrTable.obj
 0001:00039650       ?clear@PtrTable@Cm@physx@@QEAAXAEAVPtrTableStorageManager@23@@Z 000000018003a650 f   CmPtrTable.obj
 0001:000396f0       ?find@PtrTable@Cm@physx@@QEBAIPEBX@Z 000000018003a6f0 f   CmPtrTable.obj
 0001:000397c0       ?exportExtraData@PtrTable@Cm@physx@@QEAAXAEAVPxSerializationContext@3@@Z 000000018003a7c0 f   CmPtrTable.obj
 0001:00039830       ?importExtraData@PtrTable@Cm@physx@@QEAAXAEAVPxDeserializationContext@3@@Z 000000018003a830 f   CmPtrTable.obj
 0001:00039880       ?getBinaryMetaData@PtrTable@Cm@physx@@SAXAEAVPxOutputStream@3@@Z 000000018003a880 f   CmPtrTable.obj
 0001:00039b70       ?realloc@PtrTable@Cm@physx@@AEAAXIIAEAVPtrTableStorageManager@23@@Z 000000018003ab70 f   CmPtrTable.obj
 0001:0003a150       ??$readExtraData@PEAX$0BA@@PxDeserializationContext@physx@@QEAAPEAPEAXI@Z 000000018003b150 f i CmPtrTable.obj
 0001:0003a190       ??$readExtraData@PEAX@PxDeserializationContext@physx@@QEAAPEAPEAXI@Z 000000018003b190 f i CmPtrTable.obj
 0001:0003a1e0       ??0PtrTable@Cm@physx@@QEAA@AEBW4PxEMPTY@2@@Z 000000018003b1e0 f i CmPtrTable.obj
 0001:0003a260       ??4PtrTable@Cm@physx@@QEAAAEAU012@AEBU012@@Z 000000018003b260 f i CmPtrTable.obj
 0001:0003a290       ?alignExtraData@PxDeserializationContext@physx@@QEAAXI@Z 000000018003b290 f i CmPtrTable.obj
 0001:0003a2f0       ?getCount@PtrTable@Cm@physx@@QEBAIXZ 000000018003b2f0 f i CmPtrTable.obj
 0001:0003a310       ?getPtrs@PtrTable@Cm@physx@@QEAAPEAPEAXXZ 000000018003b310 f i CmPtrTable.obj
 0001:0003a360       ?getPtrs@PtrTable@Cm@physx@@QEBAPEBQEAXXZ 000000018003b360 f i CmPtrTable.obj
 0001:0003a3b0       ??6RenderOutput@Cm@physx@@QEAAAEAV012@W4Primitive@012@@Z 000000018003b3b0 f   CmRenderOutput.obj
 0001:0003a3e0       ??6RenderOutput@Cm@physx@@QEAAAEAV012@I@Z 000000018003b3e0 f   CmRenderOutput.obj
 0001:0003a410       ??6RenderOutput@Cm@physx@@QEAAAEAV012@AEBVPxMat44@2@@Z 000000018003b410 f   CmRenderOutput.obj
 0001:0003a450       ??6RenderOutput@Cm@physx@@QEAAAEAV012@AEBVPxTransform@2@@Z 000000018003b450 f   CmRenderOutput.obj
 0001:0003a490       ??6RenderOutput@Cm@physx@@QEAAAEAV012@VPxVec3@2@@Z 000000018003b490 f   CmRenderOutput.obj
 0001:0003a810       ??6RenderOutput@Cm@physx@@QEAAAEAV012@AEBUDebugText@12@@Z 000000018003b810 f   CmRenderOutput.obj
 0001:0003aa60       ?outputCapsule@RenderOutput@Cm@physx@@QEAAAEAV123@MMAEBVMatrix34@23@@Z 000000018003ba60 f   CmRenderOutput.obj
 0001:0003b120       ??0DebugText@Cm@physx@@QEAA@AEBVPxVec3@2@MPEBDZZ 000000018003c120 f   CmRenderOutput.obj
 0001:0003b1d0       ??6Cm@physx@@YAAEAVRenderOutput@01@AEAV201@AEBUDebugBox@01@@Z 000000018003c1d0 f   CmRenderOutput.obj
 0001:0003bbd0       ??6Cm@physx@@YAAEAVRenderOutput@01@AEAV201@AEBUDebugArrow@01@@Z 000000018003cbd0 f   CmRenderOutput.obj
 0001:0003bf40       ??6Cm@physx@@YAAEAVRenderOutput@01@AEAV201@AEBUDebugBasis@01@@Z 000000018003cf40 f   CmRenderOutput.obj
 0001:0003c100       ??6Cm@physx@@YAAEAVRenderOutput@01@AEAV201@AEBUDebugCircle@01@@Z 000000018003d100 f   CmRenderOutput.obj
 0001:0003c230       ??6Cm@physx@@YAAEAVRenderOutput@01@AEAV201@AEBUDebugArc@01@@Z 000000018003d230 f   CmRenderOutput.obj
 0001:0003cdb0       ??$swap@VPxVec4@physx@@@shdfnd@physx@@YAXAEAVPxVec4@1@0@Z 000000018003ddb0 f i CmRenderOutput.obj
 0001:0003ce00       ??0DebugArc@Cm@physx@@QEAA@IMMM@Z 000000018003de00 f i CmRenderOutput.obj
 0001:0003ce70       ??0DebugArrow@Cm@physx@@QEAA@AEBVPxVec3@2@0M@Z 000000018003de70 f i CmRenderOutput.obj
 0001:0003cef0       ??0DebugCircle@Cm@physx@@QEAA@IM@Z 000000018003def0 f i CmRenderOutput.obj
 0001:0003cf30       ??0DebugText@Cm@physx@@QEAA@$$QEAU012@@Z 000000018003df30 f i CmRenderOutput.obj
 0001:0003cfb0       ??0DebugText@Cm@physx@@QEAA@AEBU012@@Z 000000018003dfb0 f i CmRenderOutput.obj
 0001:0003d030       ??0PxDebugLine@physx@@QEAA@AEBU01@@Z 000000018003e030 f i CmRenderOutput.obj
 0001:0003d0b0       ??0PxDebugLine@physx@@QEAA@AEBVPxVec3@1@0AEBI@Z 000000018003e0b0 f i CmRenderOutput.obj
 0001:0003d140       ??0PxDebugPoint@physx@@QEAA@AEBU01@@Z 000000018003e140 f i CmRenderOutput.obj
 0001:0003d190       ??0PxDebugPoint@physx@@QEAA@AEBVPxVec3@1@AEBI@Z 000000018003e190 f i CmRenderOutput.obj
 0001:0003d1e0       ??0PxDebugText@physx@@QEAA@AEBU01@@Z 000000018003e1e0 f i CmRenderOutput.obj
 0001:0003d260       ??0PxDebugText@physx@@QEAA@AEBVPxVec3@1@AEBMAEBIPEBD@Z 000000018003e260 f i CmRenderOutput.obj
 0001:0003d2e0       ??0PxDebugTriangle@physx@@QEAA@AEBU01@@Z 000000018003e2e0 f i CmRenderOutput.obj
 0001:0003d3a0       ??0PxDebugTriangle@physx@@QEAA@AEBVPxVec3@1@00AEBI@Z 000000018003e3a0 f i CmRenderOutput.obj
 0001:0003d450       ??0PxMat44@physx@@QEAA@AEBV01@@Z 000000018003e450 f i CmRenderOutput.obj
 0001:0003d4f0       ??0PxMat44@physx@@QEAA@AEBVPxMat33@1@AEBVPxVec3@1@@Z 000000018003e4f0 f i CmRenderOutput.obj
 0001:0003d5a0       ??0PxMat44@physx@@QEAA@AEBVPxTransform@1@@Z 000000018003e5a0 f i CmRenderOutput.obj
 0001:0003d690       ??0PxMat44@physx@@QEAA@W4PxIDENTITY@1@@Z 000000018003e690 f i CmRenderOutput.obj
 0001:0003d780       ??0PxMat44@physx@@QEAA@XZ  000000018003e780 f i CmRenderOutput.obj
 0001:0003d7f0       ??0PxVec3@physx@@QEAA@M@Z  000000018003e7f0 f i CmRenderOutput.obj
 0001:0003d840       ??0PxVec4@physx@@QEAA@AEBV01@@Z 000000018003e840 f i CmRenderOutput.obj
 0001:0003d8c0       ??0PxVec4@physx@@QEAA@AEBVPxVec3@1@M@Z 000000018003e8c0 f i CmRenderOutput.obj
 0001:0003d940       ??0PxVec4@physx@@QEAA@XZ   000000018003e940 f i CmRenderOutput.obj
 0001:0003d950       ??0RenderOutput@Cm@physx@@QEAA@AEAVRenderBuffer@12@@Z 000000018003e950 f i CmRenderOutput.obj
 0001:0003da00       ??0RenderOutput@Cm@physx@@QEAA@AEBV012@@Z 000000018003ea00 f i CmRenderOutput.obj
 0001:0003dad0       ??4DebugText@Cm@physx@@QEAAAEAU012@$$QEAU012@@Z 000000018003ead0 f i CmRenderOutput.obj
 0001:0003dba0       ??4DebugText@Cm@physx@@QEAAAEAU012@AEBU012@@Z 000000018003eba0 f i CmRenderOutput.obj
 0001:0003dc70       ??4PxMat44@physx@@QEAAAEBV01@AEBV01@@Z 000000018003ec70 f i CmRenderOutput.obj
 0001:0003dd10       ??4PxVec4@physx@@QEAAAEAV01@AEBV01@@Z 000000018003ed10 f i CmRenderOutput.obj
 0001:0003dd90       ??A?$Array@UPxDebugText@physx@@VNamedAllocator@shdfnd@2@@shdfnd@physx@@QEAAAEAUPxDebugText@2@I@Z 000000018003ed90 f i CmRenderOutput.obj
 0001:0003de30       ??DPxVec4@physx@@QEBA?AV01@M@Z 000000018003ee30 f i CmRenderOutput.obj
 0001:0003ded0       ??GPxVec4@physx@@QEBA?AV01@XZ 000000018003eed0 f i CmRenderOutput.obj
 0001:0003df70       ??HPxVec4@physx@@QEBA?AV01@AEBV01@@Z 000000018003ef70 f i CmRenderOutput.obj
 0001:0003e020       ??YPxVec4@physx@@QEAAAEAV01@AEBV01@@Z 000000018003f020 f i CmRenderOutput.obj
 0001:0003e0d0       ?allocate@?$Array@DVNamedAllocator@shdfnd@physx@@@shdfnd@physx@@IEAAPEADI@Z 000000018003f0d0 f i CmRenderOutput.obj
 0001:0003e170       ?allocate@?$Array@UPxDebugLine@physx@@VNamedAllocator@shdfnd@2@@shdfnd@physx@@IEAAPEAUPxDebugLine@3@I@Z 000000018003f170 f i CmRenderOutput.obj
 0001:0003e220       ?allocate@?$Array@UPxDebugPoint@physx@@VNamedAllocator@shdfnd@2@@shdfnd@physx@@IEAAPEAUPxDebugPoint@3@I@Z 000000018003f220 f i CmRenderOutput.obj
 0001:0003e2d0       ?allocate@?$Array@UPxDebugText@physx@@VNamedAllocator@shdfnd@2@@shdfnd@physx@@IEAAPEAUPxDebugText@3@I@Z 000000018003f2d0 f i CmRenderOutput.obj
 0001:0003e380       ?allocate@?$Array@UPxDebugTriangle@physx@@VNamedAllocator@shdfnd@2@@shdfnd@physx@@IEAAPEAUPxDebugTriangle@3@I@Z 000000018003f380 f i CmRenderOutput.obj
 0001:0003e430       ?begin@?$Array@DVNamedAllocator@shdfnd@physx@@@shdfnd@physx@@QEAAPEADXZ 000000018003f430 f i CmRenderOutput.obj
 0001:0003e450       ?begin@?$Array@UPxDebugLine@physx@@VNamedAllocator@shdfnd@2@@shdfnd@physx@@QEAAPEAUPxDebugLine@3@XZ 000000018003f450 f i CmRenderOutput.obj
 0001:0003e470       ?capacity@?$Array@DVNamedAllocator@shdfnd@physx@@@shdfnd@physx@@QEBAIXZ 000000018003f470 f i CmRenderOutput.obj
 0001:0003e490       ?capacity@?$Array@UPxDebugLine@physx@@VNamedAllocator@shdfnd@2@@shdfnd@physx@@QEBAIXZ 000000018003f490 f i CmRenderOutput.obj
 0001:0003e4b0       ?capacity@?$Array@UPxDebugPoint@physx@@VNamedAllocator@shdfnd@2@@shdfnd@physx@@QEBAIXZ 000000018003f4b0 f i CmRenderOutput.obj
 0001:0003e4d0       ?capacity@?$Array@UPxDebugText@physx@@VNamedAllocator@shdfnd@2@@shdfnd@physx@@QEBAIXZ 000000018003f4d0 f i CmRenderOutput.obj
 0001:0003e4f0       ?capacity@?$Array@UPxDebugTriangle@physx@@VNamedAllocator@shdfnd@2@@shdfnd@physx@@QEBAIXZ 000000018003f4f0 f i CmRenderOutput.obj
 0001:0003e510       ?capacityIncrement@?$Array@DVNamedAllocator@shdfnd@physx@@@shdfnd@physx@@IEBAIXZ 000000018003f510 f i CmRenderOutput.obj
 0001:0003e560       ?capacityIncrement@?$Array@UPxDebugLine@physx@@VNamedAllocator@shdfnd@2@@shdfnd@physx@@IEBAIXZ 000000018003f560 f i CmRenderOutput.obj
 0001:0003e5b0       ?capacityIncrement@?$Array@UPxDebugPoint@physx@@VNamedAllocator@shdfnd@2@@shdfnd@physx@@IEBAIXZ 000000018003f5b0 f i CmRenderOutput.obj
 0001:0003e600       ?capacityIncrement@?$Array@UPxDebugText@physx@@VNamedAllocator@shdfnd@2@@shdfnd@physx@@IEBAIXZ 000000018003f600 f i CmRenderOutput.obj
 0001:0003e650       ?capacityIncrement@?$Array@UPxDebugTriangle@physx@@VNamedAllocator@shdfnd@2@@shdfnd@physx@@IEBAIXZ 000000018003f650 f i CmRenderOutput.obj
 0001:0003e6a0       ?copy@?$Array@DVNamedAllocator@shdfnd@physx@@@shdfnd@physx@@KAXPEAD0PEBD@Z 000000018003f6a0 f i CmRenderOutput.obj
 0001:0003e750       ?copy@?$Array@UPxDebugLine@physx@@VNamedAllocator@shdfnd@2@@shdfnd@physx@@KAXPEAUPxDebugLine@3@0PEBU43@@Z 000000018003f750 f i CmRenderOutput.obj
 0001:0003e7f0       ?copy@?$Array@UPxDebugPoint@physx@@VNamedAllocator@shdfnd@2@@shdfnd@physx@@KAXPEAUPxDebugPoint@3@0PEBU43@@Z 000000018003f7f0 f i CmRenderOutput.obj
 0001:0003e890       ?copy@?$Array@UPxDebugText@physx@@VNamedAllocator@shdfnd@2@@shdfnd@physx@@KAXPEAUPxDebugText@3@0PEBU43@@Z 000000018003f890 f i CmRenderOutput.obj
 0001:0003e930       ?copy@?$Array@UPxDebugTriangle@physx@@VNamedAllocator@shdfnd@2@@shdfnd@physx@@KAXPEAUPxDebugTriangle@3@0PEBU43@@Z 000000018003f930 f i CmRenderOutput.obj
 0001:0003e9d0       ?deallocate@?$Array@DVNamedAllocator@shdfnd@physx@@@shdfnd@physx@@IEAAXPEAX@Z 000000018003f9d0 f i CmRenderOutput.obj
 0001:0003ea00       ?deallocate@?$Array@UPxDebugLine@physx@@VNamedAllocator@shdfnd@2@@shdfnd@physx@@IEAAXPEAX@Z 000000018003fa00 f i CmRenderOutput.obj
 0001:0003ea30       ?deallocate@?$Array@UPxDebugPoint@physx@@VNamedAllocator@shdfnd@2@@shdfnd@physx@@IEAAXPEAX@Z 000000018003fa30 f i CmRenderOutput.obj
 0001:0003ea60       ?deallocate@?$Array@UPxDebugText@physx@@VNamedAllocator@shdfnd@2@@shdfnd@physx@@IEAAXPEAX@Z 000000018003fa60 f i CmRenderOutput.obj
 0001:0003ea90       ?deallocate@?$Array@UPxDebugTriangle@physx@@VNamedAllocator@shdfnd@2@@shdfnd@physx@@IEAAXPEAX@Z 000000018003fa90 f i CmRenderOutput.obj
 0001:0003eac0       ?destroy@?$Array@DVNamedAllocator@shdfnd@physx@@@shdfnd@physx@@KAXPEAD0@Z 000000018003fac0 f i CmRenderOutput.obj
 0001:0003eb00       ?destroy@?$Array@UPxDebugLine@physx@@VNamedAllocator@shdfnd@2@@shdfnd@physx@@KAXPEAUPxDebugLine@3@0@Z 000000018003fb00 f i CmRenderOutput.obj
 0001:0003eb40       ?destroy@?$Array@UPxDebugPoint@physx@@VNamedAllocator@shdfnd@2@@shdfnd@physx@@KAXPEAUPxDebugPoint@3@0@Z 000000018003fb40 f i CmRenderOutput.obj
 0001:0003eb80       ?destroy@?$Array@UPxDebugText@physx@@VNamedAllocator@shdfnd@2@@shdfnd@physx@@KAXPEAUPxDebugText@3@0@Z 000000018003fb80 f i CmRenderOutput.obj
 0001:0003ebc0       ?destroy@?$Array@UPxDebugTriangle@physx@@VNamedAllocator@shdfnd@2@@shdfnd@physx@@KAXPEAUPxDebugTriangle@3@0@Z 000000018003fbc0 f i CmRenderOutput.obj
 0001:0003ec00       ?end@?$Array@DVNamedAllocator@shdfnd@physx@@@shdfnd@physx@@QEAAPEADXZ 000000018003fc00 f i CmRenderOutput.obj
 0001:0003ec20       ?getXYZ@PxVec4@physx@@QEBA?AVPxVec3@2@XZ 000000018003fc20 f i CmRenderOutput.obj
 0001:0003ec70       ?grow@?$Array@DVNamedAllocator@shdfnd@physx@@@shdfnd@physx@@IEAAXI@Z 000000018003fc70 f i CmRenderOutput.obj
 0001:0003ed10       ?grow@?$Array@UPxDebugLine@physx@@VNamedAllocator@shdfnd@2@@shdfnd@physx@@IEAAXI@Z 000000018003fd10 f i CmRenderOutput.obj
 0001:0003edb0       ?growAndPushBack@?$Array@DVNamedAllocator@shdfnd@physx@@@shdfnd@physx@@IEAAAEADAEBD@Z 000000018003fdb0 f i CmRenderOutput.obj
 0001:0003efc0       ?growAndPushBack@?$Array@UPxDebugLine@physx@@VNamedAllocator@shdfnd@2@@shdfnd@physx@@IEAAAEAUPxDebugLine@3@AEBU43@@Z 000000018003ffc0 f i CmRenderOutput.obj
 0001:0003f1d0       ?growAndPushBack@?$Array@UPxDebugPoint@physx@@VNamedAllocator@shdfnd@2@@shdfnd@physx@@IEAAAEAUPxDebugPoint@3@AEBU43@@Z 00000001800401d0 f i CmRenderOutput.obj
 0001:0003f3e0       ?growAndPushBack@?$Array@UPxDebugText@physx@@VNamedAllocator@shdfnd@2@@shdfnd@physx@@IEAAAEAUPxDebugText@3@AEBU43@@Z 00000001800403e0 f i CmRenderOutput.obj
 0001:0003f5f0       ?growAndPushBack@?$Array@UPxDebugTriangle@physx@@VNamedAllocator@shdfnd@2@@shdfnd@physx@@IEAAAEAUPxDebugTriangle@3@AEBU43@@Z 00000001800405f0 f i CmRenderOutput.obj
 0001:0003f800       ?isInUserMemory@?$Array@DVNamedAllocator@shdfnd@physx@@@shdfnd@physx@@QEBAIXZ 0000000180040800 f i CmRenderOutput.obj
 0001:0003f820       ?isInUserMemory@?$Array@UPxDebugLine@physx@@VNamedAllocator@shdfnd@2@@shdfnd@physx@@QEBAIXZ 0000000180040820 f i CmRenderOutput.obj
 0001:0003f840       ?isInUserMemory@?$Array@UPxDebugPoint@physx@@VNamedAllocator@shdfnd@2@@shdfnd@physx@@QEBAIXZ 0000000180040840 f i CmRenderOutput.obj
 0001:0003f860       ?isInUserMemory@?$Array@UPxDebugText@physx@@VNamedAllocator@shdfnd@2@@shdfnd@physx@@QEBAIXZ 0000000180040860 f i CmRenderOutput.obj
 0001:0003f880       ?isInUserMemory@?$Array@UPxDebugTriangle@physx@@VNamedAllocator@shdfnd@2@@shdfnd@physx@@QEBAIXZ 0000000180040880 f i CmRenderOutput.obj
 0001:0003f8a0       ?normalToTangents@shdfnd@physx@@YAXAEBVPxVec3@2@AEAV32@1@Z 00000001800408a0 f i CmRenderOutput.obj
 0001:0003f9b0       ?outputSegment@RenderOutput@Cm@physx@@QEAAXAEBVPxVec3@3@0@Z 00000001800409b0 f i CmRenderOutput.obj
 0001:0003fa10       ?pushBack@?$Array@DVNamedAllocator@shdfnd@physx@@@shdfnd@physx@@QEAAAEADAEBD@Z 0000000180040a10 f i CmRenderOutput.obj
 0001:0003fb00       ?pushBack@?$Array@UPxDebugLine@physx@@VNamedAllocator@shdfnd@2@@shdfnd@physx@@QEAAAEAUPxDebugLine@3@AEBU43@@Z 0000000180040b00 f i CmRenderOutput.obj
 0001:0003fbf0       ?pushBack@?$Array@UPxDebugPoint@physx@@VNamedAllocator@shdfnd@2@@shdfnd@physx@@QEAAAEAUPxDebugPoint@3@AEBU43@@Z 0000000180040bf0 f i CmRenderOutput.obj
 0001:0003fce0       ?pushBack@?$Array@UPxDebugText@physx@@VNamedAllocator@shdfnd@2@@shdfnd@physx@@QEAAAEAUPxDebugText@3@AEBU43@@Z 0000000180040ce0 f i CmRenderOutput.obj
 0001:0003fdd0       ?pushBack@?$Array@UPxDebugTriangle@physx@@VNamedAllocator@shdfnd@2@@shdfnd@physx@@QEAAAEAUPxDebugTriangle@3@AEBU43@@Z 0000000180040dd0 f i CmRenderOutput.obj
 0001:0003fec0       ?recreate@?$Array@DVNamedAllocator@shdfnd@physx@@@shdfnd@physx@@IEAAXI@Z 0000000180040ec0 f i CmRenderOutput.obj
 0001:00040010       ?recreate@?$Array@UPxDebugLine@physx@@VNamedAllocator@shdfnd@2@@shdfnd@physx@@IEAAXI@Z 0000000180041010 f i CmRenderOutput.obj
 0001:00040170       ?reserve@?$Array@DVNamedAllocator@shdfnd@physx@@@shdfnd@physx@@QEAAXI@Z 0000000180041170 f i CmRenderOutput.obj
 0001:000401b0       ?reserve@?$Array@UPxDebugLine@physx@@VNamedAllocator@shdfnd@2@@shdfnd@physx@@QEAAXI@Z 00000001800411b0 f i CmRenderOutput.obj
 0001:000401f0       ?reserveSegments@RenderOutput@Cm@physx@@QEAAPEAUPxDebugLine@3@I@Z 00000001800411f0 f i CmRenderOutput.obj
 0001:00040280       ?resizeUninitialized@?$Array@UPxDebugLine@physx@@VNamedAllocator@shdfnd@2@@shdfnd@physx@@QEAAXI@Z 0000000180041280 f i CmRenderOutput.obj
 0001:000402c0       ?rotate@PxMat44@physx@@QEBA?BVPxVec3@2@AEBV32@@Z 00000001800412c0 f i CmRenderOutput.obj
 0001:00040330       ?rotate@PxMat44@physx@@QEBA?BVPxVec4@2@AEBV32@@Z 0000000180041330 f i CmRenderOutput.obj
 0001:00040420       ?size@?$Array@DVNamedAllocator@shdfnd@physx@@@shdfnd@physx@@QEBAIXZ 0000000180041420 f i CmRenderOutput.obj
 0001:00040440       ?size@?$Array@UPxDebugLine@physx@@VNamedAllocator@shdfnd@2@@shdfnd@physx@@QEBAIXZ 0000000180041440 f i CmRenderOutput.obj
 0001:00040460       ?size@?$Array@UPxDebugText@physx@@VNamedAllocator@shdfnd@2@@shdfnd@physx@@QEBAIXZ 0000000180041460 f i CmRenderOutput.obj
 0001:00040480       ?transform@PxMat44@physx@@QEBA?AVPxVec3@2@AEBV32@@Z 0000000180041480 f i CmRenderOutput.obj
 0001:000404f0       ?transform@PxMat44@physx@@QEBA?AVPxVec4@2@AEBV32@@Z 00000001800414f0 f i CmRenderOutput.obj
 0001:00040640       vsnprintf                  0000000180041640 f i CmRenderOutput.obj
 0001:00040760       ?visualizeJointFrames@Cm@physx@@YAXAEAVRenderOutput@12@MAEBVPxTransform@2@1@Z 0000000180041760 f   CmVisualization.obj
 0001:00040880       ?visualizeLinearLimit@Cm@physx@@YAXAEAVRenderOutput@12@MAEBVPxTransform@2@1M_N@Z 0000000180041880 f   CmVisualization.obj
 0001:00040a20       ?visualizeAngularLimit@Cm@physx@@YAXAEAVRenderOutput@12@MAEBVPxTransform@2@MM_N@Z 0000000180041a20 f   CmVisualization.obj
 0001:00040cd0       ?visualizeLimitCone@Cm@physx@@YAXAEAVRenderOutput@12@MAEBVPxTransform@2@MM_N@Z 0000000180041cd0 f   CmVisualization.obj
 0001:00040ff0       ?visualizeDoubleCone@Cm@physx@@YAXAEAVRenderOutput@12@MAEBVPxTransform@2@M_N@Z 0000000180041ff0 f   CmVisualization.obj
 0001:00041790       ??$PX_UNUSED@W4PxZERO@physx@@@@YAXAEBW4PxZERO@physx@@@Z 0000000180042790 f i CmVisualization.obj
 0001:000417a0       ??0DebugArrow@Cm@physx@@QEAA@AEBVPxVec3@2@0@Z 00000001800427a0 f i CmVisualization.obj
 0001:00041820       ??0DebugBasis@Cm@physx@@QEAA@AEBVPxVec3@2@III@Z 0000000180042820 f i CmVisualization.obj
 0001:00041890       ??0PxTransform@physx@@QEAA@W4PxIDENTITY@1@@Z 0000000180042890 f i CmVisualization.obj
 0001:000418f0       ??0PxVec3@physx@@QEAA@W4PxZERO@1@@Z 00000001800428f0 f i CmVisualization.obj
 0001:00041950       ?getBasisVector0@PxQuat@physx@@QEBA?AVPxVec3@2@XZ 0000000180042950 f i CmVisualization.obj
 0001:00041a70       ?rotate@PxQuat@physx@@QEBA?BVPxVec3@2@AEBV32@@Z 0000000180042a70 f i CmVisualization.obj
 0001:00041d40       ?contactCapsuleMesh@Gu@physx@@YA_NAEBVGeometryUnion@12@0AEBVPxTransform@2@1AEBMAEAUCache@12@AEAVContactBuffer@12@@Z 0000000180042d40 f   GuContactCapsuleMesh.obj
 0001:00041fa0       ?contactCapsuleHeightfield@Gu@physx@@YA_NAEBVGeometryUnion@12@0AEBVPxTransform@2@1AEBMAEAUCache@12@AEAVContactBuffer@12@@Z 0000000180042fa0 f   GuContactCapsuleMesh.obj
 0001:00043370       ??$PX_UNUSED@I@@YAXAEBI@Z  0000000180044370 f i GuContactCapsuleMesh.obj
 0001:00043380       ??$PX_UNUSED@M@@YAXAEBM@Z  0000000180044380 f i GuContactCapsuleMesh.obj
 0001:00043390       ??$PX_UNUSED@UCache@Gu@physx@@@@YAXAEBUCache@Gu@physx@@@Z 0000000180044390 f i GuContactCapsuleMesh.obj
 0001:000433a0       ??$PX_UNUSED@VGeometryUnion@Gu@physx@@@@YAXAEBVGeometryUnion@Gu@physx@@@Z 00000001800443a0 f i GuContactCapsuleMesh.obj
 0001:000433b0       ??$checkType@$$CBUPxHeightFieldGeometryLL@physx@@@physx@@YAXAEBVGeometryUnion@Gu@0@@Z 00000001800443b0 f i GuContactCapsuleMesh.obj
 0001:00043440       ??$checkType@$$CBUPxTriangleMeshGeometryLL@physx@@@physx@@YAXAEBVGeometryUnion@Gu@0@@Z 0000000180044440 f i GuContactCapsuleMesh.obj
 0001:000434d0       ??$checkType@$$CBVPxCapsuleGeometry@physx@@@physx@@YAXAEBVGeometryUnion@Gu@0@@Z 00000001800444d0 f i GuContactCapsuleMesh.obj
 0001:00043570       ??$get@$$CBUPxHeightFieldGeometryLL@physx@@@GeometryUnion@Gu@physx@@QEBAAEBUPxHeightFieldGeometryLL@2@XZ 0000000180044570 f i GuContactCapsuleMesh.obj
 0001:000435a0       ??$get@$$CBUPxTriangleMeshGeometryLL@physx@@@GeometryUnion@Gu@physx@@QEBAAEBUPxTriangleMeshGeometryLL@2@XZ 00000001800445a0 f i GuContactCapsuleMesh.obj
 0001:000435d0       ??$get@$$CBVPxCapsuleGeometry@physx@@@GeometryUnion@Gu@physx@@QEBAAEBVPxCapsuleGeometry@2@XZ 00000001800445d0 f i GuContactCapsuleMesh.obj
 0001:00043600       ??$memFetch@E@Cm@physx@@YAE_KI@Z 0000000180044600 f i GuContactCapsuleMesh.obj
 0001:00043620       ??$memFetchAsync@UIndexTriple16@MeshInterface@Gu@physx@@@Cm@physx@@YAPEAUIndexTriple16@MeshInterface@Gu@1@_KIAEAUMemFetchSmallBuffer@01@@Z 0000000180044620 f i GuContactCapsuleMesh.obj
 0001:00043640       ??$memFetchAsync@UIndexTriple32@MeshInterface@Gu@physx@@@Cm@physx@@YAPEAUIndexTriple32@MeshInterface@Gu@1@_KIAEAUMemFetchSmallBuffer@01@@Z 0000000180044640 f i GuContactCapsuleMesh.obj
 0001:00043660       ??$memFetchAsync@VPxVec3@physx@@@Cm@physx@@YAPEAVPxVec3@1@_KIAEAUMemFetchSmallBuffer@01@@Z 0000000180044660 f i GuContactCapsuleMesh.obj
 0001:00043680       ??$swap@M@shdfnd@physx@@YAXAEAM0@Z 0000000180044680 f i GuContactCapsuleMesh.obj
 0001:000436e0       ??0?$EntityReport@I@Gu@physx@@QEAA@XZ 00000001800446e0 f i GuContactCapsuleMesh.obj
 0001:00043700       ??0?$MeshHitCallback@UPxRaycastHit@physx@@@Gu@physx@@QEAA@W4Enum@CallbackMode@12@@Z 0000000180044700 f i GuContactCapsuleMesh.obj
 0001:00043740       ??0?$PxFlags@W4Enum@PxBaseFlag@physx@@G@physx@@QEAA@AEBV01@@Z 0000000180044740 f i GuContactCapsuleMesh.obj
 0001:00043770       ??0?$PxFlags@W4Enum@PxHeightFieldFlag@physx@@G@physx@@QEAA@AEBV01@@Z 0000000180044770 f i GuContactCapsuleMesh.obj
 0001:000437a0       ??0?$PxFlags@W4Enum@PxHeightFieldFlag@physx@@G@physx@@QEAA@AEBW4PxEMPTY@1@@Z 00000001800447a0 f i GuContactCapsuleMesh.obj
 0001:000437c0       ??0?$PxFlags@W4Enum@PxHeightFieldFlag@physx@@G@physx@@QEAA@XZ 00000001800447c0 f i GuContactCapsuleMesh.obj
 0001:000437e0       ??0Box@Gu@physx@@QEAA@AEBV012@@Z 00000001800447e0 f i GuContactCapsuleMesh.obj
 0001:00043860       ??0Box@Gu@physx@@QEAA@AEBVPxVec3@2@0AEBVPxMat33@2@@Z 0000000180044860 f i GuContactCapsuleMesh.obj
 0001:000438e0       ??0Box@Gu@physx@@QEAA@XZ   00000001800448e0 f i GuContactCapsuleMesh.obj
 0001:00043940       ??0Capsule@Gu@physx@@QEAA@AEBVSegment@12@M@Z 0000000180044940 f i GuContactCapsuleMesh.obj
 0001:00043ec0       ??0FastVertex2ShapeScaling@Cm@physx@@QEAA@XZ 0000000180044ec0 f i GuContactCapsuleMesh.obj
 0001:00043f60       ??0GeometryUnion@Gu@physx@@QEAA@AEBW4PxEMPTY@2@@Z 0000000180044f60 f i GuContactCapsuleMesh.obj
 0001:00043f80       ??0GeometryUnion@Gu@physx@@QEAA@XZ 0000000180044f80 f i GuContactCapsuleMesh.obj
 0001:00043fb0       ??0HeightFieldData@Gu@physx@@QEAA@$$QEAU012@@Z 0000000180044fb0 f i GuContactCapsuleMesh.obj
 0001:00044130       ??0HeightFieldData@Gu@physx@@QEAA@AEBU012@@Z 0000000180045130 f i GuContactCapsuleMesh.obj
 0001:000442b0       ??0HeightFieldData@Gu@physx@@QEAA@AEBW4PxEMPTY@2@@Z 00000001800452b0 f i GuContactCapsuleMesh.obj
 0001:00044310       ??0HeightFieldData@Gu@physx@@QEAA@XZ 0000000180045310 f i GuContactCapsuleMesh.obj
 0001:00044360       ??0HeightFieldUtil@Gu@physx@@QEAA@AEBVPxHeightFieldGeometry@2@@Z 0000000180045360 f i GuContactCapsuleMesh.obj
 0001:000443c0       ??0HeightFieldUtil@Gu@physx@@QEAA@AEBVPxHeightFieldGeometry@2@AEBVHeightField@12@@Z 00000001800453c0 f i GuContactCapsuleMesh.obj
 0001:00044420       ??0HeightFieldUtil@Gu@physx@@QEAA@XZ 0000000180045420 f i GuContactCapsuleMesh.obj
 0001:00044430       ??0InvalidGeometry@Gu@physx@@QEAA@XZ 0000000180045430 f i GuContactCapsuleMesh.obj
 0001:00044460       ??0MaterialIndicesStruct@physx@@QEAA@AEBW4PxEMPTY@1@@Z 0000000180045460 f i GuContactCapsuleMesh.obj
 0001:00044480       ??0MaterialIndicesStruct@physx@@QEAA@XZ 0000000180045480 f i GuContactCapsuleMesh.obj
 0001:000444b0       ??0Matrix34@Cm@physx@@QEAA@AEBVPxTransform@2@@Z 00000001800454b0 f i GuContactCapsuleMesh.obj
 0001:00044560       ??0PxBounds3@physx@@QEAA@$$QEAV01@@Z 0000000180045560 f i GuContactCapsuleMesh.obj
 0001:000445c0       ??0PxBounds3@physx@@QEAA@AEBV01@@Z 00000001800455c0 f i GuContactCapsuleMesh.obj
 0001:00044620       ??0PxBounds3@physx@@QEAA@AEBVPxVec3@1@0@Z 0000000180045620 f i GuContactCapsuleMesh.obj
 0001:00044680       ??0PxBounds3@physx@@QEAA@XZ 0000000180045680 f i GuContactCapsuleMesh.obj
 0001:000446c0       ??0PxGeometry@physx@@IEAA@W4Enum@PxGeometryType@1@@Z 00000001800456c0 f i GuContactCapsuleMesh.obj
 0001:000446e0       ??0PxMat33@physx@@QEAA@AEBV01@@Z 00000001800456e0 f i GuContactCapsuleMesh.obj
 0001:00044760       ??0PxMat33@physx@@QEAA@W4PxIDENTITY@1@@Z 0000000180045760 f i GuContactCapsuleMesh.obj
 0001:00044800       ??0PxPlane@physx@@QEAA@AEBVPxVec3@1@00@Z 0000000180045800 f i GuContactCapsuleMesh.obj
 0001:000448f0       ??0PxQuat@physx@@QEAA@AEBVPxMat33@1@@Z 00000001800458f0 f i GuContactCapsuleMesh.obj
 0001:000452c0       ??0PxTriangle@physx@@QEAA@XZ 00000001800462c0 f i GuContactCapsuleMesh.obj
 0001:00045300       ??0RTree@Gu@physx@@QEAA@AEBU012@@Z 0000000180046300 f i GuContactCapsuleMesh.obj
 0001:00045440       ??0RTreeMidphase@Gu@physx@@QEAA@AEBV012@@Z 0000000180046440 f i GuContactCapsuleMesh.obj
 0001:000454b0       ??0RTreeMidphase@Gu@physx@@QEAA@AEBW4PxEMPTY@2@@Z 00000001800464b0 f i GuContactCapsuleMesh.obj
 0001:00045500       ??0Segment@Gu@physx@@QEAA@AEBV012@@Z 0000000180046500 f i GuContactCapsuleMesh.obj
 0001:00045560       ??0Segment@Gu@physx@@QEAA@AEBVPxVec3@2@0@Z 0000000180046560 f i GuContactCapsuleMesh.obj
 0001:000455c0       ??0Segment@Gu@physx@@QEAA@XZ 00000001800465c0 f i GuContactCapsuleMesh.obj
 0001:00045600       ??1?$EntityReport@I@Gu@physx@@UEAA@XZ 0000000180046600 f i GuContactCapsuleMesh.obj
 0001:00045620       ??1?$MeshHitCallback@UPxRaycastHit@physx@@@Gu@physx@@UEAA@XZ 0000000180046620 f i GuContactCapsuleMesh.obj
 0001:00045640       ??1Box@Gu@physx@@QEAA@XZ   0000000180046640 f i GuContactCapsuleMesh.obj
 0001:00045650       ??1Capsule@Gu@physx@@QEAA@XZ 0000000180046650 f i GuContactCapsuleMesh.obj
 0001:000456b0       ??1MaterialIndicesStruct@physx@@QEAA@XZ 00000001800466b0 f i GuContactCapsuleMesh.obj
 0001:000456c0       ??1PxBase@physx@@MEAA@XZ   00000001800466c0 f i GuContactCapsuleMesh.obj
 0001:000456e0       ??1PxHeightField@physx@@MEAA@XZ 00000001800466e0 f i GuContactCapsuleMesh.obj
 0001:00045710       ??1PxTriangle@physx@@QEAA@XZ 0000000180046710 f i GuContactCapsuleMesh.obj
 0001:00045720       ??1PxTriangleMesh@physx@@MEAA@XZ 0000000180046720 f i GuContactCapsuleMesh.obj
 0001:00045750       ??1RTree@Gu@physx@@QEAA@XZ 0000000180046750 f i GuContactCapsuleMesh.obj
 0001:00045770       ??1Segment@Gu@physx@@QEAA@XZ 0000000180046770 f i GuContactCapsuleMesh.obj
 0001:00045780       ??4?$PxFlags@W4Enum@PxHeightFieldFlag@physx@@G@physx@@QEAAAEAV01@AEBV01@@Z 0000000180046780 f i GuContactCapsuleMesh.obj
 0001:000457b0       ??4Box@Gu@physx@@QEAAAEBV012@AEBV012@@Z 00000001800467b0 f i GuContactCapsuleMesh.obj
 0001:00045830       ??4GeometryUnion@Gu@physx@@QEAAAEAV012@$$QEAV012@@Z 0000000180046830 f i GuContactCapsuleMesh.obj
 0001:00045860       ??4GeometryUnion@Gu@physx@@QEAAAEAV012@AEBV012@@Z 0000000180046860 f i GuContactCapsuleMesh.obj
 0001:00045890       ??4HeightFieldData@Gu@physx@@QEAAAEAU012@$$QEAU012@@Z 0000000180046890 f i GuContactCapsuleMesh.obj
 0001:00045a10       ??4HeightFieldData@Gu@physx@@QEAAAEAU012@AEBU012@@Z 0000000180046a10 f i GuContactCapsuleMesh.obj
 0001:00045b90       ??4HeightFieldUtil@Gu@physx@@QEAAAEAV012@$$QEAV012@@Z 0000000180046b90 f i GuContactCapsuleMesh.obj
 0001:00045c20       ??4HeightFieldUtil@Gu@physx@@QEAAAEAV012@AEBV012@@Z 0000000180046c20 f i GuContactCapsuleMesh.obj
 0001:00045c50       ??4MaterialIndicesStruct@physx@@QEAAAEAU01@AEBU01@@Z 0000000180046c50 f i GuContactCapsuleMesh.obj
 0001:00045c80       ??4MeshInterface@Gu@physx@@QEAAAEAV012@AEBV012@@Z 0000000180046c80 f i GuContactCapsuleMesh.obj
 0001:00045cb0       ??4PxBounds3@physx@@QEAAAEAV01@$$QEAV01@@Z 0000000180046cb0 f i GuContactCapsuleMesh.obj
 0001:00045d10       ??4PxBounds3@physx@@QEAAAEAV01@AEBV01@@Z 0000000180046d10 f i GuContactCapsuleMesh.obj
 0001:00045d70       ??4RTree@Gu@physx@@QEAAAEAU012@AEBU012@@Z 0000000180046d70 f i GuContactCapsuleMesh.obj
 0001:00045eb0       ??4RTreeMidphase@Gu@physx@@QEAAAEAV012@AEBV012@@Z 0000000180046eb0 f i GuContactCapsuleMesh.obj
 0001:00045f20       ??APxMat33@physx@@QEBAAEBVPxVec3@1@H@Z 0000000180046f20 f i GuContactCapsuleMesh.obj
 0001:00045f50       ??APxVec3@physx@@QEBAAEBMH@Z 0000000180046f50 f i GuContactCapsuleMesh.obj
 0001:00045ff0       ??B?$PxBitAndDataT@E$0IA@@physx@@QEBAEXZ 0000000180046ff0 f i GuContactCapsuleMesh.obj
 0001:00046010       ??B?$PxFlags@W4Enum@PxBaseFlag@physx@@G@physx@@QEBA_NXZ 0000000180047010 f i GuContactCapsuleMesh.obj
 0001:00046050       ??B?$PxFlags@W4Enum@PxHeightFieldFlag@physx@@G@physx@@QEBA_NXZ 0000000180047050 f i GuContactCapsuleMesh.obj
 0001:00046090       ??DFastVertex2ShapeScaling@Cm@physx@@QEBA?AVPxVec3@2@AEBV32@@Z 0000000180047090 f i GuContactCapsuleMesh.obj
 0001:000460e0       ??DPxMat33@physx@@QEBA?AVPxVec3@1@AEBV21@@Z 00000001800470e0 f i GuContactCapsuleMesh.obj
 0001:00046120       ??I?$PxFlags@W4Enum@PxBaseFlag@physx@@G@physx@@QEBA?AV01@W4Enum@PxBaseFlag@1@@Z 0000000180047120 f i GuContactCapsuleMesh.obj
 0001:00046190       ??I?$PxFlags@W4Enum@PxHeightFieldFlag@physx@@G@physx@@QEBA?AV01@W4Enum@PxHeightFieldFlag@1@@Z 0000000180047190 f i GuContactCapsuleMesh.obj
 0001:00046200       ??YPxVec3@physx@@QEAAAEAV01@AEBV01@@Z 0000000180047200 f i GuContactCapsuleMesh.obj
 0001:00046280       ??_EPxHeightField@physx@@MEAAPEAXI@Z 0000000180047280 f i GuContactCapsuleMesh.obj
 0001:00046340       ??_EPxTriangleMesh@physx@@MEAAPEAXI@Z 0000000180047340 f i GuContactCapsuleMesh.obj
 0001:00046400       ??_E?$EntityReport@I@Gu@physx@@UEAAPEAXI@Z 0000000180047400 f i GuContactCapsuleMesh.obj
 0001:00046400       ??_G?$EntityReport@I@Gu@physx@@UEAAPEAXI@Z 0000000180047400 f i GuContactCapsuleMesh.obj
 0001:00046450       ??_G?$MeshHitCallback@UPxRaycastHit@physx@@@Gu@physx@@UEAAPEAXI@Z 0000000180047450 f i GuContactCapsuleMesh.obj
 0001:00046450       ??_E?$MeshHitCallback@UPxRaycastHit@physx@@@Gu@physx@@UEAAPEAXI@Z 0000000180047450 f i GuContactCapsuleMesh.obj
 0001:000464a0       ??_ECapsuleHeightfieldContactGenerationCallback@?A0x4b4e07f2@@UEAAPEAXI@Z 00000001800474a0 f i GuContactCapsuleMesh.obj
 0001:000464a0       ??_GCapsuleHeightfieldContactGenerationCallback@?A0x4b4e07f2@@UEAAPEAXI@Z 00000001800474a0 f i GuContactCapsuleMesh.obj
 0001:000464f0       ??_GCapsuleMeshContactGenerationCallback@?A0x4b4e07f2@@UEAAPEAXI@Z 00000001800474f0 f i GuContactCapsuleMesh.obj
 0001:000464f0       ??_ECapsuleMeshContactGenerationCallback@?A0x4b4e07f2@@UEAAPEAXI@Z 00000001800474f0 f i GuContactCapsuleMesh.obj
 0001:00046540       ??_EPxBase@physx@@MEAAPEAXI@Z 0000000180047540 f i GuContactCapsuleMesh.obj
 0001:00046540       ??_GPxBase@physx@@MEAAPEAXI@Z 0000000180047540 f i GuContactCapsuleMesh.obj
 0001:00046590       ??_H@YAXPEAX_K1P6APEAX0@Z@Z 0000000180047590 f i GuContactCapsuleMesh.obj
 0001:00046630       ?FLoad@aos@shdfnd@physx@@YA?AT__m128@@M@Z 0000000180047630 f i GuContactCapsuleMesh.obj
 0001:00046660       ?GetMeshInterface@RTreeMidphase@Gu@physx@@QEBAPEBVMeshInterface@23@XZ 0000000180047660 f i GuContactCapsuleMesh.obj
 0001:00046680       ?GetNbTriangles@MeshInterface@Gu@physx@@QEBAIXZ 0000000180047680 f i GuContactCapsuleMesh.obj
 0001:00046690       ?GetNbVertices@MeshInterface@Gu@physx@@QEBAIXZ 0000000180047690 f i GuContactCapsuleMesh.obj
 0001:000466b0       ?GetTriangle@MeshInterface@Gu@physx@@QEBAXAEAUVertexPointers@23@I@Z 00000001800476b0 f i GuContactCapsuleMesh.obj
 0001:00046890       ?GetTriangleVerts@MeshInterface@Gu@physx@@SAXI_K0IAEAVPxVec3@3@11@Z 0000000180047890 f i GuContactCapsuleMesh.obj
 0001:00046af0       ?GetTriangleVerts@MeshInterface@Gu@physx@@SAXI_K0IAEAVPxVec3@3@11AEAI22@Z 0000000180047af0 f i GuContactCapsuleMesh.obj
 0001:00046d80       ?GetTris@MeshInterface@Gu@physx@@QEBAPEBXXZ 0000000180047d80 f i GuContactCapsuleMesh.obj
 0001:00046da0       ?GetVerts@MeshInterface@Gu@physx@@QEBAPEBVPxVec3@3@XZ 0000000180047da0 f i GuContactCapsuleMesh.obj
 0001:00046dc0       ?PxCeil@physx@@YAMM@Z      0000000180047dc0 f i GuContactCapsuleMesh.obj
 0001:00046de0       ?PxFloor@physx@@YAMM@Z     0000000180047de0 f i GuContactCapsuleMesh.obj
 0001:00046e00       ?SetMeshInterface@RTreeMidphase@Gu@physx@@QEAAXPEBVMeshInterface@23@@Z 0000000180047e00 f i GuContactCapsuleMesh.obj
 0001:00046e20       ?SetNbTriangles@MeshInterface@Gu@physx@@QEAAXI@Z 0000000180047e20 f i GuContactCapsuleMesh.obj
 0001:00046e40       ?SetNbVertices@MeshInterface@Gu@physx@@QEAAXI@Z 0000000180047e40 f i GuContactCapsuleMesh.obj
 0001:00046e60       ?V3Load@aos@shdfnd@physx@@YA?AT__m128@@M@Z 0000000180047e60 f i GuContactCapsuleMesh.obj
 0001:00046eb0       ?V4Load@aos@shdfnd@physx@@YA?AT__m128@@M@Z 0000000180047eb0 f i GuContactCapsuleMesh.obj
 0001:00046ee0       ?allocate@MaterialIndicesStruct@physx@@QEAAXG@Z 0000000180047ee0 f i GuContactCapsuleMesh.obj
 0001:00046f70       ?basisExtent@PxBounds3@physx@@SA?AV12@AEBVPxVec3@2@AEBVPxMat33@2@0@Z 0000000180047f70 f i GuContactCapsuleMesh.obj
 0001:000471c0       ?ceilUp@HeightFieldUtil@Gu@physx@@SAMM@Z 00000001800481c0 f i GuContactCapsuleMesh.obj
 0001:00047230       ?clipShapeNormalToVertexVoronoi@HeightFieldUtil@Gu@physx@@QEBA_NAEAVPxVec3@3@III@Z 0000000180048230 f i GuContactCapsuleMesh.obj
 0001:00047940       ?computeAABBExtent@Box@Gu@physx@@QEBA?AVPxVec3@3@XZ 0000000180048940 f i GuContactCapsuleMesh.obj
 0001:00047c60       ?computeBarycentricPoint@shdfnd@physx@@YA?AVPxVec3@2@AEBV32@00MM@Z 0000000180048c60 f i GuContactCapsuleMesh.obj
 0001:00047da0       ?computeBounds@GeometryUnion@Gu@physx@@QEBA?AVPxBounds3@3@AEBVPxTransform@3@@Z 0000000180048da0 f i GuContactCapsuleMesh.obj
 0001:00047e10       ?computeBoxPoints@Box@Gu@physx@@QEBAXPEIAVPxVec3@3@@Z 0000000180048e10 f i GuContactCapsuleMesh.obj
 0001:00047e90       ?computeCenter@Segment@Gu@physx@@QEBA?AVPxVec3@3@XZ 0000000180048e90 f i GuContactCapsuleMesh.obj
 0001:00047ef0       ?computeDirection@Segment@Gu@physx@@QEBA?AVPxVec3@3@XZ 0000000180048ef0 f i GuContactCapsuleMesh.obj
 0001:00047f30       ?computePointNormal@HeightFieldUtil@Gu@physx@@QEBA?AVPxVec3@3@IAEBV43@AEBVPxTransform@3@MMMMAEAM@Z 0000000180048f30 f i GuContactCapsuleMesh.obj
 0001:00048090       ?contact@ContactBuffer@Gu@physx@@QEAA_NAEBVPxVec3@3@0MII@Z 0000000180049090 f i GuContactCapsuleMesh.obj
 0001:00048200       ?createDiagonal@PxMat33@physx@@SA?AV12@AEBVPxVec3@2@@Z 0000000180049200 f i GuContactCapsuleMesh.obj
 0001:000482b0       ?createIdentity@PxMat33@physx@@SA?AV12@XZ 00000001800492b0 f i GuContactCapsuleMesh.obj
 0001:000482e0       ?deallocate@MaterialIndicesStruct@physx@@QEAAXXZ 00000001800492e0 f i GuContactCapsuleMesh.obj
 0001:00048330       ?denormalizedNormal@PxTriangle@physx@@QEBAXAEAVPxVec3@2@@Z 0000000180049330 f i GuContactCapsuleMesh.obj
 0001:00048410       ?distance@PxPlane@physx@@QEBAMAEBVPxVec3@2@@Z 0000000180049410 f i GuContactCapsuleMesh.obj
 0001:00048450       ?distanceSegmentTriangleSquared@Gu@physx@@YAMAEBVSegment@12@AEBVPxVec3@2@11PEAM22@Z 0000000180049450 f i GuContactCapsuleMesh.obj
 0001:000484f0       ?floorDown@HeightFieldUtil@Gu@physx@@SAMM@Z 00000001800494f0 f i GuContactCapsuleMesh.obj
 0001:00048560       ?get64BitBasePage@RTree@Gu@physx@@IEBAPEAURTreePage@23@XZ 0000000180049560 f i GuContactCapsuleMesh.obj
 0001:000485a0       ?getCapsuleSegment@Gu@physx@@YAXAEBVPxTransform@2@AEBVPxCapsuleGeometry@2@AEAVSegment@12@@Z 00000001800495a0 f i GuContactCapsuleMesh.obj
 0001:00048670       ?getCenter@PxBounds3@physx@@QEBA?AVPxVec3@2@XZ 0000000180049670 f i GuContactCapsuleMesh.obj
 0001:00048740       ?getConcreteTypeName@PxBase@physx@@UEBAPEBDXZ 0000000180049740 f i GuContactCapsuleMesh.obj
 0001:00048750       ?getConcreteTypeName@PxHeightField@physx@@UEBAPEBDXZ 0000000180049750 f i GuContactCapsuleMesh.obj
 0001:00048760       ?getConcreteTypeName@PxTriangleMesh@physx@@UEBAPEBDXZ 0000000180049760 f i GuContactCapsuleMesh.obj
 0001:00048770       ?getConjugate@PxQuat@physx@@QEBA?AV12@XZ 0000000180049770 f i GuContactCapsuleMesh.obj
 0001:00048810       ?getConvexEdgeThreshold@HeightField@Gu@physx@@UEBAMXZ 0000000180049810 f i GuContactCapsuleMesh.obj
 0001:00048830       ?getData@HeightField@Gu@physx@@QEBAAEBUHeightFieldData@23@XZ 0000000180049830 f i GuContactCapsuleMesh.obj
 0001:00048850       ?getDeterminant@PxMat33@physx@@QEBAMXZ 0000000180049850 f i GuContactCapsuleMesh.obj
 0001:000488a0       ?getDimensions@PxBounds3@physx@@QEBA?AVPxVec3@2@XZ 00000001800498a0 f i GuContactCapsuleMesh.obj
 0001:00048950       ?getEdgeDirection@HeightFieldUtil@Gu@physx@@QEBA?AVPxVec3@3@II@Z 0000000180049950 f i GuContactCapsuleMesh.obj
 0001:00048da0       ?getExtents@PxBounds3@physx@@QEBA?AVPxVec3@2@XZ 0000000180049da0 f i GuContactCapsuleMesh.obj
 0001:00048e60       ?getFeatureIndex@HeightFieldUtil@Gu@physx@@SAII@Z 0000000180049e60 f i GuContactCapsuleMesh.obj
 0001:00048e80       ?getFeatureType@HeightFieldUtil@Gu@physx@@SA?AW4Feature@123@I@Z 0000000180049e80 f i GuContactCapsuleMesh.obj
 0001:00048e90       ?getFlags@HeightField@Gu@physx@@UEBA?AV?$PxFlags@W4Enum@PxHeightFieldFlag@physx@@G@3@XZ 0000000180049e90 f i GuContactCapsuleMesh.obj
 0001:00048ed0       ?getFormat@HeightField@Gu@physx@@UEBA?AW4Enum@PxHeightFieldFormat@3@XZ 0000000180049ed0 f i GuContactCapsuleMesh.obj
 0001:00048ef0       ?getGeometry@GeometryUnion@Gu@physx@@QEBAAEBVPxGeometry@3@XZ 0000000180049ef0 f i GuContactCapsuleMesh.obj
 0001:00048f00       ?getHeight@HeightField@Gu@physx@@QEBAMI@Z 0000000180049f00 f i GuContactCapsuleMesh.obj
 0001:00048f30       ?getHeight@HeightField@Gu@physx@@UEBAMMM@Z 0000000180049f30 f i GuContactCapsuleMesh.obj
 0001:00048f70       ?getHeightAtShapePoint2@HeightFieldUtil@Gu@physx@@QEBAMIMM@Z 0000000180049f70 f i GuContactCapsuleMesh.obj
 0001:00048ff0       ?getHeightAtShapePoint@HeightFieldUtil@Gu@physx@@QEBAMMM@Z 0000000180049ff0 f i GuContactCapsuleMesh.obj
 0001:00049080       ?getHeightField@HeightFieldUtil@Gu@physx@@QEBAAEBVHeightField@23@XZ 000000018004a080 f i GuContactCapsuleMesh.obj
 0001:000490a0       ?getHeightFieldGeometry@HeightFieldUtil@Gu@physx@@QEBAAEBVPxHeightFieldGeometry@3@XZ 000000018004a0a0 f i GuContactCapsuleMesh.obj
 0001:000490c0       ?getHeightInternal2@HeightField@Gu@physx@@QEBAMIMM@Z 000000018004a0c0 f i GuContactCapsuleMesh.obj
 0001:000493c0       ?getHeightInternal@HeightField@Gu@physx@@QEBAMMM@Z 000000018004a3c0 f i GuContactCapsuleMesh.obj
 0001:00049440       ?getInverse@PxMat33@physx@@QEBA?AV12@XZ 000000018004a440 f i GuContactCapsuleMesh.obj
 0001:00049db0       ?getMaterialIndex0@HeightField@Gu@physx@@QEBAGI@Z 000000018004adb0 f i GuContactCapsuleMesh.obj
 0001:00049df0       ?getMaterialIndex1@HeightField@Gu@physx@@QEBAGI@Z 000000018004adf0 f i GuContactCapsuleMesh.obj
 0001:00049e30       ?getNbColumns@HeightField@Gu@physx@@UEBAIXZ 000000018004ae30 f i GuContactCapsuleMesh.obj
 0001:00049e50       ?getNbColumnsFast@HeightField@Gu@physx@@QEBAIXZ 000000018004ae50 f i GuContactCapsuleMesh.obj
 0001:00049e70       ?getNbRows@HeightField@Gu@physx@@UEBAIXZ 000000018004ae70 f i GuContactCapsuleMesh.obj
 0001:00049e90       ?getNbRowsFast@HeightField@Gu@physx@@QEBAIXZ 000000018004ae90 f i GuContactCapsuleMesh.obj
 0001:00049eb0       ?getNodeIdxFromNodeHandle@RTree@Gu@physx@@IEBAII@Z 000000018004aeb0 f i GuContactCapsuleMesh.obj
 0001:00049ed0       ?getNormalAtShapePoint2@HeightFieldUtil@Gu@physx@@QEBA?AVPxVec3@3@IMM@Z 000000018004aed0 f i GuContactCapsuleMesh.obj
 0001:00049f70       ?getNormalAtShapePoint@HeightFieldUtil@Gu@physx@@QEBA?AVPxVec3@3@MM@Z 000000018004af70 f i GuContactCapsuleMesh.obj
 0001:0004a020       ?getNormal_2@HeightField@Gu@physx@@QEBA?AVPxVec3@3@IMMMMM@Z 000000018004b020 f i GuContactCapsuleMesh.obj
 0001:0004a470       ?getNormal_@HeightField@Gu@physx@@QEBA?AVPxVec3@3@MMMMM@Z 000000018004b470 f i GuContactCapsuleMesh.obj
 0001:0004a540       ?getNormalized@PxVec3@physx@@QEBA?AV12@XZ 000000018004b540 f i GuContactCapsuleMesh.obj
 0001:0004a5f0       ?getOneOverColumnScale@HeightFieldUtil@Gu@physx@@QEBAMXZ 000000018004b5f0 f i GuContactCapsuleMesh.obj
 0001:0004a610       ?getOneOverHeightScale@HeightFieldUtil@Gu@physx@@QEBAMXZ 000000018004b610 f i GuContactCapsuleMesh.obj
 0001:0004a630       ?getOneOverRowScale@HeightFieldUtil@Gu@physx@@QEBAMXZ 000000018004b630 f i GuContactCapsuleMesh.obj
 0001:0004a650       ?getPageFromNodeHandle@RTree@Gu@physx@@IEBAPEAURTreePage@23@I@Z 000000018004b650 f i GuContactCapsuleMesh.obj
 0001:0004a680       ?getPointAt@Segment@Gu@physx@@QEBA?AVPxVec3@3@M@Z 000000018004b680 f i GuContactCapsuleMesh.obj
 0001:0004a720       ?getRTreeMidphaseData@RTreeMidphase@Gu@physx@@QEBAXAEAURTreeMidphaseData@23@@Z 000000018004b720 f i GuContactCapsuleMesh.obj
 0001:0004a780       ?getSample@HeightField@Gu@physx@@QEBAAEBUPxHeightFieldSample@3@I@Z 000000018004b780 f i GuContactCapsuleMesh.obj
 0001:0004a820       ?getSampleStride@HeightField@Gu@physx@@UEBAIXZ 000000018004b820 f i GuContactCapsuleMesh.obj
 0001:0004a830       ?getThickness@HeightField@Gu@physx@@UEBAMXZ 000000018004b830 f i GuContactCapsuleMesh.obj
 0001:0004a850       ?getTransform@Box@Gu@physx@@QEBA?AVPxTransform@3@XZ 000000018004b850 f i GuContactCapsuleMesh.obj
 0001:0004a8b0       ?getTriangleMaterial@HeightField@Gu@physx@@QEBAGI@Z 000000018004b8b0 f i GuContactCapsuleMesh.obj
 0001:0004a930       ?getTriangleMaterialIndex@HeightField@Gu@physx@@UEBAGI@Z 000000018004b930 f i GuContactCapsuleMesh.obj
 0001:0004a960       ?getTriangleNormal@HeightField@Gu@physx@@UEBA?AVPxVec3@3@I@Z 000000018004b960 f i GuContactCapsuleMesh.obj
 0001:0004a9a0       ?getTriangleNormalInternal@HeightField@Gu@physx@@QEBA?AVPxVec3@3@I@Z 000000018004b9a0 f i GuContactCapsuleMesh.obj
 0001:0004ac80       ?getTriangleVertexIndices@HeightField@Gu@physx@@QEBAXIAEAI00@Z 000000018004bc80 f i GuContactCapsuleMesh.obj
 0001:0004ae20       ?getType@GeometryUnion@Gu@physx@@QEBA?AW4Enum@PxGeometryType@3@XZ 000000018004be20 f i GuContactCapsuleMesh.obj
 0001:0004ae50       ?getType@PxGeometry@physx@@QEBA?AW4Enum@PxGeometryType@2@XZ 000000018004be50 f i GuContactCapsuleMesh.obj
 0001:0004ae60       ?getVertexNormal@HeightFieldUtil@Gu@physx@@QEBA?AVPxVec3@3@I@Z 000000018004be60 f i GuContactCapsuleMesh.obj
 0001:0004aef0       ?has16BitIndices@MeshInterface@Gu@physx@@QEBAIXZ 000000018004bef0 f i GuContactCapsuleMesh.obj
 0001:0004af10       ?hf2shapen@HeightFieldUtil@Gu@physx@@QEBA?AVPxVec3@3@AEBV43@@Z 000000018004bf10 f i GuContactCapsuleMesh.obj
 0001:0004afb0       ?hf2shapep@HeightFieldUtil@Gu@physx@@QEBA?AVPxVec3@3@AEBV43@@Z 000000018004bfb0 f i GuContactCapsuleMesh.obj
 0001:0004b060       ?hf2worldn@HeightFieldUtil@Gu@physx@@QEBA?AVPxVec3@3@AEBVPxTransform@3@AEBV43@@Z 000000018004c060 f i GuContactCapsuleMesh.obj
 0001:0004b0c0       ?hf2worldp@HeightFieldUtil@Gu@physx@@QEBA?AVPxVec3@3@AEBVPxTransform@3@AEBV43@@Z 000000018004c0c0 f i GuContactCapsuleMesh.obj
 0001:0004b120       ?init@FastVertex2ShapeScaling@Cm@physx@@QEAAXAEBVPxMeshScale@3@@Z 000000018004c120 f i GuContactCapsuleMesh.obj
 0001:0004b160       ?init@FastVertex2ShapeScaling@Cm@physx@@QEAAXAEBVPxVec3@3@AEBVPxQuat@3@@Z 000000018004c160 f i GuContactCapsuleMesh.obj
 0001:0004b280       ?initialize@HeightFieldUtil@Gu@physx@@AEAAXXZ 000000018004c280 f i GuContactCapsuleMesh.obj
 0001:0004b4b0       ?initialize@HeightFieldUtil@Gu@physx@@QEAAXAEBVPxHeightFieldGeometry@3@AEBVHeightField@23@@Z 000000018004c4b0 f i GuContactCapsuleMesh.obj
 0001:0004b500       ?isAlmostZero@shdfnd@physx@@YA_NAEBVPxVec3@2@@Z 000000018004c500 f i GuContactCapsuleMesh.obj
 0001:0004b590       ?isBitSet@?$PxBitAndDataT@E$0IA@@physx@@QEBAEXZ 000000018004c590 f i GuContactCapsuleMesh.obj
 0001:0004b5b0       ?isCollisionVertex@HeightField@Gu@physx@@QEBA_NIIIG@Z 000000018004c5b0 f i GuContactCapsuleMesh.obj
 0001:0004b620       ?isCollisionVertex@HeightFieldUtil@Gu@physx@@QEBA_NIII@Z 000000018004c620 f i GuContactCapsuleMesh.obj
 0001:0004b670       ?isFinite@PxBounds3@physx@@QEBA_NXZ 000000018004c670 f i GuContactCapsuleMesh.obj
 0001:0004b6e0       ?isFinite@PxTransform@physx@@QEBA_NXZ 000000018004c6e0 f i GuContactCapsuleMesh.obj
 0001:0004b750       ?isFinite@PxVec3@physx@@QEBA_NXZ 000000018004c750 f i GuContactCapsuleMesh.obj
 0001:0004b7d0       ?isFirstTriangle@HeightField@Gu@physx@@QEBA_NI@Z 000000018004c7d0 f i GuContactCapsuleMesh.obj
 0001:0004b810       ?isIdentity@PxMeshScale@physx@@QEBA_NXZ 000000018004c810 f i GuContactCapsuleMesh.obj
 0001:0004b880       ?isKindOf@PxBase@physx@@MEBA_NPEBD@Z 000000018004c880 f i GuContactCapsuleMesh.obj
 0001:0004b8d0       ?isKindOf@PxHeightField@physx@@MEBA_NPEBD@Z 000000018004c8d0 f i GuContactCapsuleMesh.obj
 0001:0004b940       ?isKindOf@PxTriangleMesh@physx@@MEBA_NPEBD@Z 000000018004c940 f i GuContactCapsuleMesh.obj
 0001:0004b9b0       ?isQueryVertex@HeightFieldUtil@Gu@physx@@QEBA_NIII@Z 000000018004c9b0 f i GuContactCapsuleMesh.obj
 0001:0004bb00       ?isReleasable@PxBase@physx@@UEBA_NXZ 000000018004cb00 f i GuContactCapsuleMesh.obj
 0001:0004bb40       ?isSane@PxTransform@physx@@QEBA_NXZ 000000018004cb40 f i GuContactCapsuleMesh.obj
 0001:0004bba0       ?isShapePointOnHeightField@HeightFieldUtil@Gu@physx@@QEBA_NMM@Z 000000018004cba0 f i GuContactCapsuleMesh.obj
 0001:0004bca0       ?isValid@Box@Gu@physx@@QEBA_NXZ 000000018004cca0 f i GuContactCapsuleMesh.obj
 0001:0004bcf0       ?isValid@PxBounds3@physx@@QEBA_NXZ 000000018004ccf0 f i GuContactCapsuleMesh.obj
 0001:0004be20       ?isValidVertex@HeightField@Gu@physx@@QEBA_NI@Z 000000018004ce20 f i GuContactCapsuleMesh.obj
 0001:0004be70       ?isZerothVertexShared@HeightField@Gu@physx@@QEBA_NI@Z 000000018004ce70 f i GuContactCapsuleMesh.obj
 0001:0004bed0       ?makeFatEdge@shdfnd@physx@@YAXAEAVPxVec3@2@0M@Z 000000018004ced0 f i GuContactCapsuleMesh.obj
 0001:0004bf80       ?makeFeatureCode@HeightFieldUtil@Gu@physx@@SAIIW4Feature@123@@Z 000000018004cf80 f i GuContactCapsuleMesh.obj
 0001:0004bfa0       ?memFetchWait@Cm@physx@@YAXI@Z 000000018004cfa0 f i GuContactCapsuleMesh.obj
 0001:0004bfb0       ?normal@PxTriangle@physx@@QEBAXAEAVPxVec3@2@@Z 000000018004cfb0 f i GuContactCapsuleMesh.obj
 0001:0004c410       ?pagePtrFrom32Bits@RTree@Gu@physx@@KAPEAURTreePage@23@I@Z 000000018004d410 f i GuContactCapsuleMesh.obj
 0001:0004c430       ?pagePtrTo32Bits@RTree@Gu@physx@@KAIPEBURTreePage@23@@Z 000000018004d430 f i GuContactCapsuleMesh.obj
 0001:0004ce00       ?rotate@Box@Gu@physx@@QEBA?AVPxVec3@3@AEBV43@@Z 000000018004de00 f i GuContactCapsuleMesh.obj
 0001:0004ce50       ?rotate@Matrix34@Cm@physx@@QEBA?AVPxVec3@3@AEBV43@@Z 000000018004de50 f i GuContactCapsuleMesh.obj
 0001:0004cf30       ?rotate@PxTransform@physx@@QEBA?AVPxVec3@2@AEBV32@@Z 000000018004df30 f i GuContactCapsuleMesh.obj
 0001:0004cfe0       ?rotateInv@Box@Gu@physx@@QEBA?AVPxVec3@3@AEBV43@@Z 000000018004dfe0 f i GuContactCapsuleMesh.obj
 0001:0004d030       ?rotateInv@PxQuat@physx@@QEBA?BVPxVec3@2@AEBV32@@Z 000000018004e030 f i GuContactCapsuleMesh.obj
 0001:0004d280       ?set@Matrix34@Cm@physx@@QEAAXAEBVPxQuat@3@@Z 000000018004e280 f i GuContactCapsuleMesh.obj
 0001:0004d530       ?setAxes@Box@Gu@physx@@QEAAXAEBVPxVec3@3@00@Z 000000018004e530 f i GuContactCapsuleMesh.obj
 0001:0004d5b0       ?setEmpty@Box@Gu@physx@@QEAAXXZ 000000018004e5b0 f i GuContactCapsuleMesh.obj
 0001:0004d650       ?shape2hfp@HeightFieldUtil@Gu@physx@@QEBA?AVPxVec3@3@AEBV43@@Z 000000018004e650 f i GuContactCapsuleMesh.obj
 0001:0004d6f0       ?tessFlag@PxHeightFieldSample@physx@@QEBAEXZ 000000018004e6f0 f i GuContactCapsuleMesh.obj
 0001:0004d740       ?transform@Box@Gu@physx@@QEBA?AVPxVec3@3@AEBV43@@Z 000000018004e740 f i GuContactCapsuleMesh.obj
 0001:0004d7b0       ?transform@Matrix34@Cm@physx@@QEBA?AVPxVec3@3@AEBV43@@Z 000000018004e7b0 f i GuContactCapsuleMesh.obj
 0001:0004d8d0       ?transform@PxTransform@physx@@QEBA?AVPxVec3@2@AEBV32@@Z 000000018004e8d0 f i GuContactCapsuleMesh.obj
 0001:0004d9b0       ?transformFast@PxBounds3@physx@@SA?AV12@AEBVPxTransform@2@AEBV12@@Z 000000018004e9b0 f i GuContactCapsuleMesh.obj
 0001:0004daf0       ?transformInv@PxTransform@physx@@QEBA?AV12@AEBV12@@Z 000000018004eaf0 f i GuContactCapsuleMesh.obj
 0001:0004dcc0       ?transformInv@PxTransform@physx@@QEBA?AVPxVec3@2@AEBV32@@Z 000000018004ecc0 f i GuContactCapsuleMesh.obj
 0001:0004dd90       ?transformQueryBounds@FastVertex2ShapeScaling@Cm@physx@@QEBAXAEAVPxVec3@3@0AEAVPxMat33@3@@Z 000000018004ed90 f i GuContactCapsuleMesh.obj
 0001:0004df50       ?transformTranspose@PxMat33@physx@@QEBA?AVPxVec3@2@AEBV32@@Z 000000018004ef50 f i GuContactCapsuleMesh.obj
 0001:0004e000       ?contactConvexMesh@Gu@physx@@YA_NAEBVGeometryUnion@12@0AEBVPxTransform@2@1AEBMAEAUCache@12@AEAVContactBuffer@12@@Z 000000018004f000 f   GuContactConvexMesh.obj
 0001:0004e150       ?contactBoxMesh@Gu@physx@@YA_NAEBVGeometryUnion@12@0AEBVPxTransform@2@1AEBMAEAUCache@12@AEAVContactBuffer@12@@Z 000000018004f150 f   GuContactConvexMesh.obj
 0001:0004e2f0       ?contactConvexHeightfield@Gu@physx@@YA_NAEBVGeometryUnion@12@0AEBVPxTransform@2@1AEBMAEAUCache@12@AEAVContactBuffer@12@@Z 000000018004f2f0 f   GuContactConvexMesh.obj
 0001:0004e420       ?contactBoxHeightfield@Gu@physx@@YA_NAEBVGeometryUnion@12@0AEBVPxTransform@2@1AEBMAEAUCache@12@AEAVContactBuffer@12@@Z 000000018004f420 f   GuContactConvexMesh.obj
 0001:00052cb0       ??$PxMin@I@physx@@YAIII@Z  0000000180053cb0 f i GuContactConvexMesh.obj
 0001:00052cf0       ??$checkType@$$CBVPxBoxGeometry@physx@@@physx@@YAXAEBVGeometryUnion@Gu@0@@Z 0000000180053cf0 f i GuContactConvexMesh.obj
 0001:00052d80       ??$get@$$CBVPxBoxGeometry@physx@@@GeometryUnion@Gu@physx@@QEBAAEBVPxBoxGeometry@2@XZ 0000000180053d80 f i GuContactConvexMesh.obj
 0001:00052db0       ??0?$CacheMap@UCachedEdge@Gu@physx@@$0IA@@Gu@physx@@QEAA@XZ 0000000180053db0 f i GuContactConvexMesh.obj
 0001:00052e40       ??0?$CacheMap@UCachedVertex@Gu@physx@@$0IA@@Gu@physx@@QEAA@XZ 0000000180053e40 f i GuContactConvexMesh.obj
 0001:00052ed0       ??0CachedEdge@Gu@physx@@QEAA@II@Z 0000000180053ed0 f i GuContactConvexMesh.obj
 0001:00052f30       ??0CachedEdge@Gu@physx@@QEAA@XZ 0000000180053f30 f i GuContactConvexMesh.obj
 0001:00052f40       ??0CachedVertex@Gu@physx@@QEAA@I@Z 0000000180053f40 f i GuContactConvexMesh.obj
 0001:00052f60       ??0CachedVertex@Gu@physx@@QEAA@XZ 0000000180053f60 f i GuContactConvexMesh.obj
 0001:00052f70       ??0ConvexMeshContactGenerationCallback@@QEAA@AEAVContainer@Gu@physx@@AEBVPxTransform@3@1AEBUPolygonalData@23@AEBVMatrix34@Cm@3@3PEBUInternalTriangleMeshData@23@PEIBEAEBVFastVertex2ShapeScaling@73@6M_N7M11AEAVContactBuffer@23@AEBVBox@23@@Z 0000000180053f70 f i GuContactConvexMesh.obj
 0001:00053290       ??0HullPolygonData@Gu@physx@@QEAA@AEBU012@@Z 0000000180054290 f i GuContactConvexMesh.obj
 0001:00053310       ??0Matrix34@Cm@physx@@QEAA@AEBV012@@Z 0000000180054310 f i GuContactConvexMesh.obj
 0001:00053400       ??0PolygonalBox@Gu@physx@@QEAA@AEBV012@@Z 0000000180054400 f i GuContactConvexMesh.obj
 0001:000534b0       ??0PolygonalData@Gu@physx@@QEAA@XZ 00000001800544b0 f i GuContactConvexMesh.obj
 0001:000534e0       ??0PxPlane@physx@@QEAA@AEBVPxVec3@1@M@Z 00000001800544e0 f i GuContactConvexMesh.obj
 0001:00053530       ??0PxPlane@physx@@QEAA@XZ  0000000180054530 f i GuContactConvexMesh.obj
 0001:00053560       ??0PxTransform@physx@@QEAA@AEBV01@@Z 0000000180054560 f i GuContactConvexMesh.obj
 0001:000535c0       ??0SeparatingAxes@Gu@physx@@QEAA@$$QEAV012@@Z 00000001800545c0 f i GuContactConvexMesh.obj
 0001:00053630       ??0SeparatingAxes@Gu@physx@@QEAA@AEBV012@@Z 0000000180054630 f i GuContactConvexMesh.obj
 0001:000536a0       ??0SeparatingAxes@Gu@physx@@QEAA@XZ 00000001800546a0 f i GuContactConvexMesh.obj
 0001:00053700       ??1ConvexMeshContactGenerationCallback@@UEAA@XZ 0000000180054700 f i GuContactConvexMesh.obj
 0001:00053740       ??4SeparatingAxes@Gu@physx@@QEAAAEAV012@$$QEAV012@@Z 0000000180054740 f i GuContactConvexMesh.obj
 0001:000537d0       ??4SeparatingAxes@Gu@physx@@QEAAAEAV012@AEBV012@@Z 00000001800547d0 f i GuContactConvexMesh.obj
 0001:00053860       ??8CachedEdge@Gu@physx@@QEBA_NAEBU012@@Z 0000000180054860 f i GuContactConvexMesh.obj
 0001:000538c0       ??8CachedVertex@Gu@physx@@QEBA_NAEBU012@@Z 00000001800548c0 f i GuContactConvexMesh.obj
 0001:00053910       ??AContainer@Gu@physx@@QEAAAEAII@Z 0000000180054910 f i GuContactConvexMesh.obj
 0001:000539b0       ??AContainer@Gu@physx@@QEBAII@Z 00000001800549b0 f i GuContactConvexMesh.obj
 0001:00053a50       ??LFastVertex2ShapeScaling@Cm@physx@@QEBA?AVPxVec3@2@AEBV32@@Z 0000000180054a50 f i GuContactConvexMesh.obj
 0001:00053aa0       ??_EConvexMeshContactGenerationCallback@@UEAAPEAXI@Z 0000000180054aa0 f i GuContactConvexMesh.obj
 0001:00053aa0       ??_GConvexMeshContactGenerationCallback@@UEAAPEAXI@Z 0000000180054aa0 f i GuContactConvexMesh.obj
 0001:00053af0       ??_GConvexVsHeightfieldContactGenerationCallback@?A0x22337b9b@@UEAAPEAXI@Z 0000000180054af0 f i GuContactConvexMesh.obj
 0001:00053af0       ??_EConvexVsHeightfieldContactGenerationCallback@?A0x22337b9b@@UEAAPEAXI@Z 0000000180054af0 f i GuContactConvexMesh.obj
 0001:00053b40       ??__G@YAXPEAX0_K1P6APEAX00@Z@Z 0000000180054b40 f i GuContactConvexMesh.obj
 0001:00053c00       ?Add@Container@Gu@physx@@QEAAAEAV123@AEBV123@@Z 0000000180054c00 f i GuContactConvexMesh.obj
 0001:00053c50       ?Add@Container@Gu@physx@@QEAAAEAV123@I@Z 0000000180054c50 f i GuContactConvexMesh.obj
 0001:00053cd0       ?Add@Container@Gu@physx@@QEAAAEAV123@M@Z 0000000180054cd0 f i GuContactConvexMesh.obj
 0001:00053d60       ?Add@Container@Gu@physx@@QEAAAEAV123@PEBII@Z 0000000180054d60 f i GuContactConvexMesh.obj
 0001:00053e10       ?Add@Container@Gu@physx@@QEAAAEAV123@PEBMI@Z 0000000180054e10 f i GuContactConvexMesh.obj
 0001:00053eb0       ?AddUnique@Container@Gu@physx@@QEAAAEAV123@I@Z 0000000180054eb0 f i GuContactConvexMesh.obj
 0001:00053f00       ?DeleteIndex@Container@Gu@physx@@QEAAXI@Z 0000000180054f00 f i GuContactConvexMesh.obj
 0001:00053f60       ?DeleteLastEntry@Container@Gu@physx@@QEAAXXZ 0000000180054f60 f i GuContactConvexMesh.obj
 0001:00053f90       ?ForceSize@Container@Gu@physx@@QEAAXI@Z 0000000180054f90 f i GuContactConvexMesh.obj
 0001:00053fb0       ?GetEntries@Container@Gu@physx@@QEBAPEAIXZ 0000000180054fb0 f i GuContactConvexMesh.obj
 0001:00053fd0       ?GetEntry@Container@Gu@physx@@QEBAII@Z 0000000180054fd0 f i GuContactConvexMesh.obj
 0001:00053ff0       ?GetFirst@Container@Gu@physx@@QEBAIXZ 0000000180054ff0 f i GuContactConvexMesh.obj
 0001:00054020       ?GetGrowthFactor@Container@Gu@physx@@QEBAMXZ 0000000180055020 f i GuContactConvexMesh.obj
 0001:00054040       ?GetLast@Container@Gu@physx@@QEBAIXZ 0000000180055040 f i GuContactConvexMesh.obj
 0001:00054070       ?GetMaxNbEntries@Container@Gu@physx@@QEBAIXZ 0000000180055070 f i GuContactConvexMesh.obj
 0001:00054080       ?GetNbEntries@Container@Gu@physx@@QEBAIXZ 0000000180055080 f i GuContactConvexMesh.obj
 0001:000540a0       ?IsFull@Container@Gu@physx@@QEBA_NXZ 00000001800550a0 f i GuContactConvexMesh.obj
 0001:000540e0       ?IsNotEmpty@Container@Gu@physx@@QEBAHXZ 00000001800550e0 f i GuContactConvexMesh.obj
 0001:00054100       ?Reserve@Container@Gu@physx@@QEAAPEAII@Z 0000000180055100 f i GuContactConvexMesh.obj
 0001:000541a0       ?Reset@Container@Gu@physx@@QEAAXXZ 00000001800551a0 f i GuContactConvexMesh.obj
 0001:000541d0       ?SetGrowthFactor@Container@Gu@physx@@QEAAXM@Z 00000001800551d0 f i GuContactConvexMesh.obj
 0001:00054220       ?addData@?$CacheMap@UCachedEdge@Gu@physx@@$0IA@@Gu@physx@@QEAA_NAEBUCachedEdge@23@@Z 0000000180055220 f i GuContactConvexMesh.obj
 0001:000543e0       ?addData@?$CacheMap@UCachedVertex@Gu@physx@@$0IA@@Gu@physx@@QEAA_NAEBUCachedVertex@23@@Z 00000001800553e0 f i GuContactConvexMesh.obj
 0001:000545a0       ?contains@?$CacheMap@UCachedEdge@Gu@physx@@$0IA@@Gu@physx@@QEBA_NAEBUCachedEdge@23@@Z 00000001800555a0 f i GuContactConvexMesh.obj
 0001:00054650       ?contains@?$CacheMap@UCachedVertex@Gu@physx@@$0IA@@Gu@physx@@QEBA_NAEBUCachedVertex@23@@Z 0000000180055650 f i GuContactConvexMesh.obj
 0001:00054700       ?copyPlane@Gu@physx@@YAXPEIAVPxPlane@2@PEIBUHullPolygonData@12@@Z 0000000180055700 f i GuContactConvexMesh.obj
 0001:00054760       ?getAxes@SeparatingAxes@Gu@physx@@QEBAPEBVPxVec3@3@XZ 0000000180055760 f i GuContactConvexMesh.obj
 0001:00054780       ?getHashCode@CachedEdge@Gu@physx@@QEBAIXZ 0000000180055780 f i GuContactConvexMesh.obj
 0001:000547b0       ?getHashCode@CachedVertex@Gu@physx@@QEBAIXZ 00000001800557b0 f i GuContactConvexMesh.obj
 0001:000547c0       ?getMax@HullPolygonData@Gu@physx@@QEBAMXZ 00000001800557c0 f i GuContactConvexMesh.obj
 0001:000547e0       ?getMin@HullPolygonData@Gu@physx@@QEBAMPEIBVPxVec3@3@@Z 00000001800557e0 f i GuContactConvexMesh.obj
 0001:00054830       ?getNumAxes@SeparatingAxes@Gu@physx@@QEBAIXZ 0000000180055830 f i GuContactConvexMesh.obj
 0001:00054840       ?getPolygonVertexRefs@PolygonalData@Gu@physx@@QEBAPEBEAEBUHullPolygonData@23@@Z 0000000180055840 f i GuContactConvexMesh.obj
 0001:00054870       ?hash@shdfnd@physx@@YAII@Z 0000000180055870 f i GuContactConvexMesh.obj
 0001:00054910       ?invalidateCache@shdfnd@physx@@YAXPEIAXH@Z 0000000180055910 f i GuContactConvexMesh.obj
 0001:00054cb0       ?processHit@ConvexMeshContactGenerationCallback@@UEAA_NAEBUPxRaycastHit@physx@@AEBVPxVec3@3@11AEAMPEBI@Z 0000000180055cb0 f i GuContactConvexMesh.obj
 0001:00054f90       ?reset@SeparatingAxes@Gu@physx@@QEAAXXZ 0000000180055f90 f i GuContactConvexMesh.obj
 0001:00054fb0       ?rotateTranspose@Matrix34@Cm@physx@@QEBA?AVPxVec3@3@AEBV43@@Z 0000000180055fb0 f i GuContactConvexMesh.obj
 0001:00055060       ?to8@shdfnd@physx@@YAEI@Z  0000000180056060 f i GuContactConvexMesh.obj
 0001:000550e0       ?transformPlaneToShapeSpace@FastVertex2ShapeScaling@Cm@physx@@QEBAXAEBVPxVec3@3@MAEAV43@AEAM@Z 00000001800560e0 f i GuContactConvexMesh.obj
 0001:00055220       ?findRotationMatrixFromZ@Gu@physx@@YA?AVPxMat33@2@AEBVPxVec3@2@@Z 0000000180056220 f   GuContactPolygonPolygon.obj
 0001:00055960       ?contactPolygonPolygonExt@Gu@physx@@YA_NIPEBVPxVec3@2@PEBEAEBVMatrix34@Cm@2@AEBVPxPlane@2@AEBVPxMat33@2@I01234AEBV32@22IIAEAVContactBuffer@12@_N5M@Z 0000000180056960 f   GuContactPolygonPolygon.obj
 0001:00058160       ??0Matrix34@Cm@physx@@QEAA@AEBVPxVec3@2@000@Z 0000000180059160 f i GuContactPolygonPolygon.obj
 0001:00058200       ??4ContactPoint@Gu@physx@@QEAAAEAU012@AEBU012@@Z 0000000180059200 f i GuContactPolygonPolygon.obj
 0001:00058320       ??RPxMat33@physx@@QEAAAEAMII@Z 0000000180059320 f i GuContactPolygonPolygon.obj
 0001:00058360       ?EdgeEdgeContactSpecial@@YA_NAEBVPxVec3@physx@@AEBVPxPlane@2@00000AEAMAEAV12@IIM@Z 0000000180059360 f i GuContactPolygonPolygon.obj
 0001:00058730       ?PxMemZero@physx@@YAPEAXPEIAXI@Z 0000000180059730 f i GuContactPolygonPolygon.obj
 0001:00058760       ?closestAxis@shdfnd@physx@@YAIAEBVPxVec3@2@AEAI1@Z 0000000180059760 f i GuContactPolygonPolygon.obj
 0001:00058880       ?contact@ContactBuffer@Gu@physx@@QEAAPEAUContactPoint@23@XZ 0000000180059880 f i GuContactPolygonPolygon.obj
 0001:000588f0       ?cross001@shdfnd@physx@@YA?AVPxVec3@2@AEBV32@@Z 00000001800598f0 f i GuContactPolygonPolygon.obj
 0001:00058950       ?degToRad@shdfnd@physx@@YAMM@Z 0000000180059950 f i GuContactPolygonPolygon.obj
 0001:00058970       ?memZero@intrinsics@physx@@YAPEAXPEIAXI@Z 0000000180059970 f i GuContactPolygonPolygon.obj
 0001:000589a0       ?pointInTriangle2D@@YA_NMMMMMMMM@Z 00000001800599a0 f i GuContactPolygonPolygon.obj
 0001:00058bb0       ?transform2D@@YAXAEAM0AEBVPxVec3@physx@@AEBVMatrix34@Cm@2@@Z 0000000180059bb0 f i GuContactPolygonPolygon.obj
 0001:00058ca0       ?transform2DT@@YAXAEAM0AEBVPxVec3@physx@@AEBVPxMat33@2@@Z 0000000180059ca0 f i GuContactPolygonPolygon.obj
 0001:00058d10       ?transformTranspose@@YA?AVMatrix34@Cm@physx@@AEBVPxMat33@3@AEBV123@@Z 0000000180059d10 f i GuContactPolygonPolygon.obj
 0001:00058e30       ?transformZ@@YAMAEBVPxVec3@physx@@AEBVMatrix34@Cm@2@@Z 0000000180059e30 f i GuContactPolygonPolygon.obj
 0001:00058f20       ?contactSphereMesh@Gu@physx@@YA_NAEBVGeometryUnion@12@0AEBVPxTransform@2@1AEBMAEAUCache@12@AEAVContactBuffer@12@@Z 0000000180059f20 f   GuContactSphereMesh.obj
 0001:00059240       ?contactSphereHeightField@Gu@physx@@YA_NAEBVGeometryUnion@12@0AEBVPxTransform@2@1AEBMAEAUCache@12@AEAVContactBuffer@12@@Z 000000018005a240 f   GuContactSphereMesh.obj
 0001:0005a060       ??$checkType@$$CBVPxSphereGeometry@physx@@@physx@@YAXAEBVGeometryUnion@Gu@0@@Z 000000018005b060 f i GuContactSphereMesh.obj
 0001:0005a0f0       ??$get@$$CBVPxSphereGeometry@physx@@@GeometryUnion@Gu@physx@@QEBAAEBVPxSphereGeometry@2@XZ 000000018005b0f0 f i GuContactSphereMesh.obj
 0001:0005a120       ??$median3@USortKey@@$$CBU?$Less@USortKey@@@shdfnd@physx@@@internal@shdfnd@physx@@YAXPEAUSortKey@@HHAEBU?$Less@USortKey@@@12@@Z 000000018005b120 f i GuContactSphereMesh.obj
 0001:0005a2e0       ??$partition@USortKey@@$$CBU?$Less@USortKey@@@shdfnd@physx@@@internal@shdfnd@physx@@YAHPEAUSortKey@@HHAEBU?$Less@USortKey@@@12@@Z 000000018005b2e0 f i GuContactSphereMesh.obj
 0001:0005a550       ??$smallSort@USortKey@@$$CBU?$Less@USortKey@@@shdfnd@physx@@@internal@shdfnd@physx@@YAXPEAUSortKey@@HHAEBU?$Less@USortKey@@@12@@Z 000000018005b550 f i GuContactSphereMesh.obj
 0001:0005a660       ??$sort@USortKey@@U?$Less@USortKey@@@shdfnd@physx@@VNullAllocator@?A0xd889578f@@@shdfnd@physx@@YAXPEAUSortKey@@IAEBU?$Less@USortKey@@@01@AEBVNullAllocator@?A0xd889578f@@I@Z 000000018005b660 f i GuContactSphereMesh.obj
 0001:0005aa10       ??$swap@USortKey@@@shdfnd@physx@@YAXAEAUSortKey@@0@Z 000000018005ba10 f i GuContactSphereMesh.obj
 0001:0005aa60       ??0?$ScopedPointer@HVTempAllocator@shdfnd@physx@@@shdfnd@physx@@QEAA@XZ 000000018005ba60 f i GuContactSphereMesh.obj
 0001:0005aa90       ??0?$Stack@VNullAllocator@?A0xd889578f@@@internal@shdfnd@physx@@QEAA@PEAHIAEBVNullAllocator@?A0xd889578f@@@Z 000000018005ba90 f i GuContactSphereMesh.obj
 0001:0005aaf0       ??0FastVertex2ShapeScaling@Cm@physx@@QEAA@AEBVPxMeshScale@2@@Z 000000018005baf0 f i GuContactSphereMesh.obj
 0001:0005ae90       ??0TriangleData@@QEAA@XZ   000000018005be90 f i GuContactSphereMesh.obj
 0001:0005aec0       ??1?$ScopedPointer@HVTempAllocator@shdfnd@physx@@@shdfnd@physx@@QEAA@XZ 000000018005bec0 f i GuContactSphereMesh.obj
 0001:0005af00       ??1?$Stack@VNullAllocator@?A0xd889578f@@@internal@shdfnd@physx@@QEAA@XZ 000000018005bf00 f i GuContactSphereMesh.obj
 0001:0005afe0       ??B?$ScopedPointer@HVTempAllocator@shdfnd@physx@@@shdfnd@physx@@QEBAPEAHXZ 000000018005bfe0 f i GuContactSphereMesh.obj
 0001:0005b000       ??MSortKey@@QEBA_NAEBU0@@Z 000000018005c000 f i GuContactSphereMesh.obj
 0001:0005b050       ??R?$Less@USortKey@@@shdfnd@physx@@QEBA_NAEBUSortKey@@0@Z 000000018005c050 f i GuContactSphereMesh.obj
 0001:0005b080       ??_GSphereHeightfieldContactGenerationCallback@?A0xd889578f@@UEAAPEAXI@Z 000000018005c080 f i GuContactSphereMesh.obj
 0001:0005b080       ??_ESphereHeightfieldContactGenerationCallback@?A0xd889578f@@UEAAPEAXI@Z 000000018005c080 f i GuContactSphereMesh.obj
 0001:0005b0d0       ??_ESphereMeshContactGenerationCallback_NoScale@?A0xd889578f@@UEAAPEAXI@Z 000000018005c0d0 f i GuContactSphereMesh.obj
 0001:0005b0d0       ??_GSphereMeshContactGenerationCallback_NoScale@?A0xd889578f@@UEAAPEAXI@Z 000000018005c0d0 f i GuContactSphereMesh.obj
 0001:0005b120       ??_ESphereMeshContactGenerationCallback_Scale@?A0xd889578f@@UEAAPEAXI@Z 000000018005c120 f i GuContactSphereMesh.obj
 0001:0005b120       ??_GSphereMeshContactGenerationCallback_Scale@?A0xd889578f@@UEAAPEAXI@Z 000000018005c120 f i GuContactSphereMesh.obj
 0001:0005b470       ?empty@?$Stack@VNullAllocator@?A0xd889578f@@@internal@shdfnd@physx@@QEAA_NXZ 000000018005c470 f i GuContactSphereMesh.obj
 0001:0005b8d0       ?grow@?$Stack@VNullAllocator@?A0xd889578f@@@internal@shdfnd@physx@@QEAAXXZ 000000018005c8d0 f i GuContactSphereMesh.obj
 0001:0005bb10       ?pop@?$Stack@VNullAllocator@?A0xd889578f@@@internal@shdfnd@physx@@QEAAXAEAH0@Z 000000018005cb10 f i GuContactSphereMesh.obj
 0001:0005c190       ?push@?$Stack@VNullAllocator@?A0xd889578f@@@internal@shdfnd@physx@@QEAAXHH@Z 000000018005d190 f i GuContactSphereMesh.obj
 0001:0005c240       ?selectNormal@Gu@physx@@YA_NEMM@Z 000000018005d240 f   GuFeatureCode.obj
 0001:0005c470       ?barycentricCoordinates@Gu@physx@@YAXAEBT__m128@@00AEAT3@@Z 000000018005d470 f   GuBarycentricCoordinates.obj
 0001:0005c670       ?barycentricCoordinates@Gu@physx@@YAXAEBT__m128@@000AEAT3@1@Z 000000018005d670 f   GuBarycentricCoordinates.obj
 0001:0005ccb0       ?barycentricCoordinates@Gu@physx@@YAXAEBT__m128@@00AEAT3@1@Z 000000018005dcb0 f   GuBarycentricCoordinates.obj
 0001:0005d460       ?FAdd@aos@shdfnd@physx@@YA?AT__m128@@T4@0@Z 000000018005e460 f i GuBarycentricCoordinates.obj
 0001:0005d4a0       ?FDiv@aos@shdfnd@physx@@YA?AT__m128@@T4@0@Z 000000018005e4a0 f i GuBarycentricCoordinates.obj
 0001:0005d4e0       ?FIsEq@aos@shdfnd@physx@@YA?AT__m128@@T4@0@Z 000000018005e4e0 f i GuBarycentricCoordinates.obj
 0001:0005d520       ?FMul@aos@shdfnd@physx@@YA?AT__m128@@T4@0@Z 000000018005e520 f i GuBarycentricCoordinates.obj
 0001:0005d560       ?FOne@aos@shdfnd@physx@@YA?AT__m128@@XZ 000000018005e560 f i GuBarycentricCoordinates.obj
 0001:0005d590       ?FRecip@aos@shdfnd@physx@@YA?AT__m128@@T4@@Z 000000018005e590 f i GuBarycentricCoordinates.obj
 0001:0005d5d0       ?FSel@aos@shdfnd@physx@@YA?AT__m128@@T4@00@Z 000000018005e5d0 f i GuBarycentricCoordinates.obj
 0001:0005d640       ?FSub@aos@shdfnd@physx@@YA?AT__m128@@T4@0@Z 000000018005e640 f i GuBarycentricCoordinates.obj
 0001:0005d680       ?FZero@aos@shdfnd@physx@@YA?AT__m128@@XZ 000000018005e680 f i GuBarycentricCoordinates.obj
 0001:0005d6a0       ?V3Cross@aos@shdfnd@physx@@YA?AT__m128@@AEBUVecCrossV@123@0@Z 000000018005e6a0 f i GuBarycentricCoordinates.obj
 0001:0005d710       ?V3Cross@aos@shdfnd@physx@@YA?AT__m128@@T4@0@Z 000000018005e710 f i GuBarycentricCoordinates.obj
 0001:0005d840       ?V3Dot@aos@shdfnd@physx@@YA?AT__m128@@T4@0@Z 000000018005e840 f i GuBarycentricCoordinates.obj
 0001:0005d930       ?V3Neg@aos@shdfnd@physx@@YA?AT__m128@@T4@@Z 000000018005e930 f i GuBarycentricCoordinates.obj
 0001:0005d970       ?V3PrepareCross@aos@shdfnd@physx@@YA?AUVecCrossV@123@T__m128@@@Z 000000018005e970 f i GuBarycentricCoordinates.obj
 0001:0005da00       ?V3Sub@aos@shdfnd@physx@@YA?AT__m128@@T4@0@Z 000000018005ea00 f i GuBarycentricCoordinates.obj
 0001:0005da40       ?addAxis@SeparatingAxes@Gu@physx@@QEAA_NAEBVPxVec3@3@@Z 000000018005ea40 f   GuSeparatingAxes.obj
 0001:0005db50       ??0BigConvexData@physx@@QEAA@XZ 000000018005eb50 f   GuBigConvexData.obj
 0001:0005dbd0       ??1BigConvexData@physx@@QEAA@XZ 000000018005ebd0 f   GuBigConvexData.obj
 0001:0005dc70       ?Load@BigConvexData@physx@@QEAA_NAEAVPxInputStream@2@@Z 000000018005ec70 f   GuBigConvexData.obj
 0001:0005ddd0       ?ComputeOffset@BigConvexData@physx@@QEBAIAEBVPxVec3@2@@Z 000000018005edd0 f   GuBigConvexData.obj
 0001:0005de00       ?ComputeNearestOffset@BigConvexData@physx@@QEBAIAEBVPxVec3@2@@Z 000000018005ee00 f   GuBigConvexData.obj
 0001:0005de30       ?exportExtraData@BigConvexData@physx@@QEAAXAEAVPxSerializationContext@2@@Z 000000018005ee30 f   GuBigConvexData.obj
 0001:0005df10       ?importExtraData@BigConvexData@physx@@QEAAXAEAVPxDeserializationContext@2@@Z 000000018005ef10 f   GuBigConvexData.obj
 0001:0005dfc0       ?CreateOffsets@BigConvexData@physx@@IEAAXXZ 000000018005efc0 f   GuBigConvexData.obj
 0001:0005e050       ?VLoad@BigConvexData@physx@@IEAA_NAEAVPxInputStream@2@@Z 000000018005f050 f   GuBigConvexData.obj
 0001:0005e560       ??$readExtraData@E$0BA@@PxDeserializationContext@physx@@QEAAPEAEI@Z 000000018005f560 f i GuBigConvexData.obj
 0001:0005e5a0       ??$readExtraData@E@PxDeserializationContext@physx@@QEAAPEAEI@Z 000000018005f5a0 f i GuBigConvexData.obj
 0001:0005e5f0       ??$readExtraData@UValency@Gu@physx@@@PxDeserializationContext@physx@@QEAAPEAUValency@Gu@1@I@Z 000000018005f5f0 f i GuBigConvexData.obj
 0001:0005e640       ??0BigConvexData@physx@@QEAA@AEBW4PxEMPTY@1@@Z 000000018005f640 f i GuBigConvexData.obj
 0001:0005e660       ??4BigConvexData@physx@@QEAAAEAV01@AEBV01@@Z 000000018005f660 f i GuBigConvexData.obj
 0001:0005e690       ?ComputeCubemapNearestOffset@physx@@YAIAEBVPxVec3@1@I@Z 000000018005f690 f i GuBigConvexData.obj
 0001:0005e7a0       ?ComputeCubemapOffset@physx@@YAIAEBVPxVec3@1@I@Z 000000018005f7a0 f i GuBigConvexData.obj
 0001:0005e8a0       ?GetAdjacentVerts@BigConvexData@physx@@QEBAPEBEXZ 000000018005f8a0 f i GuBigConvexData.obj
 0001:0005e8c0       ?GetNbNeighbors@BigConvexData@physx@@QEBAGI@Z 000000018005f8c0 f i GuBigConvexData.obj
 0001:0005e8f0       ?GetNbSamples@BigConvexData@physx@@QEBAIXZ 000000018005f8f0 f i GuBigConvexData.obj
 0001:0005e910       ?GetNbVerts@BigConvexData@physx@@QEBAIXZ 000000018005f910 f i GuBigConvexData.obj
 0001:0005e930       ?GetNeighbors@BigConvexData@physx@@QEBAPEBEI@Z 000000018005f930 f i GuBigConvexData.obj
 0001:0005e970       ?GetOffset@BigConvexData@physx@@QEBAGI@Z 000000018005f970 f i GuBigConvexData.obj
 0001:0005e9a0       ?GetSubdiv@BigConvexData@physx@@QEBAIXZ 000000018005f9a0 f i GuBigConvexData.obj
 0001:0005e9c0       ?GetValencies@BigConvexData@physx@@QEBAPEBUValency@Gu@2@XZ 000000018005f9c0 f i GuBigConvexData.obj
 0001:0005e9e0       ?GetValency@BigConvexData@physx@@QEBAGI@Z 000000018005f9e0 f i GuBigConvexData.obj
 0001:0005ea10       ?to16@shdfnd@physx@@YAGI@Z 000000018005fa10 f i GuBigConvexData.obj
 0001:0005ea90       ?getScaledConvex@Gu@physx@@YAXAEAPEAVPxVec3@2@AEAPEAEPEAV32@PEAE_NPEBV32@PEBEIAEBVFastVertex2ShapeScaling@Cm@2@@Z 000000018005fa90 f   GuConvexHelper.obj
 0001:0005eb80       ?getConvexData@Gu@physx@@YA_NAEBVGeometryUnion@12@AEAVFastVertex2ShapeScaling@Cm@2@AEAVPxBounds3@2@AEAUPolygonalData@12@@Z 000000018005fb80 f   GuConvexHelper.obj
 0001:0005ecd0       ?findUniqueConvexEdges@Gu@physx@@YAIIPEIAUConvexEdge@12@IPEIBUHullPolygonData@12@PEIBE@Z 000000018005fcd0 f   GuConvexHelper.obj
 0001:0005f080       ??$checkType@$$CBUPxConvexMeshGeometryLL@physx@@@physx@@YAXAEBVGeometryUnion@Gu@0@@Z 0000000180060080 f i GuConvexHelper.obj
 0001:0005f110       ??$get@$$CBUPxConvexMeshGeometryLL@physx@@@GeometryUnion@Gu@physx@@QEBAAEBUPxConvexMeshGeometryLL@2@XZ 0000000180060110 f i GuConvexHelper.obj
 0001:0005f140       ?getVertex2ShapeSkew@FastVertex2ShapeScaling@Cm@physx@@QEBAAEBVPxMat33@3@XZ 0000000180060140 f i GuConvexHelper.obj
 0001:0005f150       ?isEmpty@PxBounds3@physx@@QEBA_NXZ 0000000180060150 f i GuConvexHelper.obj
 0001:0005f210       ?reset@InternalObjectsData@Gu@physx@@QEAAXXZ 0000000180060210 f i GuConvexHelper.obj
 0001:0005f280       ?transformFast@PxBounds3@physx@@SA?AV12@AEBVPxMat33@2@AEBV12@@Z 0000000180060280 f i GuConvexHelper.obj
 0001:0005f390       ?exportExtraData@ConvexMesh@Gu@physx@@UEAAXAEAVPxSerializationContext@3@@Z 0000000180060390 f   GuConvexMesh.obj
 0001:0005f450       ?importExtraData@ConvexMesh@Gu@physx@@QEAAXAEAVPxDeserializationContext@3@@Z 0000000180060450 f   GuConvexMesh.obj
 0001:0005f540       ?onRefCountZero@ConvexMesh@Gu@physx@@UEAAXXZ 0000000180060540 f   GuConvexMesh.obj
 0001:0005f600       ?createObject@ConvexMesh@Gu@physx@@SAPEAV123@AEAPEAEAEAVPxDeserializationContext@3@@Z 0000000180060600 f   GuConvexMesh.obj
 0001:0005f6c0       ??0ConvexMesh@Gu@physx@@QEAA@XZ 00000001800606c0 f   GuConvexMesh.obj
 0001:0005f7b0       ?load@ConvexMesh@Gu@physx@@QEAA_NAEAVPxInputStream@3@@Z 00000001800607b0 f   GuConvexMesh.obj
 0001:0005fc50       ?release@ConvexMesh@Gu@physx@@UEAAXXZ 0000000180060c50 f   GuConvexMesh.obj
 0001:0005fcc0       ?getPolygonData@ConvexMesh@Gu@physx@@UEBA_NIAEAUPxHullPolygon@3@@Z 0000000180060cc0 f   GuConvexMesh.obj
 0001:0005fda0       ?getReferenceCount@ConvexMesh@Gu@physx@@UEBAIXZ 0000000180060da0 f   GuConvexMesh.obj
 0001:0005fdd0       ?getMassInformation@ConvexMesh@Gu@physx@@UEBAXAEAMAEAVPxMat33@3@AEAVPxVec3@3@@Z 0000000180060dd0 f   GuConvexMesh.obj
 0001:0005fe40       ??1ConvexMesh@Gu@physx@@UEAA@XZ 0000000180060e40 f   GuConvexMesh.obj
 0001:0005ff40       ?debugVisualize@ConvexMesh@Gu@physx@@QEBAXAEAVRenderOutput@Cm@3@AEBVMatrix34@53@AEBVPxBounds3@3@_KMI@Z 0000000180060f40 f   GuConvexMesh.obj
 0001:00060eb0       ??$PX_UNUSED@G@@YAXAEBG@Z  0000000180061eb0 f i GuConvexMesh.obj
 0001:00060ec0       ??$deletePxBase@VConvexMesh@Gu@physx@@@Cm@physx@@YAXPEAVConvexMesh@Gu@1@@Z 0000000180061ec0 f i GuConvexMesh.obj
 0001:00060f80       ??$readExtraData@VBigConvexData@physx@@$0BA@@PxDeserializationContext@physx@@QEAAPEAVBigConvexData@1@I@Z 0000000180061f80 f i GuConvexMesh.obj
 0001:00060fc0       ??$readExtraData@VBigConvexData@physx@@@PxDeserializationContext@physx@@QEAAPEAVBigConvexData@1@I@Z 0000000180061fc0 f i GuConvexMesh.obj
 0001:00061010       ??0?$Array@PEAVGuMeshFactoryListener@physx@@VNamedAllocator@shdfnd@2@@shdfnd@physx@@QEAA@AEBVNamedAllocator@12@@Z 0000000180062010 f i GuConvexMesh.obj
 0001:00061070       ??0?$CoalescedHashSet@PEAVConvexMesh@Gu@physx@@U?$Hash@PEAVConvexMesh@Gu@physx@@@shdfnd@3@VAllocator@53@@shdfnd@physx@@QEAA@IM@Z 0000000180062070 f i GuConvexMesh.obj
 0001:000610b0       ??0?$CoalescedHashSet@PEAVHeightField@Gu@physx@@U?$Hash@PEAVHeightField@Gu@physx@@@shdfnd@3@VAllocator@53@@shdfnd@physx@@QEAA@IM@Z 00000001800620b0 f i GuConvexMesh.obj
 0001:000610f0       ??0?$CoalescedHashSet@PEAVTriangleMesh@Gu@physx@@U?$Hash@PEAVTriangleMesh@Gu@physx@@@shdfnd@3@VAllocator@53@@shdfnd@physx@@QEAA@IM@Z 00000001800620f0 f i GuConvexMesh.obj
 0001:00061130       ??0?$HashBase@PEAVConvexMesh@Gu@physx@@PEAV123@U?$Hash@PEAVConvexMesh@Gu@physx@@@shdfnd@3@UGetKey@?$HashSetBase@PEAVConvexMesh@Gu@physx@@U?$Hash@PEAVConvexMesh@Gu@physx@@@shdfnd@3@VAllocator@53@$00@internal@53@VAllocator@53@$00@internal@shdfnd@physx@@QEAA@IM@Z 0000000180062130 f i GuConvexMesh.obj
 0001:00061190       ??0?$HashBase@PEAVHeightField@Gu@physx@@PEAV123@U?$Hash@PEAVHeightField@Gu@physx@@@shdfnd@3@UGetKey@?$HashSetBase@PEAVHeightField@Gu@physx@@U?$Hash@PEAVHeightField@Gu@physx@@@shdfnd@3@VAllocator@53@$00@internal@53@VAllocator@53@$00@internal@shdfnd@physx@@QEAA@IM@Z 0000000180062190 f i GuConvexMesh.obj
 0001:000611f0       ??0?$HashBase@PEAVTriangleMesh@Gu@physx@@PEAV123@U?$Hash@PEAVTriangleMesh@Gu@physx@@@shdfnd@3@UGetKey@?$HashSetBase@PEAVTriangleMesh@Gu@physx@@U?$Hash@PEAVTriangleMesh@Gu@physx@@@shdfnd@3@VAllocator@53@$00@internal@53@VAllocator@53@$00@internal@shdfnd@physx@@QEAA@IM@Z 00000001800621f0 f i GuConvexMesh.obj
 0001:00061250       ??0?$HashSetBase@PEAVConvexMesh@Gu@physx@@U?$Hash@PEAVConvexMesh@Gu@physx@@@shdfnd@3@VAllocator@53@$00@internal@shdfnd@physx@@QEAA@IM@Z 0000000180062250 f i GuConvexMesh.obj
 0001:000612a0       ??0?$HashSetBase@PEAVHeightField@Gu@physx@@U?$Hash@PEAVHeightField@Gu@physx@@@shdfnd@3@VAllocator@53@$00@internal@shdfnd@physx@@QEAA@IM@Z 00000001800622a0 f i GuConvexMesh.obj
 0001:000612f0       ??0?$HashSetBase@PEAVTriangleMesh@Gu@physx@@U?$Hash@PEAVTriangleMesh@Gu@physx@@@shdfnd@3@VAllocator@53@$00@internal@shdfnd@physx@@QEAA@IM@Z 00000001800622f0 f i GuConvexMesh.obj
 0001:00061340       ??0?$PxBitAndDataT@I$0IAAAAAAA@@physx@@QEAA@AEBW4PxEMPTY@1@@Z 0000000180062340 f i GuConvexMesh.obj
 0001:00061360       ??0?$PxBitAndDataT@I$0IAAAAAAA@@physx@@QEAA@I_N@Z 0000000180062360 f i GuConvexMesh.obj
 0001:000613c0       ??0?$PxFlags@W4Enum@PxBaseFlag@physx@@G@physx@@QEAA@W4Enum@PxBaseFlag@1@@Z 00000001800623c0 f i GuConvexMesh.obj
 0001:000613f0       ??0?$PxFlags@W4Enum@PxBaseFlag@physx@@G@physx@@QEAA@XZ 00000001800623f0 f i GuConvexMesh.obj
 0001:00061410       ??0?$ReflectionAllocator@VBigConvexData@physx@@@shdfnd@physx@@QEAA@PEBD@Z 0000000180062410 f i GuConvexMesh.obj
 0001:00061430       ??0ConvexHullData@Gu@physx@@QEAA@XZ 0000000180062430 f i GuConvexMesh.obj
 0001:00061470       ??0ConvexMesh@Gu@physx@@QEAA@V?$PxFlags@W4Enum@PxBaseFlag@physx@@G@2@@Z 0000000180062470 f i GuConvexMesh.obj
 0001:00061570       ??0GuMeshFactory@physx@@QEAA@XZ 0000000180062570 f i GuConvexMesh.obj
 0001:00061670       ??0PxBase@physx@@IEAA@GV?$PxFlags@W4Enum@PxBaseFlag@physx@@G@1@@Z 0000000180062670 f i GuConvexMesh.obj
 0001:000616e0       ??0PxBase@physx@@IEAA@V?$PxFlags@W4Enum@PxBaseFlag@physx@@G@1@@Z 00000001800626e0 f i GuConvexMesh.obj
 0001:00061730       ??0PxConvexMesh@physx@@IEAA@GV?$PxFlags@W4Enum@PxBaseFlag@physx@@G@1@@Z 0000000180062730 f i GuConvexMesh.obj
 0001:000617a0       ??0PxConvexMesh@physx@@IEAA@V?$PxFlags@W4Enum@PxBaseFlag@physx@@G@1@@Z 00000001800627a0 f i GuConvexMesh.obj
 0001:00061800       ??0RefCountable@Cm@physx@@QEAA@AEBW4PxEMPTY@2@@Z 0000000180062800 f i GuConvexMesh.obj
 0001:00061840       ??0RefCountable@Cm@physx@@QEAA@I@Z 0000000180062840 f i GuConvexMesh.obj
 0001:000618f0       ??1PxConvexMesh@physx@@MEAA@XZ 00000001800628f0 f i GuConvexMesh.obj
 0001:00061920       ??1RefCountable@Cm@physx@@UEAA@XZ 0000000180062920 f i GuConvexMesh.obj
 0001:00061940       ??B?$PxBitAndDataT@I$0IAAAAAAA@@physx@@QEBAIXZ 0000000180062940 f i GuConvexMesh.obj
 0001:00061960       ??R?$Hash@PEAVConvexMesh@Gu@physx@@@shdfnd@physx@@QEBAIAEBQEAVConvexMesh@Gu@2@@Z 0000000180062960 f i GuConvexMesh.obj
 0001:00061990       ??R?$Hash@PEAVHeightField@Gu@physx@@@shdfnd@physx@@QEBAIAEBQEAVHeightField@Gu@2@@Z 0000000180062990 f i GuConvexMesh.obj
 0001:000619c0       ??R?$Hash@PEAVTriangleMesh@Gu@physx@@@shdfnd@physx@@QEBAIAEBQEAVTriangleMesh@Gu@2@@Z 00000001800629c0 f i GuConvexMesh.obj
 0001:000619f0       ??RGetKey@?$HashSetBase@PEAVConvexMesh@Gu@physx@@U?$Hash@PEAVConvexMesh@Gu@physx@@@shdfnd@3@VAllocator@53@$00@internal@shdfnd@physx@@QEAAAEBQEAVConvexMesh@Gu@4@AEBQEAV564@@Z 00000001800629f0 f i GuConvexMesh.obj
 0001:00061a10       ??RGetKey@?$HashSetBase@PEAVHeightField@Gu@physx@@U?$Hash@PEAVHeightField@Gu@physx@@@shdfnd@3@VAllocator@53@$00@internal@shdfnd@physx@@QEAAAEBQEAVHeightField@Gu@4@AEBQEAV564@@Z 0000000180062a10 f i GuConvexMesh.obj
 0001:00061a30       ??RGetKey@?$HashSetBase@PEAVTriangleMesh@Gu@physx@@U?$Hash@PEAVTriangleMesh@Gu@physx@@@shdfnd@3@VAllocator@53@$00@internal@shdfnd@physx@@QEAAAEBQEAVTriangleMesh@Gu@4@AEBQEAV564@@Z 0000000180062a30 f i GuConvexMesh.obj
 0001:00061a50       ??S?$PxFlags@W4Enum@PxBaseFlag@physx@@G@physx@@QEBA?AV01@XZ 0000000180062a50 f i GuConvexMesh.obj
 0001:00061aa0       ??Sphysx@@YA?AV?$PxFlags@W4Enum@PxBaseFlag@physx@@G@0@W4Enum@PxBaseFlag@0@@Z 0000000180062aa0 f i GuConvexMesh.obj
 0001:00061ae0       ??Uphysx@@YA?AV?$PxFlags@W4Enum@PxBaseFlag@physx@@G@0@W4Enum@PxBaseFlag@0@0@Z 0000000180062ae0 f i GuConvexMesh.obj
 0001:00061b40       ??_4?$PxFlags@W4Enum@PxBaseFlag@physx@@G@physx@@QEAAAEAV01@AEBV01@@Z 0000000180062b40 f i GuConvexMesh.obj
 0001:00061b80       ??_5?$PxFlags@W4Enum@PxBaseFlag@physx@@G@physx@@QEAAAEAV01@W4Enum@PxBaseFlag@1@@Z 0000000180062b80 f i GuConvexMesh.obj
 0001:00061bc0       ??_EConvexMesh@Gu@physx@@UEAAPEAXI@Z 0000000180062bc0 f i GuConvexMesh.obj
 0001:00061ccc       ??_EConvexMesh@Gu@physx@@WBA@EAAPEAXI@Z 0000000180062ccc f i GuConvexMesh.obj
 0001:00061ce0       ??_EGuMeshFactory@physx@@MEAAPEAXI@Z 0000000180062ce0 f i GuConvexMesh.obj
 0001:00061df0       ??_EPxConvexMesh@physx@@MEAAPEAXI@Z 0000000180062df0 f i GuConvexMesh.obj
 0001:00061eb0       ??_GBigConvexData@physx@@QEAAPEAXI@Z 0000000180062eb0 f i GuConvexMesh.obj
 0001:00061f20       ??_GGuMeshFactory@physx@@MEAAPEAXI@Z 0000000180062f20 f i GuConvexMesh.obj
 0001:00061f90       ??_GRefCountable@Cm@physx@@UEAAPEAXI@Z 0000000180062f90 f i GuConvexMesh.obj
 0001:00061f90       ??_ERefCountable@Cm@physx@@UEAAPEAXI@Z 0000000180062f90 f i GuConvexMesh.obj
 0001:00061fe0       ?ReadDwordBuffer@physx@@YA_NPEAII_NAEAVPxInputStream@1@@Z 0000000180062fe0 f i GuConvexMesh.obj
 0001:00062030       ?allocate@?$ReflectionAllocator@VBigConvexData@physx@@@shdfnd@physx@@QEAAPEAX_KPEBDH@Z 0000000180063030 f i GuConvexMesh.obj
 0001:000620d0       ?computeBufferSize@Gu@physx@@YAIAEBUConvexHullData@12@I@Z 00000001800630d0 f i GuConvexMesh.obj
 0001:000621b0       ?contains@PxBounds3@physx@@QEBA_NAEBVPxVec3@2@@Z 00000001800631b0 f i GuConvexMesh.obj
 0001:000622f0       ?decRefCount@RefCountable@Cm@physx@@QEAAXXZ 00000001800632f0 f i GuConvexMesh.obj
 0001:000623a0       ?flip@physx@@YAXAEAG@Z     00000001800633a0 f i GuConvexMesh.obj
 0001:00062420       ?flip@physx@@YAXAEAM@Z     0000000180063420 f i GuConvexMesh.obj
 0001:00062510       ?flipData@Gu@physx@@YAXAEAUHullPolygonData@12@@Z 0000000180063510 f i GuConvexMesh.obj
 0001:00062590       ?freeListAdd@?$HashBase@PEAVConvexMesh@Gu@physx@@PEAV123@U?$Hash@PEAVConvexMesh@Gu@physx@@@shdfnd@3@UGetKey@?$HashSetBase@PEAVConvexMesh@Gu@physx@@U?$Hash@PEAVConvexMesh@Gu@physx@@@shdfnd@3@VAllocator@53@$00@internal@53@VAllocator@53@$00@internal@shdfnd@physx@@AEAAXII@Z 0000000180063590 f i GuConvexMesh.obj
 0001:000626c0       ?freeListAdd@?$HashBase@PEAVHeightField@Gu@physx@@PEAV123@U?$Hash@PEAVHeightField@Gu@physx@@@shdfnd@3@UGetKey@?$HashSetBase@PEAVHeightField@Gu@physx@@U?$Hash@PEAVHeightField@Gu@physx@@@shdfnd@3@VAllocator@53@$00@internal@53@VAllocator@53@$00@internal@shdfnd@physx@@AEAAXII@Z 00000001800636c0 f i GuConvexMesh.obj
 0001:000627f0       ?freeListAdd@?$HashBase@PEAVTriangleMesh@Gu@physx@@PEAV123@U?$Hash@PEAVTriangleMesh@Gu@physx@@@shdfnd@3@UGetKey@?$HashSetBase@PEAVTriangleMesh@Gu@physx@@U?$Hash@PEAVTriangleMesh@Gu@physx@@@shdfnd@3@VAllocator@53@$00@internal@53@VAllocator@53@$00@internal@shdfnd@physx@@AEAAXII@Z 00000001800637f0 f i GuConvexMesh.obj
 0001:00062920       ?getBaseFlags@PxBase@physx@@QEBA?AV?$PxFlags@W4Enum@PxBaseFlag@physx@@G@2@XZ 0000000180063920 f i GuConvexMesh.obj
 0001:00062960       ?getBufferSize@ConvexMesh@Gu@physx@@QEBAIXZ 0000000180063960 f i GuConvexMesh.obj
 0001:000629a0       ?getConcreteTypeName@PxConvexMesh@physx@@UEBAPEBDXZ 00000001800639a0 f i GuConvexMesh.obj
 0001:000629b0       ?getHull@ConvexMesh@Gu@physx@@QEBAAEBUConvexHullData@23@XZ 00000001800639b0 f i GuConvexMesh.obj
 0001:000629d0       ?getHullVertices@ConvexHullData@Gu@physx@@QEBAPEBVPxVec3@3@XZ 00000001800639d0 f i GuConvexMesh.obj
 0001:00062a20       ?getIndexBuffer@ConvexMesh@Gu@physx@@UEBAPEBEXZ 0000000180063a20 f i GuConvexMesh.obj
 0001:00062a50       ?getInertia@ConvexMesh@Gu@physx@@QEBAAEBVPxMat33@3@XZ 0000000180063a50 f i GuConvexMesh.obj
 0001:00062a70       ?getLocalBounds@ConvexMesh@Gu@physx@@UEBA?AVPxBounds3@3@XZ 0000000180063a70 f i GuConvexMesh.obj
 0001:00062b20       ?getMass@ConvexMesh@Gu@physx@@QEBAMXZ 0000000180063b20 f i GuConvexMesh.obj
 0001:00062b40       ?getName@?$ReflectionAllocator@VBigConvexData@physx@@@shdfnd@physx@@CAPEBDXZ 0000000180063b40 f i GuConvexMesh.obj
 0001:00062b90       ?getNb@ConvexMesh@Gu@physx@@AEBAIXZ 0000000180063b90 f i GuConvexMesh.obj
 0001:00062bc0       ?getNbPolygons@ConvexMesh@Gu@physx@@UEBAIXZ 0000000180063bc0 f i GuConvexMesh.obj
 0001:00062be0       ?getNbPolygonsFast@ConvexMesh@Gu@physx@@QEBAIXZ 0000000180063be0 f i GuConvexMesh.obj
 0001:00062c00       ?getNbVertices@ConvexMesh@Gu@physx@@UEBAIXZ 0000000180063c00 f i GuConvexMesh.obj
 0001:00062c20       ?getRefCount@RefCountable@Cm@physx@@QEBAIXZ 0000000180063c20 f i GuConvexMesh.obj
 0001:00062c40       ?getVertexData8@ConvexHullData@Gu@physx@@QEBAPEBEXZ 0000000180063c40 f i GuConvexMesh.obj
 0001:00062cf0       ?getVertices@ConvexMesh@Gu@physx@@UEBAPEBVPxVec3@3@XZ 0000000180063cf0 f i GuConvexMesh.obj
 0001:00062d20       ?hash@?$HashBase@PEAVConvexMesh@Gu@physx@@PEAV123@U?$Hash@PEAVConvexMesh@Gu@physx@@@shdfnd@3@UGetKey@?$HashSetBase@PEAVConvexMesh@Gu@physx@@U?$Hash@PEAVConvexMesh@Gu@physx@@@shdfnd@3@VAllocator@53@$00@internal@53@VAllocator@53@$00@internal@shdfnd@physx@@AEBAIAEBQEAVConvexMesh@Gu@4@I@Z 0000000180063d20 f i GuConvexMesh.obj
 0001:00062d60       ?hash@?$HashBase@PEAVHeightField@Gu@physx@@PEAV123@U?$Hash@PEAVHeightField@Gu@physx@@@shdfnd@3@UGetKey@?$HashSetBase@PEAVHeightField@Gu@physx@@U?$Hash@PEAVHeightField@Gu@physx@@@shdfnd@3@VAllocator@53@$00@internal@53@VAllocator@53@$00@internal@shdfnd@physx@@AEBAIAEBQEAVHeightField@Gu@4@I@Z 0000000180063d60 f i GuConvexMesh.obj
 0001:00062da0       ?hash@?$HashBase@PEAVTriangleMesh@Gu@physx@@PEAV123@U?$Hash@PEAVTriangleMesh@Gu@physx@@@shdfnd@3@UGetKey@?$HashSetBase@PEAVTriangleMesh@Gu@physx@@U?$Hash@PEAVTriangleMesh@Gu@physx@@@shdfnd@3@VAllocator@53@$00@internal@53@VAllocator@53@$00@internal@shdfnd@physx@@AEBAIAEBQEAVTriangleMesh@Gu@4@I@Z 0000000180063da0 f i GuConvexMesh.obj
 0001:00062de0       ?init@?$HashBase@PEAVConvexMesh@Gu@physx@@PEAV123@U?$Hash@PEAVConvexMesh@Gu@physx@@@shdfnd@3@UGetKey@?$HashSetBase@PEAVConvexMesh@Gu@physx@@U?$Hash@PEAVConvexMesh@Gu@physx@@@shdfnd@3@VAllocator@53@$00@internal@53@VAllocator@53@$00@internal@shdfnd@physx@@AEAAXIM@Z 0000000180063de0 f i GuConvexMesh.obj
 0001:00062ec0       ?init@?$HashBase@PEAVHeightField@Gu@physx@@PEAV123@U?$Hash@PEAVHeightField@Gu@physx@@@shdfnd@3@UGetKey@?$HashSetBase@PEAVHeightField@Gu@physx@@U?$Hash@PEAVHeightField@Gu@physx@@@shdfnd@3@VAllocator@53@$00@internal@53@VAllocator@53@$00@internal@shdfnd@physx@@AEAAXIM@Z 0000000180063ec0 f i GuConvexMesh.obj
 0001:00062fa0       ?init@?$HashBase@PEAVTriangleMesh@Gu@physx@@PEAV123@U?$Hash@PEAVTriangleMesh@Gu@physx@@@shdfnd@3@UGetKey@?$HashSetBase@PEAVTriangleMesh@Gu@physx@@U?$Hash@PEAVTriangleMesh@Gu@physx@@@shdfnd@3@VAllocator@53@$00@internal@53@VAllocator@53@$00@internal@shdfnd@physx@@AEAAXIM@Z 0000000180063fa0 f i GuConvexMesh.obj
 0001:00063080       ?isKindOf@PxConvexMesh@physx@@MEBA_NPEBD@Z 0000000180064080 f i GuConvexMesh.obj
 0001:000630f0       ?markSerializedMem@Cm@physx@@YAXPEAXI@Z 00000001800640f0 f i GuConvexMesh.obj
 0001:00063140       ?onRefCountZero@RefCountable@Cm@physx@@UEAAXXZ 0000000180064140 f i GuConvexMesh.obj
 0001:000631b0       ?requires@ConvexMesh@Gu@physx@@UEAAXAEAVPxProcessPxBaseCallback@3@@Z 00000001800641b0 f i GuConvexMesh.obj
 0001:000631c0       ?reserveInternal@?$HashBase@PEAVConvexMesh@Gu@physx@@PEAV123@U?$Hash@PEAVConvexMesh@Gu@physx@@@shdfnd@3@UGetKey@?$HashSetBase@PEAVConvexMesh@Gu@physx@@U?$Hash@PEAVConvexMesh@Gu@physx@@@shdfnd@3@VAllocator@53@$00@internal@53@VAllocator@53@$00@internal@shdfnd@physx@@AEAAXI@Z 00000001800641c0 f i GuConvexMesh.obj
 0001:000638b0       ?reserveInternal@?$HashBase@PEAVHeightField@Gu@physx@@PEAV123@U?$Hash@PEAVHeightField@Gu@physx@@@shdfnd@3@UGetKey@?$HashSetBase@PEAVHeightField@Gu@physx@@U?$Hash@PEAVHeightField@Gu@physx@@@shdfnd@3@VAllocator@53@$00@internal@53@VAllocator@53@$00@internal@shdfnd@physx@@AEAAXI@Z 00000001800648b0 f i GuConvexMesh.obj
 0001:00063fa0       ?reserveInternal@?$HashBase@PEAVTriangleMesh@Gu@physx@@PEAV123@U?$Hash@PEAVTriangleMesh@Gu@physx@@@shdfnd@3@UGetKey@?$HashSetBase@PEAVTriangleMesh@Gu@physx@@U?$Hash@PEAVTriangleMesh@Gu@physx@@@shdfnd@3@VAllocator@53@$00@internal@53@VAllocator@53@$00@internal@shdfnd@physx@@AEAAXI@Z 0000000180064fa0 f i GuConvexMesh.obj
 0001:00064690       ?resolveReferences@ConvexMesh@Gu@physx@@QEAAXAEAVPxDeserializationContext@3@@Z 0000000180065690 f i GuConvexMesh.obj
 0001:000646a0       ?setBit@?$PxBitAndDataT@I$0IAAAAAAA@@physx@@QEAAXXZ 00000001800656a0 f i GuConvexMesh.obj
 0001:000646c0       ?setEmpty@PxBounds3@physx@@QEAAXXZ 00000001800656c0 f i GuConvexMesh.obj
 0001:00064730       ?BFFFF@aos@shdfnd@physx@@YA?AT__m128@@XZ 0000000180065730 f i GuConvexSupportTable.obj
 0001:00064750       ?BFFTF@aos@shdfnd@physx@@YA?AT__m128@@XZ 0000000180065750 f i GuConvexSupportTable.obj
 0001:000647a0       ?BFTFF@aos@shdfnd@physx@@YA?AT__m128@@XZ 00000001800657a0 f i GuConvexSupportTable.obj
 0001:000647f0       ?BFTTF@aos@shdfnd@physx@@YA?AT__m128@@XZ 00000001800657f0 f i GuConvexSupportTable.obj
 0001:00064840       ?BTFFF@aos@shdfnd@physx@@YA?AT__m128@@XZ 0000000180065840 f i GuConvexSupportTable.obj
 0001:00064890       ?BTFTF@aos@shdfnd@physx@@YA?AT__m128@@XZ 0000000180065890 f i GuConvexSupportTable.obj
 0001:000648e0       ?BTTFF@aos@shdfnd@physx@@YA?AT__m128@@XZ 00000001800658e0 f i GuConvexSupportTable.obj
 0001:00064930       ?BTTTF@aos@shdfnd@physx@@YA?AT__m128@@XZ 0000000180065930 f i GuConvexSupportTable.obj
 0001:00064980       ?m128_I2F@internalWindowsSimd@aos@shdfnd@physx@@YA?AT__m128@@T__m128i@@@Z 0000000180065980 f i GuConvexSupportTable.obj
 0001:000649b0       ?computeHullOBB@Gu@physx@@YAXAEAVBox@12@AEBVPxBounds3@2@MAEBVPxTransform@2@AEBVMatrix34@Cm@2@3AEBVFastVertex2ShapeScaling@72@_N@Z 00000001800659b0 f   GuConvexUtilsInternal.obj
 0001:00064bc0       ?computeVertexSpaceOBB@Gu@physx@@YAXAEAVBox@12@AEBV312@AEBVPxTransform@2@AEBVPxMeshScale@2@@Z 0000000180065bc0 f   GuConvexUtilsInternal.obj
 0001:00064cc0       ?computeOBBAroundConvex@Gu@physx@@YAXAEAVBox@12@AEBVPxConvexMeshGeometry@2@PEBVPxConvexMesh@2@AEBVPxTransform@2@@Z 0000000180065cc0 f   GuConvexUtilsInternal.obj
 0001:00064fd0       ??0Matrix34@Cm@physx@@QEAA@AEBVPxMat33@2@AEBVPxVec3@2@@Z 0000000180065fd0 f i GuConvexUtilsInternal.obj
 0001:00065070       ??0Matrix34@Cm@physx@@QEAA@XZ 0000000180066070 f i GuConvexUtilsInternal.obj
 0001:000650e0       ??4Matrix34@Cm@physx@@QEAAAEBV012@AEBV012@@Z 00000001800660e0 f i GuConvexUtilsInternal.obj
 0001:00065180       ?getInverse@physx@@YAXAEAVPxMat33@1@AEAVPxVec3@1@AEBV21@AEBV31@@Z 0000000180066180 f i GuConvexUtilsInternal.obj
 0001:00065210       ?getLocalBoundsFast@ConvexMesh@Gu@physx@@QEBAAEBVPxBounds3@3@XZ 0000000180066210 f i GuConvexUtilsInternal.obj
 0001:00065230       ?rotate@physx@@YAXAEBVBox@Gu@1@AEBVMatrix34@Cm@1@AEAV231@@Z 0000000180066230 f i GuConvexUtilsInternal.obj
 0001:00065350       ?toMat33@PxMeshScale@physx@@QEBA?AVPxMat33@2@XZ 0000000180066350 f i GuConvexUtilsInternal.obj
 0001:00065440       ?transform@physx@@YA?AVBox@Gu@1@AEBVMatrix34@Cm@1@AEBV231@@Z 0000000180066440 f i GuConvexUtilsInternal.obj
 0001:00065640       ?transformTranspose@Matrix34@Cm@physx@@QEBA?AVPxVec3@3@AEBV43@@Z 0000000180066640 f i GuConvexUtilsInternal.obj
 0001:000656a0       ?CubemapLookup@physx@@YA?AW4CubeIndex@1@AEBVPxVec3@1@AEAM1@Z 00000001800666a0 f   GuCubeIndex.obj
 0001:000658a0       ?localSearch@physx@@YAXAEAIAEBVPxVec3@1@PEBV21@PEBUBigConvexRawData@Gu@1@@Z 00000001800668a0 f   GuHillClimbing.obj
 0001:00065d30       ??0PolygonalBox@Gu@physx@@QEAA@AEBVPxVec3@2@@Z 0000000180066d30 f   GuShapeConvex.obj
 0001:00066660       ?getPolygonalData@PolygonalBox@Gu@physx@@QEBAXPEIAUPolygonalData@23@@Z 0000000180067660 f   GuShapeConvex.obj
 0001:00066790       ?getPolygonalData_Convex@Gu@physx@@YAXPEIAUPolygonalData@12@PEIBUConvexHullData@12@AEBVFastVertex2ShapeScaling@Cm@2@@Z 0000000180067790 f   GuShapeConvex.obj
 0001:00067b00       ??$PX_UNUSED@PEIBVPxVec3@physx@@@@YAXAEBQEIBVPxVec3@physx@@@Z 0000000180068b00 f i GuShapeConvex.obj
 0001:00067b10       ??$PX_UNUSED@VFastVertex2ShapeScaling@Cm@physx@@@@YAXAEBVFastVertex2ShapeScaling@Cm@physx@@@Z 0000000180068b10 f i GuShapeConvex.obj
 0001:00067b20       ??0HullPolygonData@Gu@physx@@QEAA@XZ 0000000180068b20 f i GuShapeConvex.obj
 0001:00067b50       ?getFacesByEdges8@ConvexHullData@Gu@physx@@QEBAPEBEXZ 0000000180068b50 f i GuShapeConvex.obj
 0001:00067bc0       ?getSamples2@BigConvexRawData@Gu@physx@@QEBAPEBEXZ 0000000180068bc0 f i GuShapeConvex.obj
 0001:00067be0       ?pointsOnDir@Projection@Gu@physx@@SAXAEBVPxVec3@3@PEBV43@IAEAM2@Z 0000000180068be0 f i GuShapeConvex.obj
 0001:00067ce0       ?selectClosestPolygon@@YAIAEAMIPEBUHullPolygonData@Gu@physx@@AEBVPxVec3@3@@Z 0000000180068ce0 f i GuShapeConvex.obj
 0001:00067de0       ?distancePointBoxSquared@Gu@physx@@YAMAEBVPxVec3@2@00AEBVPxMat33@2@PEAV32@@Z 0000000180068de0 f   GuDistancePointBox.obj
 0001:000681a0       ?distancePointSegmentSquared@Gu@physx@@YAMAEBVPxVec3@2@00PEAM@Z 00000001800691a0 f   GuDistancePointSegment.obj
 0001:000683a0       ?closestPtPointTriangle@Gu@physx@@YA?AVPxVec3@2@AEBV32@000AEAM1@Z 00000001800693a0 f   GuDistancePointTriangle.obj
 0001:000689b0       ?distancePointTriangleSquared@Gu@physx@@YA?AT__m128@@AEBT3@000AEAT3@11@Z 00000001800699b0 f   GuDistancePointTriangle.obj
 0001:0006acd0       ?BAllEq@aos@shdfnd@physx@@YAIT__m128@@0@Z 000000018006bcd0 f i GuDistancePointTriangle.obj
 0001:0006adc0       ?BAllTrue4_R@internalWindowsSimd@aos@shdfnd@physx@@YAIT__m128@@@Z 000000018006bdc0 f i GuDistancePointTriangle.obj
 0001:0006ae10       ?BAnd@aos@shdfnd@physx@@YA?AT__m128@@T4@0@Z 000000018006be10 f i GuDistancePointTriangle.obj
 0001:0006ae50       ?BTTTT@aos@shdfnd@physx@@YA?AT__m128@@XZ 000000018006be50 f i GuDistancePointTriangle.obj
 0001:0006aea0       ?FIsGrtr@aos@shdfnd@physx@@YA?AT__m128@@T4@0@Z 000000018006bea0 f i GuDistancePointTriangle.obj
 0001:0006aee0       ?FIsGrtrOrEq@aos@shdfnd@physx@@YA?AT__m128@@T4@0@Z 000000018006bee0 f i GuDistancePointTriangle.obj
 0001:0006af20       ?V3Add@aos@shdfnd@physx@@YA?AT__m128@@T4@0@Z 000000018006bf20 f i GuDistancePointTriangle.obj
 0001:0006af60       ?V3Scale@aos@shdfnd@physx@@YA?AT__m128@@T4@0@Z 000000018006bf60 f i GuDistancePointTriangle.obj
 0001:0006afa0       ?m128_F2I@internalWindowsSimd@aos@shdfnd@physx@@YA?AT__m128i@@T__m128@@@Z 000000018006bfa0 f i GuDistancePointTriangle.obj
 0001:0006afd0       ?distanceSegmentBoxSquared@Gu@physx@@YAMAEBVPxVec3@2@000AEBVPxMat33@2@PEAMPEAV32@@Z 000000018006bfd0 f   GuDistanceSegmentBox.obj
 0001:00070460       ?distanceSegmentSegmentSquaredOLD@Gu@physx@@YAMAEBVPxVec3@2@000PEAM1@Z 0000000180071460 f   GuDistanceSegmentSegment.obj
 0001:00070530       ?distanceSegmentSegmentSquared2@Gu@physx@@YAMAEBVSegment@12@0PEAM1@Z 0000000180071530 f   GuDistanceSegmentSegment.obj
 0001:000707e0       ?distanceSegmentSegmentSquared@Gu@physx@@YA?AT__m128@@AEBT3@000AEAT3@1@Z 00000001800717e0 f   GuDistanceSegmentSegment.obj
 0001:00071250       ?distanceSegmentSegmentSquared4@Gu@physx@@YA?AT__m128@@AEBT3@000000000AEAT3@1@Z 0000000180072250 f   GuDistanceSegmentSegment.obj
 0001:00072910       ?distanceSegmentSegmentSquared4@Gu@physx@@YA?AT__m128@@AEBT3@000000AEAT3@1PEAT3@@Z 0000000180073910 f   GuDistanceSegmentSegment.obj
 0001:000772d0       ?FClamp@aos@shdfnd@physx@@YA?AT__m128@@T4@00@Z 00000001800782d0 f i GuDistanceSegmentSegment.obj
 0001:00077380       ?FEps@aos@shdfnd@physx@@YA?AT__m128@@XZ 0000000180078380 f i GuDistanceSegmentSegment.obj
 0001:000773b0       ?FHalf@aos@shdfnd@physx@@YA?AT__m128@@XZ 00000001800783b0 f i GuDistanceSegmentSegment.obj
 0001:000773e0       ?FMax@aos@shdfnd@physx@@YA?AT__m128@@T4@0@Z 00000001800783e0 f i GuDistanceSegmentSegment.obj
 0001:00077420       ?FMin@aos@shdfnd@physx@@YA?AT__m128@@T4@0@Z 0000000180078420 f i GuDistanceSegmentSegment.obj
 0001:00077460       ?FScaleAdd@aos@shdfnd@physx@@YA?AT__m128@@T4@00@Z 0000000180078460 f i GuDistanceSegmentSegment.obj
 0001:00077510       ?V3Dot4@aos@shdfnd@physx@@YA?AT__m128@@AEBT4@0000000@Z 0000000180078510 f i GuDistanceSegmentSegment.obj
 0001:00077960       ?V3GetX@aos@shdfnd@physx@@YA?AT__m128@@T4@@Z 0000000180078960 f i GuDistanceSegmentSegment.obj
 0001:00077990       ?V3GetY@aos@shdfnd@physx@@YA?AT__m128@@T4@@Z 0000000180078990 f i GuDistanceSegmentSegment.obj
 0001:000779c0       ?V3GetZ@aos@shdfnd@physx@@YA?AT__m128@@T4@@Z 00000001800789c0 f i GuDistanceSegmentSegment.obj
 0001:000779f0       ?V3Mul@aos@shdfnd@physx@@YA?AT__m128@@T4@0@Z 00000001800789f0 f i GuDistanceSegmentSegment.obj
 0001:00077a30       ?V3ScaleAdd@aos@shdfnd@physx@@YA?AT__m128@@T4@00@Z 0000000180078a30 f i GuDistanceSegmentSegment.obj
 0001:00077ae0       ?V4Abs@aos@shdfnd@physx@@YA?AT__m128@@T4@@Z 0000000180078ae0 f i GuDistanceSegmentSegment.obj
 0001:00077b60       ?V4Add@aos@shdfnd@physx@@YA?AT__m128@@T4@0@Z 0000000180078b60 f i GuDistanceSegmentSegment.obj
 0001:00077ba0       ?V4Clamp@aos@shdfnd@physx@@YA?AT__m128@@T4@00@Z 0000000180078ba0 f i GuDistanceSegmentSegment.obj
 0001:00077c50       ?V4ClearW@aos@shdfnd@physx@@YA?AT__m128@@T4@@Z 0000000180078c50 f i GuDistanceSegmentSegment.obj
 0001:00077c80       ?V4Div@aos@shdfnd@physx@@YA?AT__m128@@T4@0@Z 0000000180078c80 f i GuDistanceSegmentSegment.obj
 0001:00077cc0       ?V4Eps@aos@shdfnd@physx@@YA?AT__m128@@XZ 0000000180078cc0 f i GuDistanceSegmentSegment.obj
 0001:00077cf0       ?V4GetW@aos@shdfnd@physx@@YA?AT__m128@@T4@@Z 0000000180078cf0 f i GuDistanceSegmentSegment.obj
 0001:00077d20       ?V4GetX@aos@shdfnd@physx@@YA?AT__m128@@T4@@Z 0000000180078d20 f i GuDistanceSegmentSegment.obj
 0001:00077d50       ?V4GetY@aos@shdfnd@physx@@YA?AT__m128@@T4@@Z 0000000180078d50 f i GuDistanceSegmentSegment.obj
 0001:00077d80       ?V4GetZ@aos@shdfnd@physx@@YA?AT__m128@@T4@@Z 0000000180078d80 f i GuDistanceSegmentSegment.obj
 0001:00077db0       ?V4IsGrtr@aos@shdfnd@physx@@YA?AT__m128@@T4@0@Z 0000000180078db0 f i GuDistanceSegmentSegment.obj
 0001:00077df0       ?V4IsGrtrOrEq@aos@shdfnd@physx@@YA?AT__m128@@T4@0@Z 0000000180078df0 f i GuDistanceSegmentSegment.obj
 0001:00077e30       ?V4Max@aos@shdfnd@physx@@YA?AT__m128@@T4@0@Z 0000000180078e30 f i GuDistanceSegmentSegment.obj
 0001:00077e70       ?V4Min@aos@shdfnd@physx@@YA?AT__m128@@T4@0@Z 0000000180078e70 f i GuDistanceSegmentSegment.obj
 0001:00077eb0       ?V4Mul@aos@shdfnd@physx@@YA?AT__m128@@T4@0@Z 0000000180078eb0 f i GuDistanceSegmentSegment.obj
 0001:00077ef0       ?V4MulAdd@aos@shdfnd@physx@@YA?AT__m128@@T4@00@Z 0000000180078ef0 f i GuDistanceSegmentSegment.obj
 0001:00077fa0       ?V4Neg@aos@shdfnd@physx@@YA?AT__m128@@T4@@Z 0000000180078fa0 f i GuDistanceSegmentSegment.obj
 0001:00077fe0       ?V4One@aos@shdfnd@physx@@YA?AT__m128@@XZ 0000000180078fe0 f i GuDistanceSegmentSegment.obj
 0001:00078010       ?V4Recip@aos@shdfnd@physx@@YA?AT__m128@@T4@@Z 0000000180079010 f i GuDistanceSegmentSegment.obj
 0001:00078050       ?V4Sel@aos@shdfnd@physx@@YA?AT__m128@@T4@00@Z 0000000180079050 f i GuDistanceSegmentSegment.obj
 0001:000780c0       ?V4Splat@aos@shdfnd@physx@@YA?AT__m128@@T4@@Z 00000001800790c0 f i GuDistanceSegmentSegment.obj
 0001:000780e0       ?V4Sub@aos@shdfnd@physx@@YA?AT__m128@@T4@0@Z 00000001800790e0 f i GuDistanceSegmentSegment.obj
 0001:00078120       ?V4UnpackXY@aos@shdfnd@physx@@YA?AT__m128@@AEBT4@0@Z 0000000180079120 f i GuDistanceSegmentSegment.obj
 0001:00078160       ?V4UnpackZW@aos@shdfnd@physx@@YA?AT__m128@@AEBT4@0@Z 0000000180079160 f i GuDistanceSegmentSegment.obj
 0001:000781a0       ?V4Zero@aos@shdfnd@physx@@YA?AT__m128@@XZ 00000001800791a0 f i GuDistanceSegmentSegment.obj
 0001:000781c0       ?Vec3V_From_Vec4V@aos@shdfnd@physx@@YA?AT__m128@@T4@@Z 00000001800791c0 f i GuDistanceSegmentSegment.obj
 0001:00078200       ?Vec4V_From_Vec3V@aos@shdfnd@physx@@YA?AT__m128@@T4@@Z 0000000180079200 f i GuDistanceSegmentSegment.obj
 0001:00078220       ?distanceSegmentTriangleSquared@Gu@physx@@YAMAEBVPxVec3@2@0000PEAM11@Z 0000000180079220 f   GuDistanceSegmentTriangle.obj
 0001:0007a3c0       ?distanceSegmentTriangleSquared@Gu@physx@@YA?AT__m128@@AEBT3@0000AEAT3@1@Z 000000018007b3c0 f   GuDistanceSegmentTriangle.obj
 0001:0007d6d0       ?FNeg@aos@shdfnd@physx@@YA?AT__m128@@T4@@Z 000000018007e6d0 f i GuDistanceSegmentTriangle.obj
 0001:0007d710       ?V3NegScaleSub@aos@shdfnd@physx@@YA?AT__m128@@T4@00@Z 000000018007e710 f i GuDistanceSegmentTriangle.obj
 0001:0007d7c0       ?V3Normalize@aos@shdfnd@physx@@YA?AT__m128@@T4@@Z 000000018007e7c0 f i GuDistanceSegmentTriangle.obj
 0001:0007d870       ?V3ScaleInv@aos@shdfnd@physx@@YA?AT__m128@@T4@0@Z 000000018007e870 f i GuDistanceSegmentTriangle.obj
 0001:0007d8b0       ?V3Sel@aos@shdfnd@physx@@YA?AT__m128@@T4@00@Z 000000018007e8b0 f i GuDistanceSegmentTriangle.obj
 0001:0007d920       ?distancePointTriangleSquared@Gu@physx@@YAMAEBVPxVec3@2@000PEAM1@Z 000000018007e920 f i GuDistanceSegmentTriangle.obj
 0001:0007da50       ?isValidTriangleBarycentricCoord@Gu@physx@@YA?AT__m128@@AEBT3@0@Z 000000018007ea50 f i GuDistanceSegmentTriangle.obj
 0001:0007de60       ?sweepBoxBox@Gu@physx@@YA_NAEBVBox@12@0AEBVPxVec3@2@MAEAV42@2AEAMV?$PxFlags@W4Enum@PxHitFlag@physx@@G@2@@Z 000000018007ee60 f   GuSweepBoxBox.obj
 0001:0007ebf0       ??0?$PxFlags@W4Enum@PxHitFlag@physx@@G@physx@@QEAA@AEBV01@@Z 000000018007fbf0 f i GuSweepBoxBox.obj
 0001:0007ec20       ??0?$PxFlags@W4Enum@PxTriangleMeshFlag@physx@@E@physx@@QEAA@E@Z 000000018007fc20 f i GuSweepBoxBox.obj
 0001:0007ec50       ??0InternalTriangleMesh@physx@@QEAA@AEBV01@@Z 000000018007fc50 f i GuSweepBoxBox.obj
 0001:0007ed70       ??0InternalTriangleMesh@physx@@QEAA@AEBW4PxEMPTY@1@@Z 000000018007fd70 f i GuSweepBoxBox.obj
 0001:0007ede0       ??0InternalTriangleMeshData@Gu@physx@@QEAA@AEBU012@@Z 000000018007fde0 f i GuSweepBoxBox.obj
 0001:0007eee0       ??0InternalTriangleMeshData@Gu@physx@@QEAA@AEBW4PxEMPTY@2@@Z 000000018007fee0 f i GuSweepBoxBox.obj
 0001:0007ef40       ??0PxTriangleMesh@physx@@IEAA@V?$PxFlags@W4Enum@PxBaseFlag@physx@@G@1@@Z 000000018007ff40 f i GuSweepBoxBox.obj
 0001:0007efa0       ??0TriangleMesh@Gu@physx@@QEAA@V?$PxFlags@W4Enum@PxBaseFlag@physx@@G@2@@Z 000000018007ffa0 f i GuSweepBoxBox.obj
 0001:0007f060       ??4InternalTriangleMesh@physx@@QEAAAEAV01@AEBV01@@Z 0000000180080060 f i GuSweepBoxBox.obj
 0001:0007f180       ??4InternalTriangleMeshData@Gu@physx@@QEAAAEAU012@AEBU012@@Z 0000000180080180 f i GuSweepBoxBox.obj
 0001:0007f280       ??B?$PxFlags@W4Enum@PxHitFlag@physx@@G@physx@@QEBA_NXZ 0000000180080280 f i GuSweepBoxBox.obj
 0001:0007f2c0       ??I?$PxFlags@W4Enum@PxHitFlag@physx@@G@physx@@QEBA?AV01@W4Enum@PxHitFlag@1@@Z 00000001800802c0 f i GuSweepBoxBox.obj
 0001:0007f330       ??_ETriangleMesh@Gu@physx@@UEAAPEAXI@Z 0000000180080330 f i GuSweepBoxBox.obj
 0001:0007f43c       ??_ETriangleMesh@Gu@physx@@WBA@EAAPEAXI@Z 000000018008043c f i GuSweepBoxBox.obj
 0001:0007f450       ?buildMatrixFromBox@physx@@YAXAEAVMatrix34@Cm@1@AEBVBox@Gu@1@@Z 0000000180080450 f i GuSweepBoxBox.obj
 0001:0007f4e0       ?computeWorldToBoxMatrix@physx@@YAXAEAVMatrix34@Cm@1@AEBVBox@Gu@1@@Z 00000001800804e0 f i GuSweepBoxBox.obj
 0001:0007f550       ?getAdjacencies@InternalTriangleMesh@physx@@QEBAPEBIXZ 0000000180080550 f i GuSweepBoxBox.obj
 0001:0007f570       ?getCollisionModel@InternalTriangleMesh@physx@@QEBAAEBVRTreeMidphase@Gu@2@XZ 0000000180080570 f i GuSweepBoxBox.obj
 0001:0007f590       ?getConvexEdgeThreshold@InternalTriangleMesh@physx@@QEBAMXZ 0000000180080590 f i GuSweepBoxBox.obj
 0001:0007f5b0       ?getFaceRemap@InternalTriangleMesh@physx@@QEBAPEBIXZ 00000001800805b0 f i GuSweepBoxBox.obj
 0001:0007f5d0       ?getInverseRT@Matrix34@Cm@physx@@QEBA?AV123@XZ 00000001800805d0 f i GuSweepBoxBox.obj
 0001:0007f6b0       ?getLocalBounds@TriangleMesh@Gu@physx@@UEBA?AVPxBounds3@3@XZ 00000001800806b0 f i GuSweepBoxBox.obj
 0001:0007f770       ?getMaterials@InternalTriangleMesh@physx@@QEBAPEBGXZ 0000000180080770 f i GuSweepBoxBox.obj
 0001:0007f790       ?getMeshInterface@InternalTriangleMesh@physx@@QEBAAEBVMeshInterface@Gu@2@XZ 0000000180080790 f i GuSweepBoxBox.obj
 0001:0007f7b0       ?getNbTriangles@TriangleMesh@Gu@physx@@UEBAIXZ 00000001800807b0 f i GuSweepBoxBox.obj
 0001:0007f7e0       ?getNbVertices@TriangleMesh@Gu@physx@@UEBAIXZ 00000001800807e0 f i GuSweepBoxBox.obj
 0001:0007f810       ?getNumTriangles@InternalTriangleMesh@physx@@QEBAIXZ 0000000180080810 f i GuSweepBoxBox.obj
 0001:0007f830       ?getNumVertices@InternalTriangleMesh@physx@@QEBAIXZ 0000000180080830 f i GuSweepBoxBox.obj
 0001:0007f840       ?getTriangleMaterialIndex@TriangleMesh@Gu@physx@@UEBAGI@Z 0000000180080840 f i GuSweepBoxBox.obj
 0001:0007f8b0       ?getTriangleMeshFlags@InternalTriangleMesh@physx@@QEBA?AV?$PxFlags@W4Enum@PxTriangleMeshFlag@physx@@E@2@XZ 00000001800808b0 f i GuSweepBoxBox.obj
 0001:0007f8f0       ?getTriangleMeshFlags@TriangleMesh@Gu@physx@@UEBA?AV?$PxFlags@W4Enum@PxTriangleMeshFlag@physx@@E@3@XZ 00000001800808f0 f i GuSweepBoxBox.obj
 0001:0007f930       ?getTriangles@InternalTriangleMesh@physx@@QEBAPEBXXZ 0000000180080930 f i GuSweepBoxBox.obj
 0001:0007f950       ?getTriangles@TriangleMesh@Gu@physx@@UEBAPEBXXZ 0000000180080950 f i GuSweepBoxBox.obj
 0001:0007f980       ?getTrianglesRemap@TriangleMesh@Gu@physx@@UEBAPEBIXZ 0000000180080980 f i GuSweepBoxBox.obj
 0001:0007f9b0       ?getTrigSharedEdgeFlagsFromData@InternalTriangleMesh@physx@@QEBAII@Z 00000001800809b0 f i GuSweepBoxBox.obj
 0001:0007fa50       ?getVertices@InternalTriangleMesh@physx@@QEBAPEBVPxVec3@2@XZ 0000000180080a50 f i GuSweepBoxBox.obj
 0001:0007fa70       ?getVertices@TriangleMesh@Gu@physx@@UEBAPEBVPxVec3@3@XZ 0000000180080a70 f i GuSweepBoxBox.obj
 0001:0007faa0       ?has16BitIndices@InternalTriangleMesh@physx@@QEBA_NXZ 0000000180080aa0 f i GuSweepBoxBox.obj
 0001:0007fae0       ?hasPerTriangleMaterials@TriangleMesh@Gu@physx@@QEBA_NXZ 0000000180080ae0 f i GuSweepBoxBox.obj
 0001:0007fb30       ?requires@TriangleMesh@Gu@physx@@UEAAXAEAVPxProcessPxBaseCallback@3@@Z 0000000180080b30 f i GuSweepBoxBox.obj
 0001:0007fb40       ?setTriangleAdjacency@InternalTriangleMesh@physx@@QEAAXIII@Z 0000000180080b40 f i GuSweepBoxBox.obj
 0001:0007fc00       ?setTrigSharedEdgeFlag@InternalTriangleMesh@physx@@QEAAXII@Z 0000000180080c00 f i GuSweepBoxBox.obj
 0001:0007fd00       ?sweepBoxSphere@Gu@physx@@YA_NAEBVBox@12@MAEBVPxVec3@2@1MAEAMAEAV42@V?$PxFlags@W4Enum@PxHitFlag@physx@@G@2@@Z 0000000180080d00 f   GuSweepBoxSphere.obj
 0001:000805d0       ??0Capsule@Gu@physx@@QEAA@AEBVPxVec3@2@0M@Z 00000001800815d0 f i GuSweepBoxSphere.obj
 0001:00080630       ??0Sphere@Gu@physx@@QEAA@AEBVPxVec3@2@M@Z 0000000180081630 f i GuSweepBoxSphere.obj
 0001:00080680       ??1Sphere@Gu@physx@@QEAA@XZ 0000000180081680 f i GuSweepBoxSphere.obj
 0001:00080690       ?computePoint@Segment@Gu@physx@@QEBAXAEAVPxVec3@3@M@Z 0000000180081690 f i GuSweepBoxSphere.obj
 0001:00080710       ?distancePointSegmentSquared@Gu@physx@@YAMAEBVSegment@12@AEBVPxVec3@2@PEAM@Z 0000000180081710 f i GuSweepBoxSphere.obj
 0001:00080760       ?sweepBoxTriangle@Gu@physx@@YA_NAEBVPxTriangle@2@AEBVPxBounds3@2@AEBVPxVec3@2@2AEAV52@3AEAM@Z 0000000180081760 f   GuSweepBoxTriangle_FeatureBased.obj
 0001:00082770       ??0PxTriangle@physx@@QEAA@AEBV01@@Z 0000000180083770 f i GuSweepBoxTriangle_FeatureBased.obj
 0001:00082870       ?triBoxSweepTestBoxSpace@Gu@physx@@YAHAEBVPxTriangle@2@AEBVPxVec3@2@11MAEAM_N@Z 0000000180083870 f   GuSweepBoxTriangle_SAT.obj
 0001:000835a0       ?cross010@shdfnd@physx@@YA?AVPxVec3@2@AEBV32@@Z 00000001800845a0 f i GuSweepBoxTriangle_SAT.obj
 0001:00083600       ?cross100@shdfnd@physx@@YA?AVPxVec3@2@AEBV32@@Z 0000000180084600 f i GuSweepBoxTriangle_SAT.obj
 0001:00083660       ?sweepCapsuleBox@Gu@physx@@YA_NAEBVCapsule@12@AEBVPxTransform@2@AEBVPxVec3@2@2MAEAV52@AEAM3V?$PxFlags@W4Enum@PxHitFlag@physx@@G@2@@Z 0000000180084660 f   GuSweepCapsuleBox.obj
 0001:00084ec0       ??0?$PxFlags@W4Enum@PxHitFlag@physx@@G@physx@@QEAA@XZ 0000000180085ec0 f i GuSweepCapsuleBox.obj
 0001:00084ee0       ??0?$ScopedPointer@VPxTriangle@physx@@VTempAllocator@shdfnd@2@@shdfnd@physx@@QEAA@XZ 0000000180085ee0 f i GuSweepCapsuleBox.obj
 0001:00084f10       ??1?$ScopedPointer@VPxTriangle@physx@@VTempAllocator@shdfnd@2@@shdfnd@physx@@QEAA@XZ 0000000180085f10 f i GuSweepCapsuleBox.obj
 0001:00084f50       ??B?$ScopedPointer@VPxTriangle@physx@@VTempAllocator@shdfnd@2@@shdfnd@physx@@QEBAPEAVPxTriangle@2@XZ 0000000180085f50 f i GuSweepCapsuleBox.obj
 0001:00084ff0       ?sweepCapsuleCapsule@Gu@physx@@YA_NAEBVCapsule@12@0AEBVPxVec3@2@MAEAMAEAV42@3IAEAG@Z 0000000180085ff0 f   GuSweepCapsuleCapsule.obj
 0001:000866d0       ??0?$PxFlags@W4Enum@PxHitFlag@physx@@G@physx@@QEAA@W4Enum@PxHitFlag@1@@Z 00000001800876d0 f i GuSweepCapsuleCapsule.obj
 0001:00086700       ??0Capsule@Gu@physx@@QEAA@XZ 0000000180087700 f i GuSweepCapsuleCapsule.obj
 0001:00086730       ??0PxTriangle@physx@@QEAA@AEBVPxVec3@1@00@Z 0000000180087730 f i GuSweepCapsuleCapsule.obj
 0001:00086800       ??4Capsule@Gu@physx@@QEAAAEAV012@AEBV012@@Z 0000000180087800 f i GuSweepCapsuleCapsule.obj
 0001:00086850       ??4Segment@Gu@physx@@QEAAAEAV012@AEBV012@@Z 0000000180087850 f i GuSweepCapsuleCapsule.obj
 0001:000868b0       ??8PxVec3@physx@@QEBA_NAEBV01@@Z 00000001800878b0 f i GuSweepCapsuleCapsule.obj
 0001:00086930       ??B?$PxFlags@W4Enum@PxHitFlag@physx@@G@physx@@QEBAGXZ 0000000180087930 f i GuSweepCapsuleCapsule.obj
 0001:00086950       ??B?$PxFlags@W4Enum@PxHitFlag@physx@@G@physx@@QEBAIXZ 0000000180087950 f i GuSweepCapsuleCapsule.obj
 0001:00086970       ??Uphysx@@YA?AV?$PxFlags@W4Enum@PxHitFlag@physx@@G@0@W4Enum@PxHitFlag@0@0@Z 0000000180087970 f i GuSweepCapsuleCapsule.obj
 0001:000869d0       ??_5?$PxFlags@W4Enum@PxHitFlag@physx@@G@physx@@QEAAAEAV01@W4Enum@PxHitFlag@1@@Z 00000001800879d0 f i GuSweepCapsuleCapsule.obj
 0001:00086a90       ?sweepCapsuleTriangles@Gu@physx@@YA_NIPEIBVPxTriangle@2@AEBVCapsule@12@AEBVPxVec3@2@MPEIBIAEAV?$PxFlags@W4Enum@PxHitFlag@physx@@G@2@AEAMAEAV52@6AEAI6V62@_NPEBVBox@12@@Z 0000000180087a90 f   GuSweepCapsuleTriangle.obj
 0001:00088cd0       ??$PX_UNUSED@VPxVec3@physx@@@@YAXAEBVPxVec3@physx@@@Z 0000000180089cd0 f i GuSweepCapsuleTriangle.obj
 0001:00088ce0       ??4?$PxFlags@W4Enum@PxHitFlag@physx@@G@physx@@QEAAAEAV01@AEBV01@@Z 0000000180089ce0 f i GuSweepCapsuleTriangle.obj
 0001:00088d10       ??4PxTriangle@physx@@QEAAAEAV01@AEBV01@@Z 0000000180089d10 f i GuSweepCapsuleTriangle.obj
 0001:00088d90       ??U?$PxFlags@W4Enum@PxHitFlag@physx@@G@physx@@QEBA?AV01@W4Enum@PxHitFlag@1@@Z 0000000180089d90 f i GuSweepCapsuleTriangle.obj
 0001:00088df0       ?V3LoadU@aos@shdfnd@physx@@YA?AT__m128@@AEBVPxVec3@3@@Z 0000000180089df0 f i GuSweepCapsuleTriangle.obj
 0001:00088e50       ?V3StoreU@aos@shdfnd@physx@@YAXT__m128@@AEAVPxVec3@3@@Z 0000000180089e50 f i GuSweepCapsuleTriangle.obj
 0001:00088ed0       ?coarseCulling@Gu@physx@@YA_NAEBVPxVec3@2@0MMAEBVPxTriangle@2@@Z 0000000180089ed0 f i GuSweepCapsuleTriangle.obj
 0001:00089150       ?computeAlignmentValue@Gu@physx@@YAMAEBVPxVec3@2@0@Z 000000018008a150 f i GuSweepCapsuleTriangle.obj
 0001:00089190       ?cullTriangle@Gu@physx@@YA_NAEBVPxTriangle@2@AEBVPxVec3@2@MMM@Z 000000018008a190 f i GuSweepCapsuleTriangle.obj
 0001:00089300       ?getInitIndex@Gu@physx@@YAIPEIBII@Z 000000018008a300 f i GuSweepCapsuleTriangle.obj
 0001:000893c0       ?getTriangleIndex@physx@@YAIII@Z 000000018008a3c0 f i GuSweepCapsuleTriangle.obj
 0001:00089410       ?keepTriangle@Gu@physx@@YA_NMMMMM@Z 000000018008a410 f i GuSweepCapsuleTriangle.obj
 0001:000894e0       ?rejectTriangle@Gu@physx@@YA_NAEBVPxVec3@2@0MMAEBVPxTriangle@2@M@Z 000000018008a4e0 f i GuSweepCapsuleTriangle.obj
 0001:00089590       ?shouldFlipNormal@Gu@physx@@YA_NAEBVPxVec3@2@_N100@Z 000000018008a590 f i GuSweepCapsuleTriangle.obj
 0001:00089690       ?squareDistance@Gu@physx@@YAMAEBVPxVec3@2@0M0@Z 000000018008a690 f i GuSweepCapsuleTriangle.obj
 0001:000897e0       ?sweepSphereCapsule@Gu@physx@@YA_NAEBVSphere@12@AEBVCapsule@12@AEBVPxVec3@2@MAEAMAEAV52@4V?$PxFlags@W4Enum@PxHitFlag@physx@@G@2@@Z 000000018008a7e0 f   GuSweepSphereCapsule.obj
 0001:00089da0       ?sweepSphereSphere@Gu@physx@@YA_NAEBVPxVec3@2@M0M0AEAMAEAV32@@Z 000000018008ada0 f   GuSweepSphereSphere.obj
 0001:0008a3c0       ?sweepTriSphere@Gu@physx@@YA_NAEBVPxTriangle@2@AEBVPxVec3@2@1M1AEAM@Z 000000018008b3c0 f   GuSweepSphereTriangle.obj
 0001:0008ac10       ?sweepSphereTriangles@Gu@physx@@YA_NIPEIBVPxTriangle@2@AEBVPxVec3@2@M1MPEIBIAEAV42@3AEAMAEAIAEAV?$PxFlags@W4Enum@PxHitFlag@physx@@G@2@3_N7@Z 000000018008bc10 f   GuSweepSphereTriangle.obj
 0001:0008b8e0       ?computeSphereTriImpactData@Gu@physx@@YAXAEAVPxVec3@2@0AEBV32@1MAEBVPxTriangle@2@@Z 000000018008c8e0 f   GuSweepTriangleUtils.obj
 0001:0008ba30       ?computeBoxTriImpactData@Gu@physx@@YAXAEAVPxVec3@2@0AEBV32@111AEBVPxTriangle@2@@Z 000000018008ca30 f   GuSweepTriangleUtils.obj
 0001:0008bc50       ?computeEdgeEdgeNormal@Gu@physx@@YAXAEAVPxVec3@2@AEBV32@1111M@Z 000000018008cc50 f   GuSweepTriangleUtils.obj
 0001:0008c680       ??0BoxV@Gu@physx@@QEAA@AEBT__m128@@0000@Z 000000018008d680 f i GuSweepTriangleUtils.obj
 0001:0008c760       ??0ConvexV@Gu@physx@@QEAA@I@Z 000000018008d760 f i GuSweepTriangleUtils.obj
 0001:0008c800       ??0ConvexV@Gu@physx@@QEAA@IAEBT__m128@@@Z 000000018008d800 f i GuSweepTriangleUtils.obj
 0001:0008c8c0       ??0Mat33V@aos@shdfnd@physx@@QEAA@XZ 000000018008d8c0 f i GuSweepTriangleUtils.obj
 0001:0008c8d0       ??0TriangleV@Gu@physx@@QEAA@AEBT__m128@@00@Z 000000018008d8d0 f i GuSweepTriangleUtils.obj
 0001:0008cb00       ??1BoxV@Gu@physx@@QEAA@XZ  000000018008db00 f i GuSweepTriangleUtils.obj
 0001:0008cb20       ??1ConvexV@Gu@physx@@IEAA@XZ 000000018008db20 f i GuSweepTriangleUtils.obj
 0001:0008cb30       ??1TriangleV@Gu@physx@@QEAA@XZ 000000018008db30 f i GuSweepTriangleUtils.obj
 0001:0008cb50       ?CalculateBoxMargin@Gu@physx@@YAXAEBT__m128@@AEAT3@1@Z 000000018008db50 f i GuSweepTriangleUtils.obj
 0001:0008ccb0       ?FMax@aos@shdfnd@physx@@YA?AT__m128@@XZ 000000018008dcb0 f i GuSweepTriangleUtils.obj
 0001:0008cce0       ?V3ExtractMin@aos@shdfnd@physx@@YA?AT__m128@@T4@@Z 000000018008dce0 f i GuSweepTriangleUtils.obj
 0001:0008cdb0       ?epaPenetration@Gu@physx@@YAIAEBVConvexV@12@0PEAVEPASupportMapPair@12@PEIAE2EAEAT__m128@@333_N@Z 000000018008ddb0 f   GuEPA.obj
 0001:0008d600       ?silhouette@Facet@Gu@physx@@QEAAXAEBT__m128@@PEIBT4@1AEAVEdgeBuffer@23@AEAV?$InlineDeferredIDPool@$0EA@@Cm@3@@Z 000000018008e600 f   GuEPA.obj
 0001:0008d6a0       ?PenetrationDepth@EPA@Gu@physx@@QEAAIAEBVConvexV@23@0PEAVEPASupportMapPair@23@PEIBT__m128@@22HAEAT6@333_N@Z 000000018008e6a0 f   GuEPA.obj
 0001:0008ed00       ?expandPoint@EPA@Gu@physx@@QEAA_NPEAVEPASupportMapPair@23@AEAHAEBT__m128@@2@Z 000000018008fd00 f   GuEPA.obj
 0001:0008edb0       ?expandSegment@EPA@Gu@physx@@QEAA_NPEAVEPASupportMapPair@23@AEAHAEBT__m128@@2@Z 000000018008fdb0 f   GuEPA.obj
 0001:0008f360       ?expandTriangle@EPA@Gu@physx@@QEAA_NAEAHAEBT__m128@@1@Z 0000000180090360 f   GuEPA.obj
 0001:0008f470       ?addFacet@EPA@Gu@physx@@QEAAPEAVFacet@23@IIIAEBT__m128@@0@Z 0000000180090470 f   GuEPA.obj
 0001:00090c40       ??0?$DeferredIDPoolBase@V?$InlineFixedArray@I$0EA@@Cm@physx@@@Cm@physx@@QEAA@XZ 0000000180091c40 f i GuEPA.obj
 0001:00090c80       ??0?$IDPoolBase@V?$InlineFixedArray@I$0EA@@Cm@physx@@@Cm@physx@@QEAA@XZ 0000000180091c80 f i GuEPA.obj
 0001:00090cc0       ??0?$InlineDeferredIDPool@$0EA@@Cm@physx@@QEAA@XZ 0000000180091cc0 f i GuEPA.obj
 0001:00090cf0       ??0?$InlineFixedArray@I$0EA@@Cm@physx@@QEAA@XZ 0000000180091cf0 f i GuEPA.obj
 0001:00090d10       ??0?$PriorityQueue@PEAVFacet@Gu@physx@@$0EA@UFacetDistanceComparator@23@@Gu@physx@@QEAA@AEBUFacetDistanceComparator@12@@Z 0000000180091d10 f i GuEPA.obj
 0001:00090d40       ??0EPA@Gu@physx@@QEAA@XZ   0000000180091d40 f i GuEPA.obj
 0001:00090dd0       ??0Edge@Gu@physx@@QEAA@PEIAVFacet@12@I@Z 0000000180091dd0 f i GuEPA.obj
 0001:00090e10       ??0Edge@Gu@physx@@QEAA@XZ  0000000180091e10 f i GuEPA.obj
 0001:00090e20       ??0EdgeBuffer@Gu@physx@@QEAA@XZ 0000000180091e20 f i GuEPA.obj
 0001:00090e70       ??0Facet@Gu@physx@@QEAA@III@Z 0000000180091e70 f i GuEPA.obj
 0001:00090fc0       ??0Facet@Gu@physx@@QEAA@XZ 0000000180091fc0 f i GuEPA.obj
 0001:00090fd0       ??1?$DeferredIDPoolBase@V?$InlineFixedArray@I$0EA@@Cm@physx@@@Cm@physx@@QEAA@XZ 0000000180091fd0 f i GuEPA.obj
 0001:00091010       ??1?$IDPoolBase@V?$InlineFixedArray@I$0EA@@Cm@physx@@@Cm@physx@@QEAA@XZ 0000000180092010 f i GuEPA.obj
 0001:00091040       ??1?$InlineDeferredIDPool@$0EA@@Cm@physx@@QEAA@XZ 0000000180092040 f i GuEPA.obj
 0001:00091060       ??1?$InlineFixedArray@I$0EA@@Cm@physx@@QEAA@XZ 0000000180092060 f i GuEPA.obj
 0001:00091070       ??1?$PriorityQueue@PEAVFacet@Gu@physx@@$0EA@UFacetDistanceComparator@23@@Gu@physx@@QEAA@XZ 0000000180092070 f i GuEPA.obj
 0001:00091080       ??1EPA@Gu@physx@@QEAA@XZ   0000000180092080 f i GuEPA.obj
 0001:000910c0       ??4Edge@Gu@physx@@QEAAAEAV012@AEBV012@@Z 00000001800920c0 f i GuEPA.obj
 0001:00091100       ??A?$InlineFixedArray@I$0EA@@Cm@physx@@QEAAAEAII@Z 0000000180092100 f i GuEPA.obj
 0001:00091190       ??AFacet@Gu@physx@@QEBAII@Z 0000000180092190 f i GuEPA.obj
 0001:000911b0       ??MFacet@Gu@physx@@QEBA_NAEBV012@@Z 00000001800921b0 f i GuEPA.obj
 0001:00091200       ??RFacetDistanceComparator@Gu@physx@@QEBA_NPEBVFacet@12@0@Z 0000000180092200 f i GuEPA.obj
 0001:00091230       ?FAbs@aos@shdfnd@physx@@YA?AT__m128@@T4@@Z 0000000180092230 f i GuEPA.obj
 0001:00091270       ?FAllGrtr@aos@shdfnd@physx@@YAIT__m128@@0@Z 0000000180092270 f i GuEPA.obj
 0001:000912b0       ?FAllGrtrOrEq@aos@shdfnd@physx@@YAIT__m128@@0@Z 00000001800922b0 f i GuEPA.obj
 0001:000912f0       ?FNegScaleSub@aos@shdfnd@physx@@YA?AT__m128@@T4@00@Z 00000001800922f0 f i GuEPA.obj
 0001:000913a0       ?FRsqrt@aos@shdfnd@physx@@YA?AT__m128@@T4@@Z 00000001800923a0 f i GuEPA.obj
 0001:000913f0       ?FStore@aos@shdfnd@physx@@YAXT__m128@@PEIAM@Z 00000001800923f0 f i GuEPA.obj
 0001:00091420       ?GJKCPairDoSimplex@Gu@physx@@YA?AT__m128@@PEIAT3@00AEBT3@AEAI@Z 0000000180092420 f i GuEPA.obj
 0001:000915b0       ?Get@EdgeBuffer@Gu@physx@@QEAAPEAVEdge@23@I@Z 00000001800925b0 f i GuEPA.obj
 0001:00091650       ?Insert@EdgeBuffer@Gu@physx@@QEAAPEAVEdge@23@PEIAVFacet@23@I@Z 0000000180092650 f i GuEPA.obj
 0001:00091750       ?IsEmpty@EdgeBuffer@Gu@physx@@QEAA_NXZ 0000000180092750 f i GuEPA.obj
 0001:00091790       ?MakeEmpty@EdgeBuffer@Gu@physx@@QEAAXXZ 0000000180092790 f i GuEPA.obj
 0001:000917b0       ?QuatRotate@aos@shdfnd@physx@@YA?AT__m128@@T4@0@Z 00000001800927b0 f i GuEPA.obj
 0001:00091b40       ?Size@EdgeBuffer@Gu@physx@@QEAAIXZ 0000000180092b40 f i GuEPA.obj
 0001:00091b60       ?V3Splat@aos@shdfnd@physx@@YA?AT__m128@@T4@@Z 0000000180092b60 f i GuEPA.obj
 0001:00091bd0       ?V3UnitX@aos@shdfnd@physx@@YA?AT__m128@@XZ 0000000180092bd0 f i GuEPA.obj
 0001:00091c30       ?V3Zero@aos@shdfnd@physx@@YA?AT__m128@@XZ 0000000180092c30 f i GuEPA.obj
 0001:00091c50       ?V4SetW@aos@shdfnd@physx@@YA?AT__m128@@T4@0@Z 0000000180092c50 f i GuEPA.obj
 0001:00091cd0       ?Valid@Facet@Gu@physx@@QEAA_NXZ 0000000180092cd0 f i GuEPA.obj
 0001:00091d90       ?clear@?$InlineFixedArray@I$0EA@@Cm@physx@@QEAAXXZ 0000000180092d90 f i GuEPA.obj
 0001:00091db0       ?clear@?$PriorityQueue@PEAVFacet@Gu@physx@@$0EA@UFacetDistanceComparator@23@@Gu@physx@@QEAAXXZ 0000000180092db0 f i GuEPA.obj
 0001:00091dd0       ?closestPtPointSegment@Gu@physx@@YA?AT__m128@@PEIAT3@AEAI@Z 0000000180092dd0 f i GuEPA.obj
 0001:000921f0       ?closestPtPointTriangle@Gu@physx@@YA?AT__m128@@PEIAT3@PEAT3@1AEAI@Z 00000001800931f0 f i GuEPA.obj
 0001:00092740       ?closestPtPointTriangleBaryCentric@Gu@physx@@YA?AT__m128@@AEBT3@00PEIAIAEAI@Z 0000000180093740 f i GuEPA.obj
 0001:000944b0       ?compare@?$PriorityQueue@PEAVFacet@Gu@physx@@$0EA@UFacetDistanceComparator@23@@Gu@physx@@AEBA_NAEBQEAVFacet@23@0@Z 00000001800954b0 f i GuEPA.obj
 0001:000944f0       ?deferredFreeID@?$DeferredIDPoolBase@V?$InlineFixedArray@I$0EA@@Cm@physx@@@Cm@physx@@QEAAXI@Z 00000001800954f0 f i GuEPA.obj
 0001:00094530       ?empty@?$PriorityQueue@PEAVFacet@Gu@physx@@$0EA@UFacetDistanceComparator@23@@Gu@physx@@QEBA_NXZ 0000000180095530 f i GuEPA.obj
 0001:00094570       ?freeID@?$IDPoolBase@V?$InlineFixedArray@I$0EA@@Cm@physx@@@Cm@physx@@QEAAXI@Z 0000000180095570 f i GuEPA.obj
 0001:000945d0       ?getCenter@ConvexV@Gu@physx@@QEBA?AT__m128@@XZ 00000001800955d0 f i GuEPA.obj
 0001:00094600       ?getClosestPoint@Facet@Gu@physx@@QEBAXPEIBT__m128@@0AEAT4@1@Z 0000000180095600 f i GuEPA.obj
 0001:00095230       ?getFacet@Edge@Gu@physx@@QEBAPEAVFacet@23@XZ 0000000180096230 f i GuEPA.obj
 0001:00095250       ?getIndex@Edge@Gu@physx@@QEBAIXZ 0000000180096250 f i GuEPA.obj
 0001:00095270       ?getMargin@ConvexV@Gu@physx@@QEBA?AT__m128@@XZ 0000000180096270 f i GuEPA.obj
 0001:000952a0       ?getMinMargin@ConvexV@Gu@physx@@QEBA?AT__m128@@XZ 00000001800962a0 f i GuEPA.obj
 0001:000952d0       ?getNewID@?$IDPoolBase@V?$InlineFixedArray@I$0EA@@Cm@physx@@@Cm@physx@@QEAAIXZ 00000001800962d0 f i GuEPA.obj
 0001:00095350       ?getNumRemainingIDs@?$InlineDeferredIDPool@$0EA@@Cm@physx@@QEAAIXZ 0000000180096350 f i GuEPA.obj
 0001:00095380       ?getNumUsedID@?$IDPoolBase@V?$InlineFixedArray@I$0EA@@Cm@physx@@@Cm@physx@@QEAAIXZ 0000000180096380 f i GuEPA.obj
 0001:000953c0       ?getPlaneDist@Facet@Gu@physx@@QEBA?AT__m128@@AEBT4@PEIBT4@1@Z 00000001800963c0 f i GuEPA.obj
 0001:00095560       ?getPlaneDist@Facet@Gu@physx@@QEBA?AT__m128@@XZ 0000000180096560 f i GuEPA.obj
 0001:000955b0       ?getPlaneNormal@Facet@Gu@physx@@QEBA?AT__m128@@XZ 00000001800965b0 f i GuEPA.obj
 0001:000955e0       ?getSource@Edge@Gu@physx@@QEBAIXZ 00000001800965e0 f i GuEPA.obj
 0001:00095680       ?getTarget@Edge@Gu@physx@@QEBAIXZ 0000000180096680 f i GuEPA.obj
 0001:00095720       ?incMod3@Gu@physx@@YAII@Z  0000000180096720 f i GuEPA.obj
 0001:00095740       ?isMarginEqRadius@ConvexV@Gu@physx@@QEBA?AT__m128@@XZ 0000000180096740 f i GuEPA.obj
 0001:00095770       ?isObsolete@Facet@Gu@physx@@QEBA_NXZ 0000000180096770 f i GuEPA.obj
 0001:00095790       ?isValid2@Facet@Gu@physx@@QEAA?AT__m128@@IIIPEIBT4@0AEBT4@1@Z 0000000180096790 f i GuEPA.obj
 0001:00096080       ?left@?$PriorityQueue@PEAVFacet@Gu@physx@@$0EA@UFacetDistanceComparator@23@@Gu@physx@@CAII@Z 0000000180097080 f i GuEPA.obj
 0001:00096090       ?link@Facet@Gu@physx@@QEAA_NIPEIAV123@I@Z 0000000180097090 f i GuEPA.obj
 0001:000961b0       ?parent@?$PriorityQueue@PEAVFacet@Gu@physx@@$0EA@UFacetDistanceComparator@23@@Gu@physx@@CAII@Z 00000001800971b0 f i GuEPA.obj
 0001:000961c0       ?pop@?$PriorityQueue@PEAVFacet@Gu@physx@@$0EA@UFacetDistanceComparator@23@@Gu@physx@@QEAAPEAVFacet@23@XZ 00000001800971c0 f i GuEPA.obj
 0001:00096550       ?popBack@?$InlineFixedArray@I$0EA@@Cm@physx@@QEAAIXZ 0000000180097550 f i GuEPA.obj
 0001:00096610       ?prefetchLine@shdfnd@physx@@YAXPEBXI@Z 0000000180097610 f i GuEPA.obj
 0001:00096640       ?processDeferredIds@?$DeferredIDPoolBase@V?$InlineFixedArray@I$0EA@@Cm@physx@@@Cm@physx@@QEAAXXZ 0000000180097640 f i GuEPA.obj
 0001:000966e0       ?push@?$PriorityQueue@PEAVFacet@Gu@physx@@$0EA@UFacetDistanceComparator@23@@Gu@physx@@QEAAXAEBQEAVFacet@23@@Z 00000001800976e0 f i GuEPA.obj
 0001:000968a0       ?pushBack@?$InlineFixedArray@I$0EA@@Cm@physx@@QEAAXAEBI@Z 00000001800978a0 f i GuEPA.obj
 0001:00096960       ?silhouette@Facet@Gu@physx@@QEAAXIAEBT__m128@@PEIBT4@1AEAVEdgeBuffer@23@AEAV?$InlineDeferredIDPool@$0EA@@Cm@3@@Z 0000000180097960 f i GuEPA.obj
 0001:00096d40       ?size@?$InlineFixedArray@I$0EA@@Cm@physx@@QEBAIXZ 0000000180097d40 f i GuEPA.obj
 0001:00096d60       ?size@?$PriorityQueue@PEAVFacet@Gu@physx@@$0EA@UFacetDistanceComparator@23@@Gu@physx@@QEBAIXZ 0000000180097d60 f i GuEPA.obj
 0001:00096d70       ?toI8@shdfnd@physx@@YACI@Z 0000000180097d70 f i GuEPA.obj
 0001:00096df0       ?top@?$PriorityQueue@PEAVFacet@Gu@physx@@$0EA@UFacetDistanceComparator@23@@Gu@physx@@QEAAPEAVFacet@23@XZ 0000000180097df0 f i GuEPA.obj
 0001:00096e10       ?valid@?$PriorityQueue@PEAVFacet@Gu@physx@@$0EA@UFacetDistanceComparator@23@@Gu@physx@@QEBA_NXZ 0000000180097e10 f i GuEPA.obj
 0001:00096eb0       ?EPALocalPenetration@Gu@physx@@YAIAEBVCapsuleV@12@AEBVBoxV@12@AEAT__m128@@222PEIAE3AEAE_N@Z 0000000180097eb0 f   GuEPAPenetrationWrapper.obj
 0001:00096f90       ?EPALocalPenetration@Gu@physx@@YAIAEBVCapsuleV@12@AEBVConvexHullV@12@AEAT__m128@@222PEIAE3AEAE_N@Z 0000000180097f90 f   GuEPAPenetrationWrapper.obj
 0001:00097070       ?EPALocalPenetration@Gu@physx@@YAIAEBVTriangleV@12@AEBVBoxV@12@AEAT__m128@@222PEIAE3AEAE_N@Z 0000000180098070 f   GuEPAPenetrationWrapper.obj
 0001:00097150       ?EPALocalPenetration@Gu@physx@@YAIAEBVTriangleV@12@AEBVConvexHullV@12@AEAT__m128@@222PEIAE3AEAE_N@Z 0000000180098150 f   GuEPAPenetrationWrapper.obj
 0001:00097230       ?EPARelativePenetration@Gu@physx@@YAIAEBVBoxV@12@0AEBVPsMatTransformV@aos@shdfnd@2@AEAT__m128@@222PEIAE3AEAE_N@Z 0000000180098230 f   GuEPAPenetrationWrapper.obj
 0001:00097310       ?EPARelativePenetration@Gu@physx@@YAIAEBVBoxV@12@AEBVConvexHullV@12@AEBVPsMatTransformV@aos@shdfnd@2@AEAT__m128@@333PEIAE4AEAE_N@Z 0000000180098310 f   GuEPAPenetrationWrapper.obj
 0001:000973f0       ?EPARelativePenetration@Gu@physx@@YAIAEBVConvexHullV@12@0AEBVPsMatTransformV@aos@shdfnd@2@AEAT__m128@@222PEIAE3AEAE_N@Z 00000001800983f0 f   GuEPAPenetrationWrapper.obj
 0001:000974d0       ?EPARelativePenetration@Gu@physx@@YAIAEBVConvexHullNoScaleV@12@0AEBVPsMatTransformV@aos@shdfnd@2@AEAT__m128@@222PEIAE3AEAE_N@Z 00000001800984d0 f   GuEPAPenetrationWrapper.obj
 0001:000975b0       ?EPARelativePenetration@Gu@physx@@YAIAEBVConvexHullNoScaleV@12@AEBVConvexHullV@12@AEBVPsMatTransformV@aos@shdfnd@2@AEAT__m128@@333PEIAE4AEAE_N@Z 00000001800985b0 f   GuEPAPenetrationWrapper.obj
 0001:00097690       ?EPARelativePenetration@Gu@physx@@YAIAEBVConvexHullV@12@AEBVConvexHullNoScaleV@12@AEBVPsMatTransformV@aos@shdfnd@2@AEAT__m128@@333PEIAE4AEAE_N@Z 0000000180098690 f   GuEPAPenetrationWrapper.obj
 0001:000979a0       ??0?$EPASupportMapPairLocalImpl@VCapsuleV@Gu@physx@@VBoxV@23@@Gu@physx@@QEAA@AEBVCapsuleV@12@AEBVBoxV@12@@Z 00000001800989a0 f i GuEPAPenetrationWrapper.obj
 0001:00097a10       ??0?$EPASupportMapPairLocalImpl@VCapsuleV@Gu@physx@@VConvexHullV@23@@Gu@physx@@QEAA@AEBVCapsuleV@12@AEBVConvexHullV@12@@Z 0000000180098a10 f i GuEPAPenetrationWrapper.obj
 0001:00097a80       ??0?$EPASupportMapPairLocalImpl@VTriangleV@Gu@physx@@VBoxV@23@@Gu@physx@@QEAA@AEBVTriangleV@12@AEBVBoxV@12@@Z 0000000180098a80 f i GuEPAPenetrationWrapper.obj
 0001:00097af0       ??0?$EPASupportMapPairLocalImpl@VTriangleV@Gu@physx@@VConvexHullV@23@@Gu@physx@@QEAA@AEBVTriangleV@12@AEBVConvexHullV@12@@Z 0000000180098af0 f i GuEPAPenetrationWrapper.obj
 0001:00097b60       ??0?$EPASupportMapPairRelativeImpl@VBoxV@Gu@physx@@V123@@Gu@physx@@QEAA@AEBVBoxV@12@0AEBVPsMatTransformV@aos@shdfnd@2@@Z 0000000180098b60 f i GuEPAPenetrationWrapper.obj
 0001:00097be0       ??0?$EPASupportMapPairRelativeImpl@VBoxV@Gu@physx@@VConvexHullV@23@@Gu@physx@@QEAA@AEBVBoxV@12@AEBVConvexHullV@12@AEBVPsMatTransformV@aos@shdfnd@2@@Z 0000000180098be0 f i GuEPAPenetrationWrapper.obj
 0001:00097c60       ??0?$EPASupportMapPairRelativeImpl@VConvexHullNoScaleV@Gu@physx@@V123@@Gu@physx@@QEAA@AEBVConvexHullNoScaleV@12@0AEBVPsMatTransformV@aos@shdfnd@2@@Z 0000000180098c60 f i GuEPAPenetrationWrapper.obj
 0001:00097ce0       ??0?$EPASupportMapPairRelativeImpl@VConvexHullNoScaleV@Gu@physx@@VConvexHullV@23@@Gu@physx@@QEAA@AEBVConvexHullNoScaleV@12@AEBVConvexHullV@12@AEBVPsMatTransformV@aos@shdfnd@2@@Z 0000000180098ce0 f i GuEPAPenetrationWrapper.obj
 0001:00097d60       ??0?$EPASupportMapPairRelativeImpl@VConvexHullV@Gu@physx@@V123@@Gu@physx@@QEAA@AEBVConvexHullV@12@0AEBVPsMatTransformV@aos@shdfnd@2@@Z 0000000180098d60 f i GuEPAPenetrationWrapper.obj
 0001:00097de0       ??0?$EPASupportMapPairRelativeImpl@VConvexHullV@Gu@physx@@VConvexHullNoScaleV@23@@Gu@physx@@QEAA@AEBVConvexHullV@12@AEBVConvexHullNoScaleV@12@AEBVPsMatTransformV@aos@shdfnd@2@@Z 0000000180098de0 f i GuEPAPenetrationWrapper.obj
 0001:00097e60       ??0EPASupportMapPair@Gu@physx@@QEAA@XZ 0000000180098e60 f i GuEPAPenetrationWrapper.obj
 0001:00097e80       ??1?$EPASupportMapPairLocalImpl@VCapsuleV@Gu@physx@@VBoxV@23@@Gu@physx@@UEAA@XZ 0000000180098e80 f i GuEPAPenetrationWrapper.obj
 0001:00097ea0       ??1?$EPASupportMapPairLocalImpl@VCapsuleV@Gu@physx@@VConvexHullV@23@@Gu@physx@@UEAA@XZ 0000000180098ea0 f i GuEPAPenetrationWrapper.obj
 0001:00097ec0       ??1?$EPASupportMapPairLocalImpl@VTriangleV@Gu@physx@@VBoxV@23@@Gu@physx@@UEAA@XZ 0000000180098ec0 f i GuEPAPenetrationWrapper.obj
 0001:00097ee0       ??1?$EPASupportMapPairLocalImpl@VTriangleV@Gu@physx@@VConvexHullV@23@@Gu@physx@@UEAA@XZ 0000000180098ee0 f i GuEPAPenetrationWrapper.obj
 0001:00097f00       ??1?$EPASupportMapPairRelativeImpl@VBoxV@Gu@physx@@V123@@Gu@physx@@UEAA@XZ 0000000180098f00 f i GuEPAPenetrationWrapper.obj
 0001:00097f20       ??1?$EPASupportMapPairRelativeImpl@VBoxV@Gu@physx@@VConvexHullV@23@@Gu@physx@@UEAA@XZ 0000000180098f20 f i GuEPAPenetrationWrapper.obj
 0001:00097f40       ??1?$EPASupportMapPairRelativeImpl@VConvexHullNoScaleV@Gu@physx@@V123@@Gu@physx@@UEAA@XZ 0000000180098f40 f i GuEPAPenetrationWrapper.obj
 0001:00097f60       ??1?$EPASupportMapPairRelativeImpl@VConvexHullNoScaleV@Gu@physx@@VConvexHullV@23@@Gu@physx@@UEAA@XZ 0000000180098f60 f i GuEPAPenetrationWrapper.obj
 0001:00097f80       ??1?$EPASupportMapPairRelativeImpl@VConvexHullV@Gu@physx@@V123@@Gu@physx@@UEAA@XZ 0000000180098f80 f i GuEPAPenetrationWrapper.obj
 0001:00097fa0       ??1?$EPASupportMapPairRelativeImpl@VConvexHullV@Gu@physx@@VConvexHullNoScaleV@23@@Gu@physx@@UEAA@XZ 0000000180098fa0 f i GuEPAPenetrationWrapper.obj
 0001:00097fc0       ??1EPASupportMapPair@Gu@physx@@UEAA@XZ 0000000180098fc0 f i GuEPAPenetrationWrapper.obj
 0001:00097fe0       ??_E?$EPASupportMapPairLocalImpl@VCapsuleV@Gu@physx@@VBoxV@23@@Gu@physx@@UEAAPEAXI@Z 0000000180098fe0 f i GuEPAPenetrationWrapper.obj
 0001:00097fe0       ??_G?$EPASupportMapPairLocalImpl@VCapsuleV@Gu@physx@@VBoxV@23@@Gu@physx@@UEAAPEAXI@Z 0000000180098fe0 f i GuEPAPenetrationWrapper.obj
 0001:00098030       ??_E?$EPASupportMapPairLocalImpl@VCapsuleV@Gu@physx@@VConvexHullV@23@@Gu@physx@@UEAAPEAXI@Z 0000000180099030 f i GuEPAPenetrationWrapper.obj
 0001:00098030       ??_G?$EPASupportMapPairLocalImpl@VCapsuleV@Gu@physx@@VConvexHullV@23@@Gu@physx@@UEAAPEAXI@Z 0000000180099030 f i GuEPAPenetrationWrapper.obj
 0001:00098080       ??_G?$EPASupportMapPairLocalImpl@VTriangleV@Gu@physx@@VBoxV@23@@Gu@physx@@UEAAPEAXI@Z 0000000180099080 f i GuEPAPenetrationWrapper.obj
 0001:00098080       ??_E?$EPASupportMapPairLocalImpl@VTriangleV@Gu@physx@@VBoxV@23@@Gu@physx@@UEAAPEAXI@Z 0000000180099080 f i GuEPAPenetrationWrapper.obj
 0001:000980d0       ??_G?$EPASupportMapPairLocalImpl@VTriangleV@Gu@physx@@VConvexHullV@23@@Gu@physx@@UEAAPEAXI@Z 00000001800990d0 f i GuEPAPenetrationWrapper.obj
 0001:000980d0       ??_E?$EPASupportMapPairLocalImpl@VTriangleV@Gu@physx@@VConvexHullV@23@@Gu@physx@@UEAAPEAXI@Z 00000001800990d0 f i GuEPAPenetrationWrapper.obj
 0001:00098120       ??_E?$EPASupportMapPairRelativeImpl@VBoxV@Gu@physx@@V123@@Gu@physx@@UEAAPEAXI@Z 0000000180099120 f i GuEPAPenetrationWrapper.obj
 0001:00098120       ??_G?$EPASupportMapPairRelativeImpl@VBoxV@Gu@physx@@V123@@Gu@physx@@UEAAPEAXI@Z 0000000180099120 f i GuEPAPenetrationWrapper.obj
 0001:00098170       ??_E?$EPASupportMapPairRelativeImpl@VBoxV@Gu@physx@@VConvexHullV@23@@Gu@physx@@UEAAPEAXI@Z 0000000180099170 f i GuEPAPenetrationWrapper.obj
 0001:00098170       ??_G?$EPASupportMapPairRelativeImpl@VBoxV@Gu@physx@@VConvexHullV@23@@Gu@physx@@UEAAPEAXI@Z 0000000180099170 f i GuEPAPenetrationWrapper.obj
 0001:000981c0       ??_G?$EPASupportMapPairRelativeImpl@VConvexHullNoScaleV@Gu@physx@@V123@@Gu@physx@@UEAAPEAXI@Z 00000001800991c0 f i GuEPAPenetrationWrapper.obj
 0001:000981c0       ??_E?$EPASupportMapPairRelativeImpl@VConvexHullNoScaleV@Gu@physx@@V123@@Gu@physx@@UEAAPEAXI@Z 00000001800991c0 f i GuEPAPenetrationWrapper.obj
 0001:00098210       ??_G?$EPASupportMapPairRelativeImpl@VConvexHullNoScaleV@Gu@physx@@VConvexHullV@23@@Gu@physx@@UEAAPEAXI@Z 0000000180099210 f i GuEPAPenetrationWrapper.obj
 0001:00098210       ??_E?$EPASupportMapPairRelativeImpl@VConvexHullNoScaleV@Gu@physx@@VConvexHullV@23@@Gu@physx@@UEAAPEAXI@Z 0000000180099210 f i GuEPAPenetrationWrapper.obj
 0001:00098260       ??_G?$EPASupportMapPairRelativeImpl@VConvexHullV@Gu@physx@@V123@@Gu@physx@@UEAAPEAXI@Z 0000000180099260 f i GuEPAPenetrationWrapper.obj
 0001:00098260       ??_E?$EPASupportMapPairRelativeImpl@VConvexHullV@Gu@physx@@V123@@Gu@physx@@UEAAPEAXI@Z 0000000180099260 f i GuEPAPenetrationWrapper.obj
 0001:000982b0       ??_G?$EPASupportMapPairRelativeImpl@VConvexHullV@Gu@physx@@VConvexHullNoScaleV@23@@Gu@physx@@UEAAPEAXI@Z 00000001800992b0 f i GuEPAPenetrationWrapper.obj
 0001:000982b0       ??_E?$EPASupportMapPairRelativeImpl@VConvexHullV@Gu@physx@@VConvexHullNoScaleV@23@@Gu@physx@@UEAAPEAXI@Z 00000001800992b0 f i GuEPAPenetrationWrapper.obj
 0001:00098300       ??_EEPASupportMapPair@Gu@physx@@UEAAPEAXI@Z 0000000180099300 f i GuEPAPenetrationWrapper.obj
 0001:00098300       ??_GEPASupportMapPair@Gu@physx@@UEAAPEAXI@Z 0000000180099300 f i GuEPAPenetrationWrapper.obj
 0001:00098350       ?BruteForceSearch@ConvexHullV@Gu@physx@@QEBAIAEBT__m128@@@Z 0000000180099350 f i GuEPAPenetrationWrapper.obj
 0001:00098560       ?HillClimbing@ConvexHullV@Gu@physx@@QEBAIAEBT__m128@@@Z 0000000180099560 f i GuEPAPenetrationWrapper.obj
 0001:00098970       ?M33MulV3@aos@shdfnd@physx@@YA?AT__m128@@AEBUMat33V@123@T4@@Z 0000000180099970 f i GuEPAPenetrationWrapper.obj
 0001:00098c20       ?M33TrnspsMulV3@aos@shdfnd@physx@@YA?AT__m128@@AEBUMat33V@123@T4@@Z 0000000180099c20 f i GuEPAPenetrationWrapper.obj
 0001:00098e10       ?V3IsGrtr@aos@shdfnd@physx@@YA?AT__m128@@T4@0@Z 0000000180099e10 f i GuEPAPenetrationWrapper.obj
 0001:00098e50       ?V3Transpose@aos@shdfnd@physx@@YAXAEAT__m128@@00@Z 0000000180099e50 f i GuEPAPenetrationWrapper.obj
 0001:00098fe0       ?doSupport@?$EPASupportMapPairLocalImpl@VCapsuleV@Gu@physx@@VBoxV@23@@Gu@physx@@UEBAXAEBT__m128@@AEAT4@11@Z 0000000180099fe0 f i GuEPAPenetrationWrapper.obj
 0001:000990f0       ?doSupport@?$EPASupportMapPairLocalImpl@VCapsuleV@Gu@physx@@VConvexHullV@23@@Gu@physx@@UEBAXAEBT__m128@@AEAT4@11@Z 000000018009a0f0 f i GuEPAPenetrationWrapper.obj
 0001:00099200       ?doSupport@?$EPASupportMapPairLocalImpl@VTriangleV@Gu@physx@@VBoxV@23@@Gu@physx@@UEBAXAEBT__m128@@AEAT4@11@Z 000000018009a200 f i GuEPAPenetrationWrapper.obj
 0001:00099310       ?doSupport@?$EPASupportMapPairLocalImpl@VTriangleV@Gu@physx@@VConvexHullV@23@@Gu@physx@@UEBAXAEBT__m128@@AEAT4@11@Z 000000018009a310 f i GuEPAPenetrationWrapper.obj
 0001:00099420       ?doSupport@?$EPASupportMapPairRelativeImpl@VBoxV@Gu@physx@@V123@@Gu@physx@@UEBAXAEBT__m128@@AEAT4@11@Z 000000018009a420 f i GuEPAPenetrationWrapper.obj
 0001:00099540       ?doSupport@?$EPASupportMapPairRelativeImpl@VBoxV@Gu@physx@@VConvexHullV@23@@Gu@physx@@UEBAXAEBT__m128@@AEAT4@11@Z 000000018009a540 f i GuEPAPenetrationWrapper.obj
 0001:00099660       ?doSupport@?$EPASupportMapPairRelativeImpl@VConvexHullNoScaleV@Gu@physx@@V123@@Gu@physx@@UEBAXAEBT__m128@@AEAT4@11@Z 000000018009a660 f i GuEPAPenetrationWrapper.obj
 0001:00099780       ?doSupport@?$EPASupportMapPairRelativeImpl@VConvexHullNoScaleV@Gu@physx@@VConvexHullV@23@@Gu@physx@@UEBAXAEBT__m128@@AEAT4@11@Z 000000018009a780 f i GuEPAPenetrationWrapper.obj
 0001:000998a0       ?doSupport@?$EPASupportMapPairRelativeImpl@VConvexHullV@Gu@physx@@V123@@Gu@physx@@UEBAXAEBT__m128@@AEAT4@11@Z 000000018009a8a0 f i GuEPAPenetrationWrapper.obj
 0001:000999c0       ?doSupport@?$EPASupportMapPairRelativeImpl@VConvexHullV@Gu@physx@@VConvexHullNoScaleV@23@@Gu@physx@@UEBAXAEBT__m128@@AEAT4@11@Z 000000018009a9c0 f i GuEPAPenetrationWrapper.obj
 0001:00099ae0       ?doWarmStartSupport@?$EPASupportMapPairLocalImpl@VCapsuleV@Gu@physx@@VBoxV@23@@Gu@physx@@UEBAXHHAEAT__m128@@00@Z 000000018009aae0 f i GuEPAPenetrationWrapper.obj
 0001:00099bc0       ?doWarmStartSupport@?$EPASupportMapPairLocalImpl@VCapsuleV@Gu@physx@@VConvexHullV@23@@Gu@physx@@UEBAXHHAEAT__m128@@00@Z 000000018009abc0 f i GuEPAPenetrationWrapper.obj
 0001:00099ca0       ?doWarmStartSupport@?$EPASupportMapPairLocalImpl@VTriangleV@Gu@physx@@VBoxV@23@@Gu@physx@@UEBAXHHAEAT__m128@@00@Z 000000018009aca0 f i GuEPAPenetrationWrapper.obj
 0001:00099d80       ?doWarmStartSupport@?$EPASupportMapPairLocalImpl@VTriangleV@Gu@physx@@VConvexHullV@23@@Gu@physx@@UEBAXHHAEAT__m128@@00@Z 000000018009ad80 f i GuEPAPenetrationWrapper.obj
 0001:00099e60       ?doWarmStartSupport@?$EPASupportMapPairRelativeImpl@VBoxV@Gu@physx@@V123@@Gu@physx@@UEBAXHHAEAT__m128@@00@Z 000000018009ae60 f i GuEPAPenetrationWrapper.obj
 0001:00099f70       ?doWarmStartSupport@?$EPASupportMapPairRelativeImpl@VBoxV@Gu@physx@@VConvexHullV@23@@Gu@physx@@UEBAXHHAEAT__m128@@00@Z 000000018009af70 f i GuEPAPenetrationWrapper.obj
 0001:0009a080       ?doWarmStartSupport@?$EPASupportMapPairRelativeImpl@VConvexHullNoScaleV@Gu@physx@@V123@@Gu@physx@@UEBAXHHAEAT__m128@@00@Z 000000018009b080 f i GuEPAPenetrationWrapper.obj
 0001:0009a190       ?doWarmStartSupport@?$EPASupportMapPairRelativeImpl@VConvexHullNoScaleV@Gu@physx@@VConvexHullV@23@@Gu@physx@@UEBAXHHAEAT__m128@@00@Z 000000018009b190 f i GuEPAPenetrationWrapper.obj
 0001:0009a2a0       ?doWarmStartSupport@?$EPASupportMapPairRelativeImpl@VConvexHullV@Gu@physx@@V123@@Gu@physx@@UEBAXHHAEAT__m128@@00@Z 000000018009b2a0 f i GuEPAPenetrationWrapper.obj
 0001:0009a3b0       ?doWarmStartSupport@?$EPASupportMapPairRelativeImpl@VConvexHullV@Gu@physx@@VConvexHullNoScaleV@23@@Gu@physx@@UEBAXHHAEAT__m128@@00@Z 000000018009b3b0 f i GuEPAPenetrationWrapper.obj
 0001:0009a4c0       ?getDir@?$EPASupportMapPairLocalImpl@VCapsuleV@Gu@physx@@VBoxV@23@@Gu@physx@@UEBA?AT__m128@@XZ 000000018009b4c0 f i GuEPAPenetrationWrapper.obj
 0001:0009a560       ?getDir@?$EPASupportMapPairLocalImpl@VCapsuleV@Gu@physx@@VConvexHullV@23@@Gu@physx@@UEBA?AT__m128@@XZ 000000018009b560 f i GuEPAPenetrationWrapper.obj
 0001:0009a600       ?getDir@?$EPASupportMapPairLocalImpl@VTriangleV@Gu@physx@@VBoxV@23@@Gu@physx@@UEBA?AT__m128@@XZ 000000018009b600 f i GuEPAPenetrationWrapper.obj
 0001:0009a6a0       ?getDir@?$EPASupportMapPairLocalImpl@VTriangleV@Gu@physx@@VConvexHullV@23@@Gu@physx@@UEBA?AT__m128@@XZ 000000018009b6a0 f i GuEPAPenetrationWrapper.obj
 0001:0009a740       ?getDir@?$EPASupportMapPairRelativeImpl@VBoxV@Gu@physx@@V123@@Gu@physx@@UEBA?AT__m128@@XZ 000000018009b740 f i GuEPAPenetrationWrapper.obj
 0001:0009a770       ?getDir@?$EPASupportMapPairRelativeImpl@VBoxV@Gu@physx@@VConvexHullV@23@@Gu@physx@@UEBA?AT__m128@@XZ 000000018009b770 f i GuEPAPenetrationWrapper.obj
 0001:0009a7a0       ?getDir@?$EPASupportMapPairRelativeImpl@VConvexHullNoScaleV@Gu@physx@@V123@@Gu@physx@@UEBA?AT__m128@@XZ 000000018009b7a0 f i GuEPAPenetrationWrapper.obj
 0001:0009a7d0       ?getDir@?$EPASupportMapPairRelativeImpl@VConvexHullNoScaleV@Gu@physx@@VConvexHullV@23@@Gu@physx@@UEBA?AT__m128@@XZ 000000018009b7d0 f i GuEPAPenetrationWrapper.obj
 0001:0009a800       ?getDir@?$EPASupportMapPairRelativeImpl@VConvexHullV@Gu@physx@@V123@@Gu@physx@@UEBA?AT__m128@@XZ 000000018009b800 f i GuEPAPenetrationWrapper.obj
 0001:0009a830       ?getDir@?$EPASupportMapPairRelativeImpl@VConvexHullV@Gu@physx@@VConvexHullNoScaleV@23@@Gu@physx@@UEBA?AT__m128@@XZ 000000018009b830 f i GuEPAPenetrationWrapper.obj
 0001:0009a860       ?rotateInv@PsMatTransformV@aos@shdfnd@physx@@QEBA?AT__m128@@AEBT5@@Z 000000018009b860 f i GuEPAPenetrationWrapper.obj
 0001:0009a8d0       ?supportLocal@BoxV@Gu@physx@@QEBA?AT__m128@@AEBT4@@Z 000000018009b8d0 f i GuEPAPenetrationWrapper.obj
 0001:0009aa00       ?supportLocal@CapsuleV@Gu@physx@@QEBA?AT__m128@@AEBT4@@Z 000000018009ba00 f i GuEPAPenetrationWrapper.obj
 0001:0009abb0       ?supportLocal@ConvexHullNoScaleV@Gu@physx@@QEBA?AT__m128@@AEBT4@@Z 000000018009bbb0 f i GuEPAPenetrationWrapper.obj
 0001:0009ac30       ?supportLocal@ConvexHullV@Gu@physx@@QEBA?AT__m128@@AEBT4@@Z 000000018009bc30 f i GuEPAPenetrationWrapper.obj
 0001:0009ad40       ?supportLocal@TriangleV@Gu@physx@@QEBA?AT__m128@@AEBT4@@Z 000000018009bd40 f i GuEPAPenetrationWrapper.obj
 0001:0009b110       ?supportPoint@BoxV@Gu@physx@@QEBA?AT__m128@@H@Z 000000018009c110 f i GuEPAPenetrationWrapper.obj
 0001:0009b200       ?supportPoint@CapsuleV@Gu@physx@@QEBA?AT__m128@@H@Z 000000018009c200 f i GuEPAPenetrationWrapper.obj
 0001:0009b250       ?supportPoint@ConvexHullNoScaleV@Gu@physx@@QEBA?AT__m128@@H@Z 000000018009c250 f i GuEPAPenetrationWrapper.obj
 0001:0009b2b0       ?supportPoint@ConvexHullV@Gu@physx@@QEBA?AT__m128@@H@Z 000000018009c2b0 f i GuEPAPenetrationWrapper.obj
 0001:0009b340       ?supportPoint@TriangleV@Gu@physx@@QEBA?AT__m128@@H@Z 000000018009c340 f i GuEPAPenetrationWrapper.obj
 0001:0009b380       ?supportRelative@BoxV@Gu@physx@@QEBA?AT__m128@@AEBT4@AEBVPsMatTransformV@aos@shdfnd@3@@Z 000000018009c380 f i GuEPAPenetrationWrapper.obj
 0001:0009b400       ?supportRelative@ConvexHullNoScaleV@Gu@physx@@QEBA?AT__m128@@AEBT4@AEBVPsMatTransformV@aos@shdfnd@3@@Z 000000018009c400 f i GuEPAPenetrationWrapper.obj
 0001:0009b480       ?supportRelative@ConvexHullV@Gu@physx@@QEBA?AT__m128@@AEBT4@AEBVPsMatTransformV@aos@shdfnd@3@@Z 000000018009c480 f i GuEPAPenetrationWrapper.obj
 0001:0009b500       ?supportVertexIndex@ConvexHullV@Gu@physx@@QEBAIAEBT__m128@@@Z 000000018009c500 f i GuEPAPenetrationWrapper.obj
 0001:0009b560       ?transform@PsMatTransformV@aos@shdfnd@physx@@QEBA?AT__m128@@AEBT5@@Z 000000018009c560 f i GuEPAPenetrationWrapper.obj
 0001:0009b610       ?gjkRelativeFallback@Gu@physx@@YAIAEBVConvexV@12@0PEAVSupportMap@12@1AEBT__m128@@AEAT5@333@Z 000000018009c610 f   GuGJKFallBack.obj
 0001:0009c040       ?doSupportMappingPair@Gu@physx@@YA?AT__m128@@AEBVConvexV@12@0PEAVSupportMap@12@1T3@PEAT3@33IAEAUSimplexStack@12@@Z 000000018009d040 f   GuGJKFallBack.obj
 0001:0009cc20       ?GJKCPairDoSimplexTesselation@Gu@physx@@YA?AT__m128@@PEIAT3@00AEBT3@11AEAIAEAT3@3@Z 000000018009dc20 f i GuGJKFallBack.obj
 0001:0009cf30       ?V3Abs@aos@shdfnd@physx@@YA?AT__m128@@T4@@Z 000000018009df30 f i GuGJKFallBack.obj
 0001:0009cfb0       ?V3Max@aos@shdfnd@physx@@YA?AT__m128@@T4@0@Z 000000018009dfb0 f i GuGJKFallBack.obj
 0001:0009cff0       ?Vec3V_From_FloatV@aos@shdfnd@physx@@YA?AT__m128@@T4@@Z 000000018009dff0 f i GuGJKFallBack.obj
 0001:0009d050       ?Vec4V_From_FloatV@aos@shdfnd@physx@@YA?AT__m128@@T4@@Z 000000018009e050 f i GuGJKFallBack.obj
 0001:0009d070       ?pushSimplex@SimplexStack@Gu@physx@@QEAAXPEAT__m128@@00I@Z 000000018009e070 f i GuGJKFallBack.obj
 0001:0009d260       ?GJKLocalPenetration@Gu@physx@@YAIAEBVCapsuleV@12@AEBVBoxV@12@AEBT__m128@@AEAT5@333PEIAE4AEAE_N@Z 000000018009e260 f   GuGJKPenetrationWrapper.obj
 0001:0009d300       ?GJKLocalPenetration@Gu@physx@@YAIAEBVCapsuleV@12@AEBVShrunkBoxV@12@AEBT__m128@@AEAT5@333PEIAE4AEAE_N@Z 000000018009e300 f   GuGJKPenetrationWrapper.obj
 0001:0009d3a0       ?GJKLocalPenetration@Gu@physx@@YAIAEBVCapsuleV@12@AEBVConvexHullV@12@AEBT__m128@@AEAT5@333PEIAE4AEAE_N@Z 000000018009e3a0 f   GuGJKPenetrationWrapper.obj
 0001:0009d440       ?GJKLocalPenetration@Gu@physx@@YAIAEBVCapsuleV@12@AEBVConvexHullNoScaleV@12@AEBT__m128@@AEAT5@333PEIAE4AEAE_N@Z 000000018009e440 f   GuGJKPenetrationWrapper.obj
 0001:0009d4e0       ?GJKLocalPenetration@Gu@physx@@YAIAEBVCapsuleV@12@AEBVShrunkConvexHullV@12@AEBT__m128@@AEAT5@333PEIAE4AEAE_N@Z 000000018009e4e0 f   GuGJKPenetrationWrapper.obj
 0001:0009d580       ?GJKLocalPenetration@Gu@physx@@YAIAEBVCapsuleV@12@AEBVShrunkConvexHullNoScaleV@12@AEBT__m128@@AEAT5@333PEIAE4AEAE_N@Z 000000018009e580 f   GuGJKPenetrationWrapper.obj
 0001:0009d620       ?GJKLocalPenetration@Gu@physx@@YAIAEBVTriangleV@12@AEBVBoxV@12@AEBT__m128@@AEAT5@333PEIAE4AEAE_N@Z 000000018009e620 f   GuGJKPenetrationWrapper.obj
 0001:0009d6c0       ?GJKLocalPenetration@Gu@physx@@YAIAEBVTriangleV@12@AEBVConvexHullV@12@AEBT__m128@@AEAT5@333PEIAE4AEAE_N@Z 000000018009e6c0 f   GuGJKPenetrationWrapper.obj
 0001:0009d760       ?GJKLocalPenetration@Gu@physx@@YAIAEBVTriangleV@12@AEBVConvexHullNoScaleV@12@AEBT__m128@@AEAT5@333PEIAE4AEAE_N@Z 000000018009e760 f   GuGJKPenetrationWrapper.obj
 0001:0009d800       ?GJKLocalPenetration@Gu@physx@@YAIAEBVTriangleV@12@0AEBT__m128@@AEAT4@222PEIAE3AEAE_N@Z 000000018009e800 f   GuGJKPenetrationWrapper.obj
 0001:0009d8a0       ?GJKRelativePenetration@Gu@physx@@YAIAEBVBoxV@12@0AEBVPsMatTransformV@aos@shdfnd@2@AEBT__m128@@AEAT7@333PEIAE4AEAE@Z 000000018009e8a0 f   GuGJKPenetrationWrapper.obj
 0001:0009d940       ?GJKRelativePenetration@Gu@physx@@YAIAEBVBoxV@12@AEBVConvexHullV@12@AEBVPsMatTransformV@aos@shdfnd@2@AEBT__m128@@AEAT8@444PEIAE5AEAE@Z 000000018009e940 f   GuGJKPenetrationWrapper.obj
 0001:0009d9e0       ?GJKRelativePenetration@Gu@physx@@YAIAEBVShrunkBoxV@12@0AEBVPsMatTransformV@aos@shdfnd@2@AEBT__m128@@AEAT7@333PEIAE4AEAE@Z 000000018009e9e0 f   GuGJKPenetrationWrapper.obj
 0001:0009da80       ?GJKRelativePenetration@Gu@physx@@YAIAEBVShrunkBoxV@12@AEBVShrunkConvexHullV@12@AEBVPsMatTransformV@aos@shdfnd@2@AEBT__m128@@AEAT8@444PEIAE5AEAE@Z 000000018009ea80 f   GuGJKPenetrationWrapper.obj
 0001:0009db20       ?GJKRelativePenetration@Gu@physx@@YAIAEBVShrunkBoxV@12@AEBVShrunkConvexHullNoScaleV@12@AEBVPsMatTransformV@aos@shdfnd@2@AEBT__m128@@AEAT8@444PEIAE5AEAE@Z 000000018009eb20 f   GuGJKPenetrationWrapper.obj
 0001:0009dbc0       ?GJKRelativePenetration@Gu@physx@@YAIAEBVConvexHullV@12@0AEBVPsMatTransformV@aos@shdfnd@2@AEBT__m128@@AEAT7@333PEIAE4AEAE@Z 000000018009ebc0 f   GuGJKPenetrationWrapper.obj
 0001:0009dc60       ?GJKRelativePenetration@Gu@physx@@YAIAEBVShrunkConvexHullV@12@0AEBVPsMatTransformV@aos@shdfnd@2@AEBT__m128@@AEAT7@333PEIAE4AEAE@Z 000000018009ec60 f   GuGJKPenetrationWrapper.obj
 0001:0009dd00       ?GJKRelativePenetration@Gu@physx@@YAIAEBVShrunkConvexHullNoScaleV@12@0AEBVPsMatTransformV@aos@shdfnd@2@AEBT__m128@@AEAT7@333PEIAE4AEAE@Z 000000018009ed00 f   GuGJKPenetrationWrapper.obj
 0001:0009dda0       ?GJKRelativePenetration@Gu@physx@@YAIAEBVShrunkConvexHullNoScaleV@12@AEBVShrunkConvexHullV@12@AEBVPsMatTransformV@aos@shdfnd@2@AEBT__m128@@AEAT8@444PEIAE5AEAE@Z 000000018009eda0 f   GuGJKPenetrationWrapper.obj
 0001:0009de40       ?GJKRelativePenetration@Gu@physx@@YAIAEBVShrunkConvexHullV@12@AEBVShrunkConvexHullNoScaleV@12@AEBVPsMatTransformV@aos@shdfnd@2@AEBT__m128@@AEAT8@444PEIAE5AEAE@Z 000000018009ee40 f   GuGJKPenetrationWrapper.obj
 0001:0009dee0       ?GJKRelativePenetration@Gu@physx@@YAIAEBVTriangleV@12@AEBVBoxV@12@AEBVPsMatTransformV@aos@shdfnd@2@AEBT__m128@@AEAT8@444@Z 000000018009eee0 f   GuGJKPenetrationWrapper.obj
 0001:0009df80       ?GJKRelativePenetration@Gu@physx@@YAIAEBVTriangleV@12@AEBVCapsuleV@12@AEBVPsMatTransformV@aos@shdfnd@2@AEBT__m128@@AEAT8@444@Z 000000018009ef80 f   GuGJKPenetrationWrapper.obj
 0001:0009e020       ?GJKRelativePenetration@Gu@physx@@YAIAEBVTriangleV@12@AEBVConvexHullV@12@AEBVPsMatTransformV@aos@shdfnd@2@AEBT__m128@@AEAT8@444@Z 000000018009f020 f   GuGJKPenetrationWrapper.obj
 0001:0009e0c0       ?GJKRelativePenetration@Gu@physx@@YAIAEBVCapsuleV@12@0AEBVPsMatTransformV@aos@shdfnd@2@AEBT__m128@@AEAT7@333@Z 000000018009f0c0 f   GuGJKPenetrationWrapper.obj
 0001:0009e160       ?GJKRelativePenetration@Gu@physx@@YAIAEBVCapsuleV@12@AEBVBoxV@12@AEBVPsMatTransformV@aos@shdfnd@2@AEBT__m128@@AEAT8@444@Z 000000018009f160 f   GuGJKPenetrationWrapper.obj
 0001:0009e200       ?GJKRelativePenetration@Gu@physx@@YAIAEBVCapsuleV@12@AEBVConvexHullV@12@AEBVPsMatTransformV@aos@shdfnd@2@AEBT__m128@@AEAT8@444@Z 000000018009f200 f   GuGJKPenetrationWrapper.obj
 0001:0009e2a0       ?GJKRelativePenetration@Gu@physx@@YAIAEBVBoxV@12@0AEBVPsMatTransformV@aos@shdfnd@2@AEBT__m128@@AEAT7@333@Z 000000018009f2a0 f   GuGJKPenetrationWrapper.obj
 0001:0009e340       ?GJKRelativePenetration@Gu@physx@@YAIAEBVBoxV@12@AEBVConvexHullV@12@AEBVPsMatTransformV@aos@shdfnd@2@AEBT__m128@@AEAT8@444@Z 000000018009f340 f   GuGJKPenetrationWrapper.obj
 0001:0009e3e0       ?GJKRelativePenetration@Gu@physx@@YAIAEBVConvexHullV@12@0AEBVPsMatTransformV@aos@shdfnd@2@AEBT__m128@@AEAT7@333@Z 000000018009f3e0 f   GuGJKPenetrationWrapper.obj
 0001:0009e480       ?GJKRelativePenetration@Gu@physx@@YAIAEBVShrunkConvexHullV@12@0AEBVPsMatTransformV@aos@shdfnd@2@AEBT__m128@@AEAT7@333@Z 000000018009f480 f   GuGJKPenetrationWrapper.obj
 0001:0009e9d0       ??$gjkLocalPenetration@VCapsuleV@Gu@physx@@VBoxV@23@@Gu@physx@@YAIAEBVCapsuleV@01@AEBVBoxV@01@AEBT__m128@@AEAT4@333PEIAE4AEAE_N@Z 000000018009f9d0 f i GuGJKPenetrationWrapper.obj
 0001:000a0b50       ??$gjkLocalPenetration@VCapsuleV@Gu@physx@@VConvexHullNoScaleV@23@@Gu@physx@@YAIAEBVCapsuleV@01@AEBVConvexHullNoScaleV@01@AEBT__m128@@AEAT4@333PEIAE4AEAE_N@Z 00000001800a1b50 f i GuGJKPenetrationWrapper.obj
 0001:000a2cd0       ??$gjkLocalPenetration@VCapsuleV@Gu@physx@@VConvexHullV@23@@Gu@physx@@YAIAEBVCapsuleV@01@AEBVConvexHullV@01@AEBT__m128@@AEAT4@333PEIAE4AEAE_N@Z 00000001800a3cd0 f i GuGJKPenetrationWrapper.obj
 0001:000a4e50       ??$gjkLocalPenetration@VCapsuleV@Gu@physx@@VShrunkBoxV@23@@Gu@physx@@YAIAEBVCapsuleV@01@AEBVShrunkBoxV@01@AEBT__m128@@AEAT4@333PEIAE4AEAE_N@Z 00000001800a5e50 f i GuGJKPenetrationWrapper.obj
 0001:000a6fd0       ??$gjkLocalPenetration@VCapsuleV@Gu@physx@@VShrunkConvexHullNoScaleV@23@@Gu@physx@@YAIAEBVCapsuleV@01@AEBVShrunkConvexHullNoScaleV@01@AEBT__m128@@AEAT4@333PEIAE4AEAE_N@Z 00000001800a7fd0 f i GuGJKPenetrationWrapper.obj
 0001:000a9150       ??$gjkLocalPenetration@VCapsuleV@Gu@physx@@VShrunkConvexHullV@23@@Gu@physx@@YAIAEBVCapsuleV@01@AEBVShrunkConvexHullV@01@AEBT__m128@@AEAT4@333PEIAE4AEAE_N@Z 00000001800aa150 f i GuGJKPenetrationWrapper.obj
 0001:000ab2d0       ??$gjkLocalPenetration@VTriangleV@Gu@physx@@V123@@Gu@physx@@YAIAEBVTriangleV@01@0AEBT__m128@@AEAT3@222PEIAE3AEAE_N@Z 00000001800ac2d0 f i GuGJKPenetrationWrapper.obj
 0001:000ad450       ??$gjkLocalPenetration@VTriangleV@Gu@physx@@VBoxV@23@@Gu@physx@@YAIAEBVTriangleV@01@AEBVBoxV@01@AEBT__m128@@AEAT4@333PEIAE4AEAE_N@Z 00000001800ae450 f i GuGJKPenetrationWrapper.obj
 0001:000af5d0       ??$gjkLocalPenetration@VTriangleV@Gu@physx@@VConvexHullNoScaleV@23@@Gu@physx@@YAIAEBVTriangleV@01@AEBVConvexHullNoScaleV@01@AEBT__m128@@AEAT4@333PEIAE4AEAE_N@Z 00000001800b05d0 f i GuGJKPenetrationWrapper.obj
 0001:000b1750       ??$gjkLocalPenetration@VTriangleV@Gu@physx@@VConvexHullV@23@@Gu@physx@@YAIAEBVTriangleV@01@AEBVConvexHullV@01@AEBT__m128@@AEAT4@333PEIAE4AEAE_N@Z 00000001800b2750 f i GuGJKPenetrationWrapper.obj
 0001:000b38d0       ??$gjkRelativePenetration@VBoxV@Gu@physx@@V123@@Gu@physx@@YAIAEBVBoxV@01@0AEBVPsMatTransformV@aos@shdfnd@1@AEBT__m128@@AEAT6@333PEIAE4AEAE@Z 00000001800b48d0 f i GuGJKPenetrationWrapper.obj
 0001:000b5260       ??$gjkRelativePenetration@VBoxV@Gu@physx@@VConvexHullV@23@@Gu@physx@@YAIAEBVBoxV@01@AEBVConvexHullV@01@AEBVPsMatTransformV@aos@shdfnd@1@AEBT__m128@@AEAT7@444PEIAE5AEAE@Z 00000001800b6260 f i GuGJKPenetrationWrapper.obj
 0001:000b6bf0       ??$gjkRelativePenetration@VCapsuleV@Gu@physx@@V123@@Gu@physx@@YAIAEBVCapsuleV@01@0AEBVPsMatTransformV@aos@shdfnd@1@AEBT__m128@@AEAT6@333PEIAE4AEAE@Z 00000001800b7bf0 f i GuGJKPenetrationWrapper.obj
 0001:000b8580       ??$gjkRelativePenetration@VCapsuleV@Gu@physx@@VBoxV@23@@Gu@physx@@YAIAEBVCapsuleV@01@AEBVBoxV@01@AEBVPsMatTransformV@aos@shdfnd@1@AEBT__m128@@AEAT7@444PEIAE5AEAE@Z 00000001800b9580 f i GuGJKPenetrationWrapper.obj
 0001:000b9f10       ??$gjkRelativePenetration@VCapsuleV@Gu@physx@@VConvexHullV@23@@Gu@physx@@YAIAEBVCapsuleV@01@AEBVConvexHullV@01@AEBVPsMatTransformV@aos@shdfnd@1@AEBT__m128@@AEAT7@444PEIAE5AEAE@Z 00000001800baf10 f i GuGJKPenetrationWrapper.obj
 0001:000bb8a0       ??$gjkRelativePenetration@VConvexHullV@Gu@physx@@V123@@Gu@physx@@YAIAEBVConvexHullV@01@0AEBVPsMatTransformV@aos@shdfnd@1@AEBT__m128@@AEAT6@333PEIAE4AEAE@Z 00000001800bc8a0 f i GuGJKPenetrationWrapper.obj
 0001:000bd230       ??$gjkRelativePenetration@VShrunkBoxV@Gu@physx@@V123@@Gu@physx@@YAIAEBVShrunkBoxV@01@0AEBVPsMatTransformV@aos@shdfnd@1@AEBT__m128@@AEAT6@333PEIAE4AEAE@Z 00000001800be230 f i GuGJKPenetrationWrapper.obj
 0001:000bebc0       ??$gjkRelativePenetration@VShrunkBoxV@Gu@physx@@VShrunkConvexHullNoScaleV@23@@Gu@physx@@YAIAEBVShrunkBoxV@01@AEBVShrunkConvexHullNoScaleV@01@AEBVPsMatTransformV@aos@shdfnd@1@AEBT__m128@@AEAT7@444PEIAE5AEAE@Z 00000001800bfbc0 f i GuGJKPenetrationWrapper.obj
 0001:000c0550       ??$gjkRelativePenetration@VShrunkBoxV@Gu@physx@@VShrunkConvexHullV@23@@Gu@physx@@YAIAEBVShrunkBoxV@01@AEBVShrunkConvexHullV@01@AEBVPsMatTransformV@aos@shdfnd@1@AEBT__m128@@AEAT7@444PEIAE5AEAE@Z 00000001800c1550 f i GuGJKPenetrationWrapper.obj
 0001:000c1ee0       ??$gjkRelativePenetration@VShrunkConvexHullNoScaleV@Gu@physx@@V123@@Gu@physx@@YAIAEBVShrunkConvexHullNoScaleV@01@0AEBVPsMatTransformV@aos@shdfnd@1@AEBT__m128@@AEAT6@333PEIAE4AEAE@Z 00000001800c2ee0 f i GuGJKPenetrationWrapper.obj
 0001:000c3870       ??$gjkRelativePenetration@VShrunkConvexHullNoScaleV@Gu@physx@@VShrunkConvexHullV@23@@Gu@physx@@YAIAEBVShrunkConvexHullNoScaleV@01@AEBVShrunkConvexHullV@01@AEBVPsMatTransformV@aos@shdfnd@1@AEBT__m128@@AEAT7@444PEIAE5AEAE@Z 00000001800c4870 f i GuGJKPenetrationWrapper.obj
 0001:000c5200       ??$gjkRelativePenetration@VShrunkConvexHullV@Gu@physx@@V123@@Gu@physx@@YAIAEBVShrunkConvexHullV@01@0AEBVPsMatTransformV@aos@shdfnd@1@AEBT__m128@@AEAT6@333PEIAE4AEAE@Z 00000001800c6200 f i GuGJKPenetrationWrapper.obj
 0001:000c6b90       ??$gjkRelativePenetration@VShrunkConvexHullV@Gu@physx@@VShrunkConvexHullNoScaleV@23@@Gu@physx@@YAIAEBVShrunkConvexHullV@01@AEBVShrunkConvexHullNoScaleV@01@AEBVPsMatTransformV@aos@shdfnd@1@AEBT__m128@@AEAT7@444PEIAE5AEAE@Z 00000001800c7b90 f i GuGJKPenetrationWrapper.obj
 0001:000c8520       ??$gjkRelativePenetration@VTriangleV@Gu@physx@@VBoxV@23@@Gu@physx@@YAIAEBVTriangleV@01@AEBVBoxV@01@AEBVPsMatTransformV@aos@shdfnd@1@AEBT__m128@@AEAT7@444PEIAE5AEAE@Z 00000001800c9520 f i GuGJKPenetrationWrapper.obj
 0001:000c9eb0       ??$gjkRelativePenetration@VTriangleV@Gu@physx@@VCapsuleV@23@@Gu@physx@@YAIAEBVTriangleV@01@AEBVCapsuleV@01@AEBVPsMatTransformV@aos@shdfnd@1@AEBT__m128@@AEAT7@444PEIAE5AEAE@Z 00000001800caeb0 f i GuGJKPenetrationWrapper.obj
 0001:000cb840       ??$gjkRelativePenetration@VTriangleV@Gu@physx@@VConvexHullV@23@@Gu@physx@@YAIAEBVTriangleV@01@AEBVConvexHullV@01@AEBVPsMatTransformV@aos@shdfnd@1@AEBT__m128@@AEAT7@444PEIAE5AEAE@Z 00000001800cc840 f i GuGJKPenetrationWrapper.obj
 0001:000cd1d0       ?BGetBitMask@aos@shdfnd@physx@@YAIT__m128@@@Z 00000001800ce1d0 f i GuGJKPenetrationWrapper.obj
 0001:000cd1f0       ?BOr@aos@shdfnd@physx@@YA?AT__m128@@T4@0@Z 00000001800ce1f0 f i GuGJKPenetrationWrapper.obj
 0001:000cd230       ?FSqrt@aos@shdfnd@physx@@YA?AT__m128@@T4@@Z 00000001800ce230 f i GuGJKPenetrationWrapper.obj
 0001:000cd260       ?GJKCPairDoSimplex@Gu@physx@@YA?AT__m128@@PEIAT3@00PEIAH1AEBT3@AEAI@Z 00000001800ce260 f i GuGJKPenetrationWrapper.obj
 0001:000cd440       ?I4Load@aos@shdfnd@physx@@YA?AT__m128@@H@Z 00000001800ce440 f i GuGJKPenetrationWrapper.obj
 0001:000cd470       ?PxI32_From_VecI32V@aos@shdfnd@physx@@YAXAEBT__m128@@PEAH@Z 00000001800ce470 f i GuGJKPenetrationWrapper.obj
 0001:000cd4a0       ?V3Length@aos@shdfnd@physx@@YA?AT__m128@@T4@@Z 00000001800ce4a0 f i GuGJKPenetrationWrapper.obj
 0001:000cd500       ?VecI32V_And@aos@shdfnd@physx@@YA?AT__m128@@AEBT4@0@Z 00000001800ce500 f i GuGJKPenetrationWrapper.obj
 0001:000cd540       ?VecI32V_From_BoolV@aos@shdfnd@physx@@YA?AT__m128@@AEBT4@@Z 00000001800ce540 f i GuGJKPenetrationWrapper.obj
 0001:000cd560       ?VecI32V_One@aos@shdfnd@physx@@YA?AT__m128@@XZ 00000001800ce560 f i GuGJKPenetrationWrapper.obj
 0001:000cd590       ?VecI32V_Sel@aos@shdfnd@physx@@YA?AT__m128@@T4@AEBT4@1@Z 00000001800ce590 f i GuGJKPenetrationWrapper.obj
 0001:000cd600       ?VecI32V_Two@aos@shdfnd@physx@@YA?AT__m128@@XZ 00000001800ce600 f i GuGJKPenetrationWrapper.obj
 0001:000cd630       ?VecI32V_Zero@aos@shdfnd@physx@@YA?AT__m128@@XZ 00000001800ce630 f i GuGJKPenetrationWrapper.obj
 0001:000cd650       ?assignWarmStartValue@Gu@physx@@YAXPEIAE0AEAEPEIAH2I@Z 00000001800ce650 f i GuGJKPenetrationWrapper.obj
 0001:000cd770       ?closestPtPointTriangle@Gu@physx@@YA?AT__m128@@PEIAT3@PEAT3@1PEIAH2AEAI@Z 00000001800ce770 f i GuGJKPenetrationWrapper.obj
 0001:000cddd0       ?getClosestPoint@Gu@physx@@YAXPEIBT__m128@@00AEBT3@AEAT3@2I@Z 00000001800cedd0 f i GuGJKPenetrationWrapper.obj
 0001:000ce630       ?getFacesByVertices8@ConvexHullData@Gu@physx@@QEBAPEBEXZ 00000001800cf630 f i GuGJKPenetrationWrapper.obj
 0001:000ce6c0       ?getIndex@BoxV@Gu@physx@@QEBAXT__m128@@AEAH@Z 00000001800cf6c0 f i GuGJKPenetrationWrapper.obj
 0001:000ce710       ?getIndex@CapsuleV@Gu@physx@@QEBAXT__m128@@AEAH@Z 00000001800cf710 f i GuGJKPenetrationWrapper.obj
 0001:000ce7a0       ?getMarginDif@ConvexV@Gu@physx@@QEBA?AT__m128@@XZ 00000001800cf7a0 f i GuGJKPenetrationWrapper.obj
 0001:000ce7d0       ?intersectPlanes@Gu@physx@@YA?AT__m128@@AEBT3@00000@Z 00000001800cf7d0 f i GuGJKPenetrationWrapper.obj
 0001:000ceaa0       ?planeShift@ShrunkConvexHullNoScaleV@Gu@physx@@QEBA?AT__m128@@IAEBT4@@Z 00000001800cfaa0 f i GuGJKPenetrationWrapper.obj
 0001:000cf040       ?planeShift@ShrunkConvexHullV@Gu@physx@@QEBA?AT__m128@@IAEBT4@@Z 00000001800d0040 f i GuGJKPenetrationWrapper.obj
 0001:000cf730       ?supportLocal@BoxV@Gu@physx@@QEBA?AT__m128@@AEBT4@AEAT4@AEAH@Z 00000001800d0730 f i GuGJKPenetrationWrapper.obj
 0001:000cf8e0       ?supportLocal@CapsuleV@Gu@physx@@QEBA?AT__m128@@AEBT4@AEAH@Z 00000001800d08e0 f i GuGJKPenetrationWrapper.obj
 0001:000cfae0       ?supportLocal@CapsuleV@Gu@physx@@QEBA?AT__m128@@AEBT4@AEAT4@AEAH@Z 00000001800d0ae0 f i GuGJKPenetrationWrapper.obj
 0001:000cfb50       ?supportLocal@ConvexHullNoScaleV@Gu@physx@@QEBA?AT__m128@@AEBT4@AEAT4@AEAH@Z 00000001800d0b50 f i GuGJKPenetrationWrapper.obj
 0001:000cfc10       ?supportLocal@ConvexHullV@Gu@physx@@QEBA?AT__m128@@AEBT4@AEAT4@AEAH@Z 00000001800d0c10 f i GuGJKPenetrationWrapper.obj
 0001:000cfd70       ?supportLocal@ShrunkBoxV@Gu@physx@@QEBA?AT__m128@@AEBT4@AEAT4@AEAH@Z 00000001800d0d70 f i GuGJKPenetrationWrapper.obj
 0001:000cffb0       ?supportLocal@ShrunkConvexHullNoScaleV@Gu@physx@@QEBA?AT__m128@@AEBT4@AEAT4@AEAH@Z 00000001800d0fb0 f i GuGJKPenetrationWrapper.obj
 0001:000d0050       ?supportLocal@ShrunkConvexHullV@Gu@physx@@QEBA?AT__m128@@AEBT4@AEAT4@AEAH@Z 00000001800d1050 f i GuGJKPenetrationWrapper.obj
 0001:000d0150       ?supportLocal@TriangleV@Gu@physx@@QEBA?AT__m128@@AEBT4@AEAH@Z 00000001800d1150 f i GuGJKPenetrationWrapper.obj
 0001:000d0650       ?supportLocal@TriangleV@Gu@physx@@QEBA?AT__m128@@AEBT4@AEAT4@AEAH@Z 00000001800d1650 f i GuGJKPenetrationWrapper.obj
 0001:000d06c0       ?supportPoint@ShrunkBoxV@Gu@physx@@QEBA?AT__m128@@H@Z 00000001800d16c0 f i GuGJKPenetrationWrapper.obj
 0001:000d0840       ?supportPoint@ShrunkConvexHullNoScaleV@Gu@physx@@QEBA?AT__m128@@H@Z 00000001800d1840 f i GuGJKPenetrationWrapper.obj
 0001:000d0890       ?supportPoint@ShrunkConvexHullV@Gu@physx@@QEBA?AT__m128@@H@Z 00000001800d1890 f i GuGJKPenetrationWrapper.obj
 0001:000d08e0       ?supportRelative@BoxV@Gu@physx@@QEBA?AT__m128@@AEBT4@AEBVPsMatTransformV@aos@shdfnd@3@AEAT4@AEAH@Z 00000001800d18e0 f i GuGJKPenetrationWrapper.obj
 0001:000d0ae0       ?supportRelative@CapsuleV@Gu@physx@@QEBA?AT__m128@@AEBT4@AEBVPsMatTransformV@aos@shdfnd@3@AEAH@Z 00000001800d1ae0 f i GuGJKPenetrationWrapper.obj
 0001:000d0b60       ?supportRelative@CapsuleV@Gu@physx@@QEBA?AT__m128@@AEBT4@AEBVPsMatTransformV@aos@shdfnd@3@AEAT4@AEAH@Z 00000001800d1b60 f i GuGJKPenetrationWrapper.obj
 0001:000d0be0       ?supportRelative@ConvexHullV@Gu@physx@@QEBA?AT__m128@@AEBT4@AEBVPsMatTransformV@aos@shdfnd@3@AEAT4@AEAH@Z 00000001800d1be0 f i GuGJKPenetrationWrapper.obj
 0001:000d0ca0       ?supportRelative@ShrunkBoxV@Gu@physx@@QEBA?AT__m128@@AEBT4@AEBVPsMatTransformV@aos@shdfnd@3@AEAT4@AEAH@Z 00000001800d1ca0 f i GuGJKPenetrationWrapper.obj
 0001:000d0f20       ?supportRelative@ShrunkConvexHullNoScaleV@Gu@physx@@QEBA?AT__m128@@AEBT4@AEBVPsMatTransformV@aos@shdfnd@3@AEAT4@AEAH@Z 00000001800d1f20 f i GuGJKPenetrationWrapper.obj
 0001:000d0fe0       ?supportRelative@ShrunkConvexHullV@Gu@physx@@QEBA?AT__m128@@AEBT4@AEBVPsMatTransformV@aos@shdfnd@3@AEAT4@AEAH@Z 00000001800d1fe0 f i GuGJKPenetrationWrapper.obj
 0001:000d10a0       ?supportRelative@TriangleV@Gu@physx@@QEBA?AT__m128@@AEBT4@AEBVPsMatTransformV@aos@shdfnd@3@AEAT4@AEAH@Z 00000001800d20a0 f i GuGJKPenetrationWrapper.obj
 0001:000d1150       ?to8@shdfnd@physx@@YAEH@Z  00000001800d2150 f i GuGJKPenetrationWrapper.obj
 0001:000d1230       ?closestPtPointTetrahedron@Gu@physx@@YA?AT__m128@@PEIAT3@00AEAI@Z 00000001800d2230 f   GuGJKSimplex.obj
 0001:000d1860       ?closestPtPointTetrahedron@Gu@physx@@YA?AT__m128@@PEIAT3@00PEIAH1AEAI@Z 00000001800d2860 f   GuGJKSimplex.obj
 0001:000d2f30       ?BGetW@aos@shdfnd@physx@@YA?AT__m128@@T4@@Z 00000001800d3f30 f i GuGJKSimplex.obj
 0001:000d2f60       ?BGetX@aos@shdfnd@physx@@YA?AT__m128@@T4@@Z 00000001800d3f60 f i GuGJKSimplex.obj
 0001:000d2f90       ?BGetY@aos@shdfnd@physx@@YA?AT__m128@@T4@@Z 00000001800d3f90 f i GuGJKSimplex.obj
 0001:000d2fc0       ?BGetZ@aos@shdfnd@physx@@YA?AT__m128@@T4@@Z 00000001800d3fc0 f i GuGJKSimplex.obj
 0001:000d2ff0       ?PointOutsideOfPlane4@Gu@physx@@YA?AT__m128@@AEBT3@000@Z 00000001800d3ff0 f i GuGJKSimplex.obj
 0001:000d37f0       ?V4Merge@aos@shdfnd@physx@@YA?AT__m128@@AEBT4@000@Z 00000001800d47f0 f i GuGJKSimplex.obj
 0001:000d3890       ?closestPtPointSegmentTesselation@Gu@physx@@YA?AT__m128@@AEBT3@00000AEAIAEAT3@2@Z 00000001800d4890 f   GuGJKSimplexTesselation.obj
 0001:000d3dc0       ?closestPtPointTetrahedronTesselation@Gu@physx@@YA?AT__m128@@PEIAT3@00AEAIAEAT3@2@Z 00000001800d4dc0 f   GuGJKSimplexTesselation.obj
 0001:000d4ed0       ?closestPtPointTriangleTesselation@Gu@physx@@YA?AT__m128@@PEIAT3@00PEIAIAEAIAEAT3@3@Z 00000001800d5ed0 f   GuGJKSimplexTesselation.obj
 0001:000d9340       ?BAllTrue3_R@internalWindowsSimd@aos@shdfnd@physx@@YAIT__m128@@@Z 00000001800da340 f i GuGJKSimplexTesselation.obj
 0001:000d9390       ?V3AllEq@aos@shdfnd@physx@@YAIT__m128@@0@Z 00000001800da390 f i GuGJKSimplexTesselation.obj
 0001:000d9400       ?V4IsEq@aos@shdfnd@physx@@YA?AT__m128@@T4@0@Z 00000001800da400 f i GuGJKSimplexTesselation.obj
 0001:000d9440       ?closestPtPointSegment@Gu@physx@@YA?AT__m128@@AEBT3@00000AEAIAEAT3@2@Z 00000001800da440 f i GuGJKSimplexTesselation.obj
 0001:000d9ad0       ?closestPtPointSegment@Gu@physx@@YA?AT__m128@@AEBT3@0@Z 00000001800daad0 f i GuGJKSimplexTesselation.obj
 0001:000d9ef0       ?GJKRelative@Gu@physx@@YAIAEBVCapsuleV@12@AEBVConvexHullV@12@AEBVPsMatTransformV@aos@shdfnd@2@AEAT__m128@@333@Z 00000001800daef0 f   GuGJKWrapper.obj
 0001:000d9f50       ?GJKRelative@Gu@physx@@YAIAEBVCapsuleV@12@AEBVBoxV@12@AEBVPsMatTransformV@aos@shdfnd@2@AEAT__m128@@333@Z 00000001800daf50 f   GuGJKWrapper.obj
 0001:000d9fb0       ?GJKRelative@Gu@physx@@YAIAEBVBoxV@12@0AEBVPsMatTransformV@aos@shdfnd@2@AEAT__m128@@222@Z 00000001800dafb0 f   GuGJKWrapper.obj
 0001:000da010       ?GJKRelative@Gu@physx@@YAIAEBVBoxV@12@AEBVConvexHullV@12@AEBVPsMatTransformV@aos@shdfnd@2@AEAT__m128@@333@Z 00000001800db010 f   GuGJKWrapper.obj
 0001:000da070       ?GJKRelative@Gu@physx@@YAIAEBVConvexHullV@12@0AEBVPsMatTransformV@aos@shdfnd@2@AEAT__m128@@222@Z 00000001800db070 f   GuGJKWrapper.obj
 0001:000da0d0       ?GJKRelative@Gu@physx@@YAIAEBVTriangleV@12@AEBVBoxV@12@AEBVPsMatTransformV@aos@shdfnd@2@AEAT__m128@@333@Z 00000001800db0d0 f   GuGJKWrapper.obj
 0001:000da130       ?GJKRelative@Gu@physx@@YAIAEBVTriangleV@12@AEBVConvexHullV@12@AEBVPsMatTransformV@aos@shdfnd@2@AEAT__m128@@333@Z 00000001800db130 f   GuGJKWrapper.obj
 0001:000da190       ?GJKLocal@Gu@physx@@YAIAEBVCapsuleV@12@AEBVConvexHullV@12@AEAT__m128@@222@Z 00000001800db190 f   GuGJKWrapper.obj
 0001:000da1e0       ?GJKLocal@Gu@physx@@YAIAEBVTriangleV@12@AEBVBoxV@12@AEAT__m128@@222@Z 00000001800db1e0 f   GuGJKWrapper.obj
 0001:000da230       ?GJKLocal@Gu@physx@@YAIAEBVTriangleV@12@AEBVConvexHullV@12@AEAT__m128@@222@Z 00000001800db230 f   GuGJKWrapper.obj
 0001:000da280       ?GJKRelativeTesselation@Gu@physx@@YAIAEBVBoxV@12@AEBVConvexHullV@12@AEBVPsMatTransformV@aos@shdfnd@2@AEBT__m128@@AEAT8@444@Z 00000001800db280 f   GuGJKWrapper.obj
 0001:000da2f0       ?GJKRelativeTesselation@Gu@physx@@YAIAEBVConvexHullV@12@0AEBVPsMatTransformV@aos@shdfnd@2@AEBT__m128@@AEAT7@333@Z 00000001800db2f0 f   GuGJKWrapper.obj
 0001:000da360       ?GJKLocalRayCast@Gu@physx@@YA_NAEAVTriangleV@12@AEAVCapsuleV@12@AEBT__m128@@22AEAT5@33M_N@Z 00000001800db360 f   GuGJKWrapper.obj
 0001:000da3f0       ?GJKLocalRayCast@Gu@physx@@YA_NAEAVTriangleV@12@AEAVBoxV@12@AEBT__m128@@22AEAT5@33M_N@Z 00000001800db3f0 f   GuGJKWrapper.obj
 0001:000da480       ?GJKLocalRayCast@Gu@physx@@YA_NAEAVTriangleV@12@AEAVConvexHullV@12@AEBT__m128@@22AEAT5@33M_N@Z 00000001800db480 f   GuGJKWrapper.obj
 0001:000da510       ?GJKLocalRayCast@Gu@physx@@YA_NAEAVCapsuleV@12@AEAVBoxV@12@AEBT__m128@@22AEAT5@33M_N@Z 00000001800db510 f   GuGJKWrapper.obj
 0001:000da5a0       ?GJKLocalRayCast@Gu@physx@@YA_NAEAVCapsuleV@12@AEAVConvexHullV@12@AEBT__m128@@22AEAT5@33M_N@Z 00000001800db5a0 f   GuGJKWrapper.obj
 0001:000da630       ?GJKRelativeRayCast@Gu@physx@@YA_NAEAVTriangleV@12@AEAVBoxV@12@AEBVPsMatTransformV@aos@shdfnd@2@AEBT__m128@@33AEAT8@44M_N@Z 00000001800db630 f   GuGJKWrapper.obj
 0001:000da6d0       ?GJKRelativeRayCast@Gu@physx@@YA_NAEAVTriangleV@12@AEAVCapsuleV@12@AEBVPsMatTransformV@aos@shdfnd@2@AEBT__m128@@33AEAT8@44M_N@Z 00000001800db6d0 f   GuGJKWrapper.obj
 0001:000da770       ?GJKRelativeRayCast@Gu@physx@@YA_NAEAVTriangleV@12@AEAVConvexHullV@12@AEBVPsMatTransformV@aos@shdfnd@2@AEBT__m128@@33AEAT8@44M_N@Z 00000001800db770 f   GuGJKWrapper.obj
 0001:000da810       ?GJKRelativeRayCast@Gu@physx@@YA_NAEAVCapsuleV@12@0AEBVPsMatTransformV@aos@shdfnd@2@AEBT__m128@@22AEAT7@33M_N@Z 00000001800db810 f   GuGJKWrapper.obj
 0001:000da8b0       ?GJKRelativeRayCast@Gu@physx@@YA_NAEAVCapsuleV@12@AEAVBoxV@12@AEBVPsMatTransformV@aos@shdfnd@2@AEBT__m128@@33AEAT8@44M_N@Z 00000001800db8b0 f   GuGJKWrapper.obj
 0001:000da950       ?GJKRelativeRayCast@Gu@physx@@YA_NAEAVCapsuleV@12@AEAVConvexHullV@12@AEBVPsMatTransformV@aos@shdfnd@2@AEBT__m128@@33AEAT8@44M_N@Z 00000001800db950 f   GuGJKWrapper.obj
 0001:000da9f0       ?GJKRelativeRayCast@Gu@physx@@YA_NAEAVBoxV@12@0AEBVPsMatTransformV@aos@shdfnd@2@AEBT__m128@@22AEAT7@33M_N@Z 00000001800db9f0 f   GuGJKWrapper.obj
 0001:000daa90       ?GJKRelativeRayCast@Gu@physx@@YA_NAEAVBoxV@12@AEAVConvexHullV@12@AEBVPsMatTransformV@aos@shdfnd@2@AEBT__m128@@33AEAT8@44M_N@Z 00000001800dba90 f   GuGJKWrapper.obj
 0001:000dab30       ?GJKRelativeRayCast@Gu@physx@@YA_NAEAVConvexHullV@12@0AEBVPsMatTransformV@aos@shdfnd@2@AEBT__m128@@22AEAT7@33M_N@Z 00000001800dbb30 f   GuGJKWrapper.obj
 0001:000daf00       ??$PX_UNUSED@T__m128@@@@YAXAEBT__m128@@@Z 00000001800dbf00 f i GuGJKWrapper.obj
 0001:000daf10       ??$_gjkLocalRayCast@VCapsuleV@Gu@physx@@VBoxV@23@@Gu@physx@@YA_NAEAVCapsuleV@01@AEAVBoxV@01@AEBT__m128@@22AEAT4@33M@Z 00000001800dbf10 f i GuGJKWrapper.obj
 0001:000dc8a0       ??$_gjkLocalRayCast@VCapsuleV@Gu@physx@@VConvexHullV@23@@Gu@physx@@YA_NAEAVCapsuleV@01@AEAVConvexHullV@01@AEBT__m128@@22AEAT4@33M@Z 00000001800dd8a0 f i GuGJKWrapper.obj
 0001:000de230       ??$_gjkLocalRayCast@VTriangleV@Gu@physx@@VBoxV@23@@Gu@physx@@YA_NAEAVTriangleV@01@AEAVBoxV@01@AEBT__m128@@22AEAT4@33M@Z 00000001800df230 f i GuGJKWrapper.obj
 0001:000dfbc0       ??$_gjkLocalRayCast@VTriangleV@Gu@physx@@VCapsuleV@23@@Gu@physx@@YA_NAEAVTriangleV@01@AEAVCapsuleV@01@AEBT__m128@@22AEAT4@33M@Z 00000001800e0bc0 f i GuGJKWrapper.obj
 0001:000e1550       ??$_gjkLocalRayCast@VTriangleV@Gu@physx@@VConvexHullV@23@@Gu@physx@@YA_NAEAVTriangleV@01@AEAVConvexHullV@01@AEBT__m128@@22AEAT4@33M@Z 00000001800e2550 f i GuGJKWrapper.obj
 0001:000e2ee0       ??$_gjkRelativeRayCast@VBoxV@Gu@physx@@V123@@Gu@physx@@YA_NAEAVBoxV@01@0AEBVPsMatTransformV@aos@shdfnd@1@AEBT__m128@@22AEAT6@33M@Z 00000001800e3ee0 f i GuGJKWrapper.obj
 0001:000e4820       ??$_gjkRelativeRayCast@VBoxV@Gu@physx@@VConvexHullV@23@@Gu@physx@@YA_NAEAVBoxV@01@AEAVConvexHullV@01@AEBVPsMatTransformV@aos@shdfnd@1@AEBT__m128@@33AEAT7@44M@Z 00000001800e5820 f i GuGJKWrapper.obj
 0001:000e6160       ??$_gjkRelativeRayCast@VCapsuleV@Gu@physx@@V123@@Gu@physx@@YA_NAEAVCapsuleV@01@0AEBVPsMatTransformV@aos@shdfnd@1@AEBT__m128@@22AEAT6@33M@Z 00000001800e7160 f i GuGJKWrapper.obj
 0001:000e7aa0       ??$_gjkRelativeRayCast@VCapsuleV@Gu@physx@@VBoxV@23@@Gu@physx@@YA_NAEAVCapsuleV@01@AEAVBoxV@01@AEBVPsMatTransformV@aos@shdfnd@1@AEBT__m128@@33AEAT7@44M@Z 00000001800e8aa0 f i GuGJKWrapper.obj
 0001:000e93e0       ??$_gjkRelativeRayCast@VCapsuleV@Gu@physx@@VConvexHullV@23@@Gu@physx@@YA_NAEAVCapsuleV@01@AEAVConvexHullV@01@AEBVPsMatTransformV@aos@shdfnd@1@AEBT__m128@@33AEAT7@44M@Z 00000001800ea3e0 f i GuGJKWrapper.obj
 0001:000ead20       ??$_gjkRelativeRayCast@VConvexHullV@Gu@physx@@V123@@Gu@physx@@YA_NAEAVConvexHullV@01@0AEBVPsMatTransformV@aos@shdfnd@1@AEBT__m128@@22AEAT6@33M@Z 00000001800ebd20 f i GuGJKWrapper.obj
 0001:000ec660       ??$_gjkRelativeRayCast@VTriangleV@Gu@physx@@VBoxV@23@@Gu@physx@@YA_NAEAVTriangleV@01@AEAVBoxV@01@AEBVPsMatTransformV@aos@shdfnd@1@AEBT__m128@@33AEAT7@44M@Z 00000001800ed660 f i GuGJKWrapper.obj
 0001:000edfa0       ??$_gjkRelativeRayCast@VTriangleV@Gu@physx@@VCapsuleV@23@@Gu@physx@@YA_NAEAVTriangleV@01@AEAVCapsuleV@01@AEBVPsMatTransformV@aos@shdfnd@1@AEBT__m128@@33AEAT7@44M@Z 00000001800eefa0 f i GuGJKWrapper.obj
 0001:000ef8e0       ??$_gjkRelativeRayCast@VTriangleV@Gu@physx@@VConvexHullV@23@@Gu@physx@@YA_NAEAVTriangleV@01@AEAVConvexHullV@01@AEBVPsMatTransformV@aos@shdfnd@1@AEBT__m128@@33AEAT7@44M@Z 00000001800f08e0 f i GuGJKWrapper.obj
 0001:000f1220       ??$gjkLocal@VCapsuleV@Gu@physx@@VConvexHullV@23@@Gu@physx@@YAIAEBVCapsuleV@01@AEBVConvexHullV@01@AEAT__m128@@222@Z 00000001800f2220 f i GuGJKWrapper.obj
 0001:000f1e40       ??$gjkLocal@VTriangleV@Gu@physx@@VBoxV@23@@Gu@physx@@YAIAEBVTriangleV@01@AEBVBoxV@01@AEAT__m128@@222@Z 00000001800f2e40 f i GuGJKWrapper.obj
 0001:000f2a60       ??$gjkLocal@VTriangleV@Gu@physx@@VConvexHullV@23@@Gu@physx@@YAIAEBVTriangleV@01@AEBVConvexHullV@01@AEAT__m128@@222@Z 00000001800f3a60 f i GuGJKWrapper.obj
 0001:000f3680       ??$gjkLocalPenetration@VTriangleV@Gu@physx@@VCapsuleV@23@@Gu@physx@@YAIAEBVTriangleV@01@AEBVCapsuleV@01@AEBT__m128@@AEAT4@333PEIAE4AEAE_N@Z 00000001800f4680 f i GuGJKWrapper.obj
 0001:000f5800       ??$gjkLocalPenetration@VTriangleV@Gu@physx@@VShrunkBoxV@23@@Gu@physx@@YAIAEBVTriangleV@01@AEBVShrunkBoxV@01@AEBT__m128@@AEAT4@333PEIAE4AEAE_N@Z 00000001800f6800 f i GuGJKWrapper.obj
 0001:000f7980       ??$gjkLocalPenetration@VTriangleV@Gu@physx@@VShrunkConvexHullV@23@@Gu@physx@@YAIAEBVTriangleV@01@AEBVShrunkConvexHullV@01@AEBT__m128@@AEAT4@333PEIAE4AEAE_N@Z 00000001800f8980 f i GuGJKWrapper.obj
 0001:000f9b00       ??$gjkLocalRayCast@VCapsuleV@Gu@physx@@VBoxV@23@V123@VShrunkBoxV@23@@Gu@physx@@YA_NAEAVCapsuleV@01@AEAVBoxV@01@AEBT__m128@@22AEAT4@33M_N@Z 00000001800fab00 f i GuGJKWrapper.obj
 0001:000f9fd0       ??$gjkLocalRayCast@VCapsuleV@Gu@physx@@VConvexHullV@23@V123@VShrunkConvexHullV@23@@Gu@physx@@YA_NAEAVCapsuleV@01@AEAVConvexHullV@01@AEBT__m128@@22AEAT4@33M_N@Z 00000001800fafd0 f i GuGJKWrapper.obj
 0001:000fa4a0       ??$gjkLocalRayCast@VTriangleV@Gu@physx@@VBoxV@23@V123@VShrunkBoxV@23@@Gu@physx@@YA_NAEAVTriangleV@01@AEAVBoxV@01@AEBT__m128@@22AEAT4@33M_N@Z 00000001800fb4a0 f i GuGJKWrapper.obj
 0001:000fa970       ??$gjkLocalRayCast@VTriangleV@Gu@physx@@VCapsuleV@23@V123@V423@@Gu@physx@@YA_NAEAVTriangleV@01@AEAVCapsuleV@01@AEBT__m128@@22AEAT4@33M_N@Z 00000001800fb970 f i GuGJKWrapper.obj
 0001:000fae40       ??$gjkLocalRayCast@VTriangleV@Gu@physx@@VConvexHullV@23@V123@VShrunkConvexHullV@23@@Gu@physx@@YA_NAEAVTriangleV@01@AEAVConvexHullV@01@AEBT__m128@@22AEAT4@33M_N@Z 00000001800fbe40 f i GuGJKWrapper.obj
 0001:000fb310       ??$gjkRelative@VBoxV@Gu@physx@@V123@@Gu@physx@@YAIAEBVBoxV@01@0AEBVPsMatTransformV@aos@shdfnd@1@AEAT__m128@@222@Z 00000001800fc310 f i GuGJKWrapper.obj
 0001:000fbed0       ??$gjkRelative@VBoxV@Gu@physx@@VConvexHullV@23@@Gu@physx@@YAIAEBVBoxV@01@AEBVConvexHullV@01@AEBVPsMatTransformV@aos@shdfnd@1@AEAT__m128@@333@Z 00000001800fced0 f i GuGJKWrapper.obj
 0001:000fca90       ??$gjkRelative@VCapsuleV@Gu@physx@@VBoxV@23@@Gu@physx@@YAIAEBVCapsuleV@01@AEBVBoxV@01@AEBVPsMatTransformV@aos@shdfnd@1@AEAT__m128@@333@Z 00000001800fda90 f i GuGJKWrapper.obj
 0001:000fd650       ??$gjkRelative@VCapsuleV@Gu@physx@@VConvexHullV@23@@Gu@physx@@YAIAEBVCapsuleV@01@AEBVConvexHullV@01@AEBVPsMatTransformV@aos@shdfnd@1@AEAT__m128@@333@Z 00000001800fe650 f i GuGJKWrapper.obj
 0001:000fe210       ??$gjkRelative@VConvexHullV@Gu@physx@@V123@@Gu@physx@@YAIAEBVConvexHullV@01@0AEBVPsMatTransformV@aos@shdfnd@1@AEAT__m128@@222@Z 00000001800ff210 f i GuGJKWrapper.obj
 0001:000fedd0       ??$gjkRelative@VTriangleV@Gu@physx@@VBoxV@23@@Gu@physx@@YAIAEBVTriangleV@01@AEBVBoxV@01@AEBVPsMatTransformV@aos@shdfnd@1@AEAT__m128@@333@Z 00000001800ffdd0 f i GuGJKWrapper.obj
 0001:000ff990       ??$gjkRelative@VTriangleV@Gu@physx@@VConvexHullV@23@@Gu@physx@@YAIAEBVTriangleV@01@AEBVConvexHullV@01@AEBVPsMatTransformV@aos@shdfnd@1@AEAT__m128@@333@Z 0000000180100990 f i GuGJKWrapper.obj
 0001:00100550       ??$gjkRelativePenetration@VCapsuleV@Gu@physx@@VShrunkBoxV@23@@Gu@physx@@YAIAEBVCapsuleV@01@AEBVShrunkBoxV@01@AEBVPsMatTransformV@aos@shdfnd@1@AEBT__m128@@AEAT7@444PEIAE5AEAE@Z 0000000180101550 f i GuGJKWrapper.obj
 0001:00101ee0       ??$gjkRelativePenetration@VCapsuleV@Gu@physx@@VShrunkConvexHullV@23@@Gu@physx@@YAIAEBVCapsuleV@01@AEBVShrunkConvexHullV@01@AEBVPsMatTransformV@aos@shdfnd@1@AEBT__m128@@AEAT7@444PEIAE5AEAE@Z 0000000180102ee0 f i GuGJKWrapper.obj
 0001:00103870       ??$gjkRelativePenetration@VTriangleV@Gu@physx@@VShrunkBoxV@23@@Gu@physx@@YAIAEBVTriangleV@01@AEBVShrunkBoxV@01@AEBVPsMatTransformV@aos@shdfnd@1@AEBT__m128@@AEAT7@444PEIAE5AEAE@Z 0000000180104870 f i GuGJKWrapper.obj
 0001:00105200       ??$gjkRelativePenetration@VTriangleV@Gu@physx@@VShrunkConvexHullV@23@@Gu@physx@@YAIAEBVTriangleV@01@AEBVShrunkConvexHullV@01@AEBVPsMatTransformV@aos@shdfnd@1@AEBT__m128@@AEAT7@444PEIAE5AEAE@Z 0000000180106200 f i GuGJKWrapper.obj
 0001:00106b90       ??$gjkRelativeRayCast@VBoxV@Gu@physx@@V123@VShrunkBoxV@23@V423@@Gu@physx@@YA_NAEAVBoxV@01@0AEBVPsMatTransformV@aos@shdfnd@1@AEBT__m128@@22AEAT6@33M_N@Z 0000000180107b90 f i GuGJKWrapper.obj
 0001:00107070       ??$gjkRelativeRayCast@VBoxV@Gu@physx@@VConvexHullV@23@VShrunkBoxV@23@VShrunkConvexHullV@23@@Gu@physx@@YA_NAEAVBoxV@01@AEAVConvexHullV@01@AEBVPsMatTransformV@aos@shdfnd@1@AEBT__m128@@33AEAT7@44M_N@Z 0000000180108070 f i GuGJKWrapper.obj
 0001:00107550       ??$gjkRelativeRayCast@VCapsuleV@Gu@physx@@V123@V123@V123@@Gu@physx@@YA_NAEAVCapsuleV@01@0AEBVPsMatTransformV@aos@shdfnd@1@AEBT__m128@@22AEAT6@33M_N@Z 0000000180108550 f i GuGJKWrapper.obj
 0001:00107a30       ??$gjkRelativeRayCast@VCapsuleV@Gu@physx@@VBoxV@23@V123@VShrunkBoxV@23@@Gu@physx@@YA_NAEAVCapsuleV@01@AEAVBoxV@01@AEBVPsMatTransformV@aos@shdfnd@1@AEBT__m128@@33AEAT7@44M_N@Z 0000000180108a30 f i GuGJKWrapper.obj
 0001:00107f10       ??$gjkRelativeRayCast@VCapsuleV@Gu@physx@@VConvexHullV@23@V123@VShrunkConvexHullV@23@@Gu@physx@@YA_NAEAVCapsuleV@01@AEAVConvexHullV@01@AEBVPsMatTransformV@aos@shdfnd@1@AEBT__m128@@33AEAT7@44M_N@Z 0000000180108f10 f i GuGJKWrapper.obj
 0001:001083f0       ??$gjkRelativeRayCast@VConvexHullV@Gu@physx@@V123@VShrunkConvexHullV@23@V423@@Gu@physx@@YA_NAEAVConvexHullV@01@0AEBVPsMatTransformV@aos@shdfnd@1@AEBT__m128@@22AEAT6@33M_N@Z 00000001801093f0 f i GuGJKWrapper.obj
 0001:001088d0       ??$gjkRelativeRayCast@VTriangleV@Gu@physx@@VBoxV@23@V123@VShrunkBoxV@23@@Gu@physx@@YA_NAEAVTriangleV@01@AEAVBoxV@01@AEBVPsMatTransformV@aos@shdfnd@1@AEBT__m128@@33AEAT7@44M_N@Z 00000001801098d0 f i GuGJKWrapper.obj
 0001:00108db0       ??$gjkRelativeRayCast@VTriangleV@Gu@physx@@VCapsuleV@23@V123@V423@@Gu@physx@@YA_NAEAVTriangleV@01@AEAVCapsuleV@01@AEBVPsMatTransformV@aos@shdfnd@1@AEBT__m128@@33AEAT7@44M_N@Z 0000000180109db0 f i GuGJKWrapper.obj
 0001:00109290       ??$gjkRelativeRayCast@VTriangleV@Gu@physx@@VConvexHullV@23@V123@VShrunkConvexHullV@23@@Gu@physx@@YA_NAEAVTriangleV@01@AEAVConvexHullV@01@AEBVPsMatTransformV@aos@shdfnd@1@AEBT__m128@@33AEAT7@44M_N@Z 000000018010a290 f i GuGJKWrapper.obj
 0001:00109770       ??$gjkRelativeTesselation@VBoxV@Gu@physx@@VConvexHullV@23@@Gu@physx@@YAIAEBVBoxV@01@AEBVConvexHullV@01@AEBVPsMatTransformV@aos@shdfnd@1@AEBT__m128@@AEAT7@444@Z 000000018010a770 f i GuGJKWrapper.obj
 0001:00109a00       ??$gjkRelativeTesselation@VConvexHullV@Gu@physx@@V123@@Gu@physx@@YAIAEBVConvexHullV@01@0AEBVPsMatTransformV@aos@shdfnd@1@AEBT__m128@@AEAT6@333@Z 000000018010aa00 f i GuGJKWrapper.obj
 0001:00109c90       ??0?$EPASupportMapPairLocalImpl@VTriangleV@Gu@physx@@VCapsuleV@23@@Gu@physx@@QEAA@AEBVTriangleV@12@AEBVCapsuleV@12@@Z 000000018010ac90 f i GuGJKWrapper.obj
 0001:00109d00       ??0?$EPASupportMapPairRelativeImpl@VCapsuleV@Gu@physx@@V123@@Gu@physx@@QEAA@AEBVCapsuleV@12@0AEBVPsMatTransformV@aos@shdfnd@2@@Z 000000018010ad00 f i GuGJKWrapper.obj
 0001:00109d80       ??0?$EPASupportMapPairRelativeImpl@VCapsuleV@Gu@physx@@VBoxV@23@@Gu@physx@@QEAA@AEBVCapsuleV@12@AEBVBoxV@12@AEBVPsMatTransformV@aos@shdfnd@2@@Z 000000018010ad80 f i GuGJKWrapper.obj
 0001:00109e00       ??0?$EPASupportMapPairRelativeImpl@VCapsuleV@Gu@physx@@VConvexHullV@23@@Gu@physx@@QEAA@AEBVCapsuleV@12@AEBVConvexHullV@12@AEBVPsMatTransformV@aos@shdfnd@2@@Z 000000018010ae00 f i GuGJKWrapper.obj
 0001:00109e80       ??0?$EPASupportMapPairRelativeImpl@VTriangleV@Gu@physx@@VBoxV@23@@Gu@physx@@QEAA@AEBVTriangleV@12@AEBVBoxV@12@AEBVPsMatTransformV@aos@shdfnd@2@@Z 000000018010ae80 f i GuGJKWrapper.obj
 0001:00109f00       ??0?$EPASupportMapPairRelativeImpl@VTriangleV@Gu@physx@@VCapsuleV@23@@Gu@physx@@QEAA@AEBVTriangleV@12@AEBVCapsuleV@12@AEBVPsMatTransformV@aos@shdfnd@2@@Z 000000018010af00 f i GuGJKWrapper.obj
 0001:00109f80       ??0?$EPASupportMapPairRelativeImpl@VTriangleV@Gu@physx@@VConvexHullV@23@@Gu@physx@@QEAA@AEBVTriangleV@12@AEBVConvexHullV@12@AEBVPsMatTransformV@aos@shdfnd@2@@Z 000000018010af80 f i GuGJKWrapper.obj
 0001:0010a000       ??0?$SupportMapLocalImpl@VConvexHullV@Gu@physx@@@Gu@physx@@QEAA@AEBVConvexHullV@12@@Z 000000018010b000 f i GuGJKWrapper.obj
 0001:0010a050       ??0?$SupportMapRelativeImpl@VBoxV@Gu@physx@@@Gu@physx@@QEAA@AEBVBoxV@12@AEBVPsMatTransformV@aos@shdfnd@2@@Z 000000018010b050 f i GuGJKWrapper.obj
 0001:0010a0c0       ??0?$SupportMapRelativeImpl@VConvexHullV@Gu@physx@@@Gu@physx@@QEAA@AEBVConvexHullV@12@AEBVPsMatTransformV@aos@shdfnd@2@@Z 000000018010b0c0 f i GuGJKWrapper.obj
 0001:0010a130       ??0SIMDGuard@shdfnd@physx@@QEAA@XZ 000000018010b130 f i GuGJKWrapper.obj
 0001:0010a170       ??0SupportMap@Gu@physx@@QEAA@XZ 000000018010b170 f i GuGJKWrapper.obj
 0001:0010a190       ??1?$EPASupportMapPairLocalImpl@VTriangleV@Gu@physx@@VCapsuleV@23@@Gu@physx@@UEAA@XZ 000000018010b190 f i GuGJKWrapper.obj
 0001:0010a1b0       ??1?$EPASupportMapPairRelativeImpl@VCapsuleV@Gu@physx@@V123@@Gu@physx@@UEAA@XZ 000000018010b1b0 f i GuGJKWrapper.obj
 0001:0010a1d0       ??1?$EPASupportMapPairRelativeImpl@VCapsuleV@Gu@physx@@VBoxV@23@@Gu@physx@@UEAA@XZ 000000018010b1d0 f i GuGJKWrapper.obj
 0001:0010a1f0       ??1?$EPASupportMapPairRelativeImpl@VCapsuleV@Gu@physx@@VConvexHullV@23@@Gu@physx@@UEAA@XZ 000000018010b1f0 f i GuGJKWrapper.obj
 0001:0010a210       ??1?$EPASupportMapPairRelativeImpl@VTriangleV@Gu@physx@@VBoxV@23@@Gu@physx@@UEAA@XZ 000000018010b210 f i GuGJKWrapper.obj
 0001:0010a230       ??1?$EPASupportMapPairRelativeImpl@VTriangleV@Gu@physx@@VCapsuleV@23@@Gu@physx@@UEAA@XZ 000000018010b230 f i GuGJKWrapper.obj
 0001:0010a250       ??1?$EPASupportMapPairRelativeImpl@VTriangleV@Gu@physx@@VConvexHullV@23@@Gu@physx@@UEAA@XZ 000000018010b250 f i GuGJKWrapper.obj
 0001:0010a270       ??1?$SupportMapLocalImpl@VConvexHullV@Gu@physx@@@Gu@physx@@UEAA@XZ 000000018010b270 f i GuGJKWrapper.obj
 0001:0010a290       ??1?$SupportMapRelativeImpl@VBoxV@Gu@physx@@@Gu@physx@@UEAA@XZ 000000018010b290 f i GuGJKWrapper.obj
 0001:0010a2b0       ??1?$SupportMapRelativeImpl@VConvexHullV@Gu@physx@@@Gu@physx@@UEAA@XZ 000000018010b2b0 f i GuGJKWrapper.obj
 0001:0010a2d0       ??1SIMDGuard@shdfnd@physx@@QEAA@XZ 000000018010b2d0 f i GuGJKWrapper.obj
 0001:0010a300       ??1SupportMap@Gu@physx@@UEAA@XZ 000000018010b300 f i GuGJKWrapper.obj
 0001:0010a320       ??_G?$EPASupportMapPairLocalImpl@VTriangleV@Gu@physx@@VCapsuleV@23@@Gu@physx@@UEAAPEAXI@Z 000000018010b320 f i GuGJKWrapper.obj
 0001:0010a320       ??_E?$EPASupportMapPairLocalImpl@VTriangleV@Gu@physx@@VCapsuleV@23@@Gu@physx@@UEAAPEAXI@Z 000000018010b320 f i GuGJKWrapper.obj
 0001:0010a370       ??_E?$EPASupportMapPairRelativeImpl@VCapsuleV@Gu@physx@@V123@@Gu@physx@@UEAAPEAXI@Z 000000018010b370 f i GuGJKWrapper.obj
 0001:0010a370       ??_G?$EPASupportMapPairRelativeImpl@VCapsuleV@Gu@physx@@V123@@Gu@physx@@UEAAPEAXI@Z 000000018010b370 f i GuGJKWrapper.obj
 0001:0010a3c0       ??_E?$EPASupportMapPairRelativeImpl@VCapsuleV@Gu@physx@@VBoxV@23@@Gu@physx@@UEAAPEAXI@Z 000000018010b3c0 f i GuGJKWrapper.obj
 0001:0010a3c0       ??_G?$EPASupportMapPairRelativeImpl@VCapsuleV@Gu@physx@@VBoxV@23@@Gu@physx@@UEAAPEAXI@Z 000000018010b3c0 f i GuGJKWrapper.obj
 0001:0010a410       ??_G?$EPASupportMapPairRelativeImpl@VCapsuleV@Gu@physx@@VConvexHullV@23@@Gu@physx@@UEAAPEAXI@Z 000000018010b410 f i GuGJKWrapper.obj
 0001:0010a410       ??_E?$EPASupportMapPairRelativeImpl@VCapsuleV@Gu@physx@@VConvexHullV@23@@Gu@physx@@UEAAPEAXI@Z 000000018010b410 f i GuGJKWrapper.obj
 0001:0010a460       ??_E?$EPASupportMapPairRelativeImpl@VTriangleV@Gu@physx@@VBoxV@23@@Gu@physx@@UEAAPEAXI@Z 000000018010b460 f i GuGJKWrapper.obj
 0001:0010a460       ??_G?$EPASupportMapPairRelativeImpl@VTriangleV@Gu@physx@@VBoxV@23@@Gu@physx@@UEAAPEAXI@Z 000000018010b460 f i GuGJKWrapper.obj
 0001:0010a4b0       ??_E?$EPASupportMapPairRelativeImpl@VTriangleV@Gu@physx@@VCapsuleV@23@@Gu@physx@@UEAAPEAXI@Z 000000018010b4b0 f i GuGJKWrapper.obj
 0001:0010a4b0       ??_G?$EPASupportMapPairRelativeImpl@VTriangleV@Gu@physx@@VCapsuleV@23@@Gu@physx@@UEAAPEAXI@Z 000000018010b4b0 f i GuGJKWrapper.obj
 0001:0010a500       ??_G?$EPASupportMapPairRelativeImpl@VTriangleV@Gu@physx@@VConvexHullV@23@@Gu@physx@@UEAAPEAXI@Z 000000018010b500 f i GuGJKWrapper.obj
 0001:0010a500       ??_E?$EPASupportMapPairRelativeImpl@VTriangleV@Gu@physx@@VConvexHullV@23@@Gu@physx@@UEAAPEAXI@Z 000000018010b500 f i GuGJKWrapper.obj
 0001:0010a550       ??_G?$SupportMapLocalImpl@VConvexHullV@Gu@physx@@@Gu@physx@@UEAAPEAXI@Z 000000018010b550 f i GuGJKWrapper.obj
 0001:0010a550       ??_E?$SupportMapLocalImpl@VConvexHullV@Gu@physx@@@Gu@physx@@UEAAPEAXI@Z 000000018010b550 f i GuGJKWrapper.obj
 0001:0010a5a0       ??_E?$SupportMapRelativeImpl@VBoxV@Gu@physx@@@Gu@physx@@UEAAPEAXI@Z 000000018010b5a0 f i GuGJKWrapper.obj
 0001:0010a5a0       ??_G?$SupportMapRelativeImpl@VBoxV@Gu@physx@@@Gu@physx@@UEAAPEAXI@Z 000000018010b5a0 f i GuGJKWrapper.obj
 0001:0010a5f0       ??_G?$SupportMapRelativeImpl@VConvexHullV@Gu@physx@@@Gu@physx@@UEAAPEAXI@Z 000000018010b5f0 f i GuGJKWrapper.obj
 0001:0010a5f0       ??_E?$SupportMapRelativeImpl@VConvexHullV@Gu@physx@@@Gu@physx@@UEAAPEAXI@Z 000000018010b5f0 f i GuGJKWrapper.obj
 0001:0010a640       ??_GSupportMap@Gu@physx@@UEAAPEAXI@Z 000000018010b640 f i GuGJKWrapper.obj
 0001:0010a640       ??_ESupportMap@Gu@physx@@UEAAPEAXI@Z 000000018010b640 f i GuGJKWrapper.obj
 0001:0010a690       ?FAllEq@aos@shdfnd@physx@@YAIT__m128@@0@Z 000000018010b690 f i GuGJKWrapper.obj
 0001:0010a6d0       ?doSupport@?$EPASupportMapPairLocalImpl@VTriangleV@Gu@physx@@VCapsuleV@23@@Gu@physx@@UEBAXAEBT__m128@@AEAT4@11@Z 000000018010b6d0 f i GuGJKWrapper.obj
 0001:0010a7e0       ?doSupport@?$EPASupportMapPairRelativeImpl@VCapsuleV@Gu@physx@@V123@@Gu@physx@@UEBAXAEBT__m128@@AEAT4@11@Z 000000018010b7e0 f i GuGJKWrapper.obj
 0001:0010a900       ?doSupport@?$EPASupportMapPairRelativeImpl@VCapsuleV@Gu@physx@@VBoxV@23@@Gu@physx@@UEBAXAEBT__m128@@AEAT4@11@Z 000000018010b900 f i GuGJKWrapper.obj
 0001:0010aa20       ?doSupport@?$EPASupportMapPairRelativeImpl@VCapsuleV@Gu@physx@@VConvexHullV@23@@Gu@physx@@UEBAXAEBT__m128@@AEAT4@11@Z 000000018010ba20 f i GuGJKWrapper.obj
 0001:0010ab40       ?doSupport@?$EPASupportMapPairRelativeImpl@VTriangleV@Gu@physx@@VBoxV@23@@Gu@physx@@UEBAXAEBT__m128@@AEAT4@11@Z 000000018010bb40 f i GuGJKWrapper.obj
 0001:0010ac60       ?doSupport@?$EPASupportMapPairRelativeImpl@VTriangleV@Gu@physx@@VCapsuleV@23@@Gu@physx@@UEBAXAEBT__m128@@AEAT4@11@Z 000000018010bc60 f i GuGJKWrapper.obj
 0001:0010ad80       ?doSupport@?$EPASupportMapPairRelativeImpl@VTriangleV@Gu@physx@@VConvexHullV@23@@Gu@physx@@UEBAXAEBT__m128@@AEAT4@11@Z 000000018010bd80 f i GuGJKWrapper.obj
 0001:0010aea0       ?doSupport@?$SupportMapLocalImpl@VConvexHullV@Gu@physx@@@Gu@physx@@UEBA?AT__m128@@AEBT4@@Z 000000018010bea0 f i GuGJKWrapper.obj
 0001:0010aef0       ?doSupport@?$SupportMapRelativeImpl@VBoxV@Gu@physx@@@Gu@physx@@UEBA?AT__m128@@AEBT4@@Z 000000018010bef0 f i GuGJKWrapper.obj
 0001:0010af40       ?doSupport@?$SupportMapRelativeImpl@VConvexHullV@Gu@physx@@@Gu@physx@@UEBA?AT__m128@@AEBT4@@Z 000000018010bf40 f i GuGJKWrapper.obj
 0001:0010af90       ?doSupportSweep@?$SupportMapLocalImpl@VConvexHullV@Gu@physx@@@Gu@physx@@UEBA?AT__m128@@AEBT4@@Z 000000018010bf90 f i GuGJKWrapper.obj
 0001:0010afe0       ?doSupportSweep@?$SupportMapRelativeImpl@VBoxV@Gu@physx@@@Gu@physx@@UEBA?AT__m128@@AEBT4@@Z 000000018010bfe0 f i GuGJKWrapper.obj
 0001:0010b030       ?doSupportSweep@?$SupportMapRelativeImpl@VConvexHullV@Gu@physx@@@Gu@physx@@UEBA?AT__m128@@AEBT4@@Z 000000018010c030 f i GuGJKWrapper.obj
 0001:0010b080       ?doWarmStartSupport@?$EPASupportMapPairLocalImpl@VTriangleV@Gu@physx@@VCapsuleV@23@@Gu@physx@@UEBAXHHAEAT__m128@@00@Z 000000018010c080 f i GuGJKWrapper.obj
 0001:0010b160       ?doWarmStartSupport@?$EPASupportMapPairRelativeImpl@VCapsuleV@Gu@physx@@V123@@Gu@physx@@UEBAXHHAEAT__m128@@00@Z 000000018010c160 f i GuGJKWrapper.obj
 0001:0010b270       ?doWarmStartSupport@?$EPASupportMapPairRelativeImpl@VCapsuleV@Gu@physx@@VBoxV@23@@Gu@physx@@UEBAXHHAEAT__m128@@00@Z 000000018010c270 f i GuGJKWrapper.obj
 0001:0010b380       ?doWarmStartSupport@?$EPASupportMapPairRelativeImpl@VCapsuleV@Gu@physx@@VConvexHullV@23@@Gu@physx@@UEBAXHHAEAT__m128@@00@Z 000000018010c380 f i GuGJKWrapper.obj
 0001:0010b490       ?doWarmStartSupport@?$EPASupportMapPairRelativeImpl@VTriangleV@Gu@physx@@VBoxV@23@@Gu@physx@@UEBAXHHAEAT__m128@@00@Z 000000018010c490 f i GuGJKWrapper.obj
 0001:0010b5a0       ?doWarmStartSupport@?$EPASupportMapPairRelativeImpl@VTriangleV@Gu@physx@@VCapsuleV@23@@Gu@physx@@UEBAXHHAEAT__m128@@00@Z 000000018010c5a0 f i GuGJKWrapper.obj
 0001:0010b6b0       ?doWarmStartSupport@?$EPASupportMapPairRelativeImpl@VTriangleV@Gu@physx@@VConvexHullV@23@@Gu@physx@@UEBAXHHAEAT__m128@@00@Z 000000018010c6b0 f i GuGJKWrapper.obj
 0001:0010b7c0       ?doWarmStartSupport@?$SupportMapLocalImpl@VConvexHullV@Gu@physx@@@Gu@physx@@UEBAXHAEAT__m128@@@Z 000000018010c7c0 f i GuGJKWrapper.obj
 0001:0010b810       ?doWarmStartSupport@?$SupportMapRelativeImpl@VBoxV@Gu@physx@@@Gu@physx@@UEBAXHAEAT__m128@@@Z 000000018010c810 f i GuGJKWrapper.obj
 0001:0010b880       ?doWarmStartSupport@?$SupportMapRelativeImpl@VConvexHullV@Gu@physx@@@Gu@physx@@UEBAXHAEAT__m128@@@Z 000000018010c880 f i GuGJKWrapper.obj
 0001:0010b8f0       ?getDir@?$EPASupportMapPairLocalImpl@VTriangleV@Gu@physx@@VCapsuleV@23@@Gu@physx@@UEBA?AT__m128@@XZ 000000018010c8f0 f i GuGJKWrapper.obj
 0001:0010b990       ?getDir@?$EPASupportMapPairRelativeImpl@VCapsuleV@Gu@physx@@V123@@Gu@physx@@UEBA?AT__m128@@XZ 000000018010c990 f i GuGJKWrapper.obj
 0001:0010b9c0       ?getDir@?$EPASupportMapPairRelativeImpl@VCapsuleV@Gu@physx@@VBoxV@23@@Gu@physx@@UEBA?AT__m128@@XZ 000000018010c9c0 f i GuGJKWrapper.obj
 0001:0010b9f0       ?getDir@?$EPASupportMapPairRelativeImpl@VCapsuleV@Gu@physx@@VConvexHullV@23@@Gu@physx@@UEBA?AT__m128@@XZ 000000018010c9f0 f i GuGJKWrapper.obj
 0001:0010ba20       ?getDir@?$EPASupportMapPairRelativeImpl@VTriangleV@Gu@physx@@VBoxV@23@@Gu@physx@@UEBA?AT__m128@@XZ 000000018010ca20 f i GuGJKWrapper.obj
 0001:0010ba50       ?getDir@?$EPASupportMapPairRelativeImpl@VTriangleV@Gu@physx@@VCapsuleV@23@@Gu@physx@@UEBA?AT__m128@@XZ 000000018010ca50 f i GuGJKWrapper.obj
 0001:0010ba80       ?getDir@?$EPASupportMapPairRelativeImpl@VTriangleV@Gu@physx@@VConvexHullV@23@@Gu@physx@@UEBA?AT__m128@@XZ 000000018010ca80 f i GuGJKWrapper.obj
 0001:0010bab0       ?getSweepContactEps@Gu@physx@@YA?AT__m128@@AEBT3@0@Z 000000018010cab0 f i GuGJKWrapper.obj
 0001:0010bb90       ?getSweepMargin@CapsuleV@Gu@physx@@QEBA?AT__m128@@XZ 000000018010cb90 f i GuGJKWrapper.obj
 0001:0010bbd0       ?getSweepMargin@ConvexV@Gu@physx@@QEBA?AT__m128@@XZ 000000018010cbd0 f i GuGJKWrapper.obj
 0001:0010bc00       ?getSweepMargin@TriangleV@Gu@physx@@QEBA?AT__m128@@XZ 000000018010cc00 f i GuGJKWrapper.obj
 0001:0010bc40       ?supportRelative@CapsuleV@Gu@physx@@QEBA?AT__m128@@AEBT4@AEBVPsMatTransformV@aos@shdfnd@3@@Z 000000018010cc40 f i GuGJKWrapper.obj
 0001:0010bcc0       ?supportRelative@TriangleV@Gu@physx@@QEBA?AT__m128@@AEBT4@AEBVPsMatTransformV@aos@shdfnd@3@@Z 000000018010ccc0 f i GuGJKWrapper.obj
 0001:0010bd40       ?supportSweepLocal@BoxV@Gu@physx@@QEBA?AT__m128@@AEBT4@@Z 000000018010cd40 f i GuGJKWrapper.obj
 0001:0010bd80       ?supportSweepLocal@CapsuleV@Gu@physx@@QEBA?AT__m128@@AEBT4@@Z 000000018010cd80 f i GuGJKWrapper.obj
 0001:0010bdc0       ?supportSweepLocal@ConvexHullV@Gu@physx@@QEBA?AT__m128@@AEBT4@@Z 000000018010cdc0 f i GuGJKWrapper.obj
 0001:0010be00       ?supportSweepLocal@TriangleV@Gu@physx@@QEBA?AT__m128@@AEBT4@@Z 000000018010ce00 f i GuGJKWrapper.obj
 0001:0010be40       ?supportSweepRelative@BoxV@Gu@physx@@QEBA?AT__m128@@AEBT4@AEBVPsMatTransformV@aos@shdfnd@3@@Z 000000018010ce40 f i GuGJKWrapper.obj
 0001:0010be90       ?supportSweepRelative@CapsuleV@Gu@physx@@QEBA?AT__m128@@AEBT4@AEBVPsMatTransformV@aos@shdfnd@3@@Z 000000018010ce90 f i GuGJKWrapper.obj
 0001:0010bee0       ?supportSweepRelative@ConvexHullV@Gu@physx@@QEBA?AT__m128@@AEBT4@AEBVPsMatTransformV@aos@shdfnd@3@@Z 000000018010cee0 f i GuGJKWrapper.obj
 0001:0010bf30       ?supportSweepRelative@TriangleV@Gu@physx@@QEBA?AT__m128@@AEBT4@AEBVPsMatTransformV@aos@shdfnd@3@@Z 000000018010cf30 f i GuGJKWrapper.obj
 0001:0010bf80       ?create@BoxV@Gu@physx@@QEAAXAEBVCapsuleV@23@@Z 000000018010cf80 f   GuVecBox.obj
 0001:0010c1b0       ?isInside@BoxV@Gu@physx@@QEBAIAEBV123@@Z 000000018010d1b0 f   GuVecBox.obj
 0001:0010c7d0       ??0BoxV@Gu@physx@@QEAA@AEBT__m128@@0AEBUMat33V@aos@shdfnd@2@0@Z 000000018010d7d0 f i GuVecBox.obj
 0001:0010c860       ??0ConvexV@Gu@physx@@QEAA@IAEBT__m128@@0@Z 000000018010d860 f i GuVecBox.obj
 0001:0010c9a0       ??0Mat33V@aos@shdfnd@physx@@QEAA@AEBT__m128@@00@Z 000000018010d9a0 f i GuVecBox.obj
 0001:0010ca00       ??0Mat34V@aos@shdfnd@physx@@QEAA@AEBT__m128@@000@Z 000000018010da00 f i GuVecBox.obj
 0001:0010ca80       ?BAllTrue3@aos@shdfnd@physx@@YA?AT__m128@@T4@@Z 000000018010da80 f i GuVecBox.obj
 0001:0010cb40       ?BAnyTrue3@aos@shdfnd@physx@@YA?AT__m128@@T4@@Z 000000018010db40 f i GuVecBox.obj
 0001:0010cc00       ?BFTTT@aos@shdfnd@physx@@YA?AT__m128@@XZ 000000018010dc00 f i GuVecBox.obj
 0001:0010cc50       ?FMulAdd@aos@shdfnd@physx@@YA?AT__m128@@T4@00@Z 000000018010dc50 f i GuVecBox.obj
 0001:0010ccd0       ?M33Abs@aos@shdfnd@physx@@YA?AUMat33V@123@AEBU4123@@Z 000000018010dcd0 f i GuVecBox.obj
 0001:0010cda0       ?M33Identity@aos@shdfnd@physx@@YA?AUMat33V@123@XZ 000000018010dda0 f i GuVecBox.obj
 0001:0010ce00       ?M33MulM33@aos@shdfnd@physx@@YA?AUMat33V@123@AEBU4123@0@Z 000000018010de00 f i GuVecBox.obj
 0001:0010cef0       ?M33Trnsps@aos@shdfnd@physx@@YA?AUMat33V@123@AEBU4123@@Z 000000018010def0 f i GuVecBox.obj
 0001:0010cf80       ?M34MulV3@aos@shdfnd@physx@@YA?AT__m128@@AEBUMat34V@123@T4@@Z 000000018010df80 f i GuVecBox.obj
 0001:0010d290       ?V3IsGrtrOrEq@aos@shdfnd@physx@@YA?AT__m128@@T4@0@Z 000000018010e290 f i GuVecBox.obj
 0001:0010d2d0       ?V3Merge@aos@shdfnd@physx@@YA?AT__m128@@AEBT4@00@Z 000000018010e2d0 f i GuVecBox.obj
 0001:0010d390       ?V3SetX@aos@shdfnd@physx@@YA?AT__m128@@T4@0@Z 000000018010e390 f i GuVecBox.obj
 0001:0010d410       ?V3UnitY@aos@shdfnd@physx@@YA?AT__m128@@XZ 000000018010e410 f i GuVecBox.obj
 0001:0010d470       ?V3UnitZ@aos@shdfnd@physx@@YA?AT__m128@@XZ 000000018010e470 f i GuVecBox.obj
 0001:0010d4d0       ?Vec3V_From_FloatV_WUndefined@aos@shdfnd@physx@@YA?AT__m128@@T4@@Z 000000018010e4d0 f i GuVecBox.obj
 0001:0010d530       ?Vec3V_From_Vec4V_WUndefined@aos@shdfnd@physx@@YA?AT__m128@@T4@@Z 000000018010e530 f i GuVecBox.obj
 0001:0010d550       ?computeBasis2@@YAXAEBT__m128@@AEAT1@1@Z 000000018010e550 f i GuVecBox.obj
 0001:0010dae0       ?computeDirection@CapsuleV@Gu@physx@@QEBA?AT__m128@@XZ 000000018010eae0 f i GuVecBox.obj
 0001:0010db50       ?rotate@BoxV@Gu@physx@@QEBAXAEBUMat34V@aos@shdfnd@3@AEAV123@@Z 000000018010eb50 f i GuVecBox.obj
 0001:0010dc70       ?intersectOBBOBB@Gu@physx@@YA_NAEBVPxVec3@2@0AEBVPxMat33@2@001_N@Z 000000018010ec70 f   GuIntersectionBoxBox.obj
 0001:0010f4d0       ?intersectEdgeEdge@Gu@physx@@YA_NAEBVPxVec3@2@0000AEAMAEAV32@@Z 00000001801104d0 f   GuIntersectionEdgeEdge.obj
 0001:0010fa70       ?rayAABBIntersect@Gu@physx@@YA_NAEBVPxVec3@2@000AEAV32@@Z 0000000180110a70 f   GuIntersectionRayBox.obj
 0001:0010fec0       ?rayAABBIntersect2@Gu@physx@@YAIAEBVPxVec3@2@000AEAV32@AEAM@Z 0000000180110ec0 f   GuIntersectionRayBox.obj
 0001:00110340       ?intersectRayAABB@Gu@physx@@YAHAEBVPxVec3@2@000AEAM1@Z 0000000180111340 f   GuIntersectionRayBox.obj
 0001:00110610       ?intersectRayAABB@Gu@physx@@YAHAEBVPxVec3@2@0000AEAM1@Z 0000000180111610 f   GuIntersectionRayBox.obj
 0001:00110a00       ?intersectRayAABB2@Gu@physx@@YA_NAEBVPxVec3@2@000MAEAM1@Z 0000000180111a00 f   GuIntersectionRayBox.obj
 0001:00110ea0       ?intersectRayAABB@Gu@physx@@YAHAEBT__m128@@000AEAT3@1@Z 0000000180111ea0 f   GuIntersectionRayBox.obj
 0001:00111ac0       ?intersectRayAABB@Gu@physx@@YAHAEBT__m128@@0000AEAT3@1@Z 0000000180112ac0 f   GuIntersectionRayBox.obj
 0001:001126b0       ?intersectRayAABB2@Gu@physx@@YA_NAEBT__m128@@0000AEAT3@1@Z 00000001801136b0 f   GuIntersectionRayBox.obj
 0001:00113950       ?FStore@aos@shdfnd@physx@@YAMT__m128@@@Z 0000000180114950 f i GuIntersectionRayBox.obj
 0001:00113980       ?V3Min@aos@shdfnd@physx@@YA?AT__m128@@T4@0@Z 0000000180114980 f i GuIntersectionRayBox.obj
 0001:001139c0       ?V3One@aos@shdfnd@physx@@YA?AT__m128@@XZ 00000001801149c0 f i GuIntersectionRayBox.obj
 0001:001139f0       ?V3Recip@aos@shdfnd@physx@@YA?AT__m128@@T4@@Z 00000001801149f0 f i GuIntersectionRayBox.obj
 0001:00113ae0       ?V3Sign@aos@shdfnd@physx@@YA?AT__m128@@T4@@Z 0000000180114ae0 f i GuIntersectionRayBox.obj
 0001:00113c20       ?V4LoadA@aos@shdfnd@physx@@YA?AT__m128@@QEBM@Z 0000000180114c20 f i GuIntersectionRayBox.obj
 0001:00113c50       ?recip@intrinsics@physx@@YAMM@Z 0000000180114c50 f i GuIntersectionRayBox.obj
 0001:00113c70       ?intersectRayCapsule@Gu@physx@@YAIAEBVPxVec3@2@0AEBVCapsule@12@QEAM@Z 0000000180114c70 f   GuIntersectionRayCapsule.obj
 0001:00114d90       ?computeDirection@Segment@Gu@physx@@QEBAXAEAVPxVec3@3@@Z 0000000180115d90 f i GuIntersectionRayCapsule.obj
 0001:00114de0       ?intersectRaySphereBasic@Gu@physx@@YA_NAEBVPxVec3@2@0M0MAEAMPEAV32@@Z 0000000180115de0 f   GuIntersectionRaySphere.obj
 0001:00114fa0       ?intersectRaySphere@Gu@physx@@YA_NAEBVPxVec3@2@0M0MAEAMPEAV32@@Z 0000000180115fa0 f   GuIntersectionRaySphere.obj
 0001:00115230       ?intersectRayTriangleCulling@Gu@physx@@YA_NAEBVPxVec3@2@0000AEAM11M@Z 0000000180116230 f   GuIntersectionRayTriangle.obj
 0001:00115460       ?intersectRayTriangleNoCulling@Gu@physx@@YA_NAEBVPxVec3@2@0000AEAM11M@Z 0000000180116460 f   GuIntersectionRayTriangle.obj
 0001:00115750       ??0OBBTriangleTest@Gu@physx@@QEAA@AEBVBox@12@@Z 0000000180116750 f   GuIntersectionTriangleBox.obj
 0001:00115940       ?obbTriTest@OBBTriangleTest@Gu@physx@@QEBAHAEBVPxVec3@3@00@Z 0000000180116940 f   GuIntersectionTriangleBox.obj
 0001:001177d0       ?intersectTriangleBox@Gu@physx@@YAHAEBVPxVec3@2@0000@Z 00000001801187d0 f   GuIntersectionTriangleBox.obj
 0001:001183b0       ?intersectTriangleBox@Gu@physx@@YA_NAEBT__m128@@0000@Z 00000001801193b0 f   GuIntersectionTriangleBox.obj
 0001:0011b6f0       ?BTFTT@aos@shdfnd@physx@@YA?AT__m128@@XZ 000000018011c6f0 f i GuIntersectionTriangleBox.obj
 0001:0011b740       ?FOutOfBounds@aos@shdfnd@physx@@YAIT__m128@@00@Z 000000018011c740 f i GuIntersectionTriangleBox.obj
 0001:0011b8d0       ?FOutOfBounds@aos@shdfnd@physx@@YAIT__m128@@0@Z 000000018011c8d0 f i GuIntersectionTriangleBox.obj
 0001:0011b960       ?M33MulV3AddV3@aos@shdfnd@physx@@YA?AT__m128@@AEBUMat33V@123@T4@1@Z 000000018011c960 f i GuIntersectionTriangleBox.obj
 0001:0011bbb0       ?V3MulAdd@aos@shdfnd@physx@@YA?AT__m128@@T4@00@Z 000000018011cbb0 f i GuIntersectionTriangleBox.obj
 0001:0011bc60       ?V3Perm_0Z_Zero_1X@aos@shdfnd@physx@@YA?AT__m128@@T4@0@Z 000000018011cc60 f i GuIntersectionTriangleBox.obj
 0001:0011bca0       ?V3Perm_1Y_0X_Zero@aos@shdfnd@physx@@YA?AT__m128@@T4@0@Z 000000018011cca0 f i GuIntersectionTriangleBox.obj
 0001:0011be00       ?V3Perm_Zero_1Z_0Y@aos@shdfnd@physx@@YA?AT__m128@@T4@0@Z 000000018011ce00 f i GuIntersectionTriangleBox.obj
 0001:0011be40       ?V3SetY@aos@shdfnd@physx@@YA?AT__m128@@T4@0@Z 000000018011ce40 f i GuIntersectionTriangleBox.obj
 0001:0011bec0       ??0RTreeMidphase@Gu@physx@@QEAA@XZ 000000018011cec0 f   GuHybridModel.obj
 0001:0011bf00       ??1RTreeMidphase@Gu@physx@@QEAA@XZ 000000018011cf00 f   GuHybridModel.obj
 0001:0011bf30       ?exportExtraData@RTreeMidphase@Gu@physx@@QEAAXAEAVPxSerializationContext@3@@Z 000000018011cf30 f   GuHybridModel.obj
 0001:0011bf60       ?importExtraData@RTreeMidphase@Gu@physx@@QEAAXAEAVPxDeserializationContext@3@@Z 000000018011cf60 f   GuHybridModel.obj
 0001:0011bfc0       ?exportExtraData@InternalTriangleMesh@physx@@QEAAXAEAVPxSerializationContext@2@@Z 000000018011cfc0 f   GuInternalTriangleMesh.obj
 0001:0011c220       ?importExtraData@InternalTriangleMesh@physx@@QEAAXAEAVPxDeserializationContext@2@@Z 000000018011d220 f   GuInternalTriangleMesh.obj
 0001:0011c3b0       ??0InternalTriangleMesh@physx@@QEAA@XZ 000000018011d3b0 f   GuInternalTriangleMesh.obj
 0001:0011c4e0       ??1InternalTriangleMesh@physx@@QEAA@XZ 000000018011d4e0 f   GuInternalTriangleMesh.obj
 0001:0011c520       ?release@InternalTriangleMesh@physx@@QEAAXXZ 000000018011d520 f   GuInternalTriangleMesh.obj
 0001:0011c6c0       ?allocateVertices@InternalTriangleMesh@physx@@QEAAPEAVPxVec3@2@I@Z 000000018011d6c0 f   GuInternalTriangleMesh.obj
 0001:0011c7a0       ?allocateTriangles@InternalTriangleMesh@physx@@QEAAPEAXI_N@Z 000000018011d7a0 f   GuInternalTriangleMesh.obj
 0001:0011c930       ?allocateMaterials@InternalTriangleMesh@physx@@QEAAPEAGXZ 000000018011d930 f   GuInternalTriangleMesh.obj
 0001:0011ca30       ?allocateFaceRemap@InternalTriangleMesh@physx@@QEAAPEAIXZ 000000018011da30 f   GuInternalTriangleMesh.obj
 0001:0011cb30       ?allocateAdjacencies@InternalTriangleMesh@physx@@QEAAPEAIXZ 000000018011db30 f   GuInternalTriangleMesh.obj
 0001:0011cc60       ?loadRTree@InternalTriangleMesh@physx@@QEAA_NAEAVPxInputStream@2@I@Z 000000018011dc60 f   GuInternalTriangleMesh.obj
 0001:0011cd80       ?setupMeshInterface@InternalTriangleMesh@physx@@QEAAXXZ 000000018011dd80 f   GuInternalTriangleMesh.obj
 0001:0011d1b0       ??$?_UG@@YAPEAX_KV?$ReflectionAllocator@G@shdfnd@physx@@PEBDH@Z 000000018011e1b0 f i GuInternalTriangleMesh.obj
 0001:0011d200       ??$?_UI@@YAPEAX_KV?$ReflectionAllocator@I@shdfnd@physx@@PEBDH@Z 000000018011e200 f i GuInternalTriangleMesh.obj
 0001:0011d250       ??$readExtraData@G$0BA@@PxDeserializationContext@physx@@QEAAPEAGI@Z 000000018011e250 f i GuInternalTriangleMesh.obj
 0001:0011d290       ??$readExtraData@G@PxDeserializationContext@physx@@QEAAPEAGI@Z 000000018011e290 f i GuInternalTriangleMesh.obj
 0001:0011d2e0       ??$readExtraData@I$0BA@@PxDeserializationContext@physx@@QEAAPEAII@Z 000000018011e2e0 f i GuInternalTriangleMesh.obj
 0001:0011d320       ??$readExtraData@I@PxDeserializationContext@physx@@QEAAPEAII@Z 000000018011e320 f i GuInternalTriangleMesh.obj
 0001:0011d370       ??$readExtraData@VPxVec3@physx@@$0BA@@PxDeserializationContext@physx@@QEAAPEAVPxVec3@1@I@Z 000000018011e370 f i GuInternalTriangleMesh.obj
 0001:0011d3b0       ??$readExtraData@VPxVec3@physx@@@PxDeserializationContext@physx@@QEAAPEAVPxVec3@1@I@Z 000000018011e3b0 f i GuInternalTriangleMesh.obj
 0001:0011d400       ??0?$ReflectionAllocator@G@shdfnd@physx@@QEAA@PEBD@Z 000000018011e400 f i GuInternalTriangleMesh.obj
 0001:0011d420       ??0?$ReflectionAllocator@I@shdfnd@physx@@QEAA@PEBD@Z 000000018011e420 f i GuInternalTriangleMesh.obj
 0001:0011d440       ??0InternalTriangleMeshData@Gu@physx@@QEAA@XZ 000000018011e440 f i GuInternalTriangleMesh.obj
 0001:0011d490       ??1InternalTriangleMeshData@Gu@physx@@QEAA@XZ 000000018011e490 f i GuInternalTriangleMesh.obj
 0001:0011d4c0       ?allocate@?$ReflectionAllocator@G@shdfnd@physx@@QEAAPEAX_KPEBDH@Z 000000018011e4c0 f i GuInternalTriangleMesh.obj
 0001:0011d560       ?allocate@?$ReflectionAllocator@I@shdfnd@physx@@QEAAPEAX_KPEBDH@Z 000000018011e560 f i GuInternalTriangleMesh.obj
 0001:0011d600       ?getName@?$ReflectionAllocator@G@shdfnd@physx@@CAPEBDXZ 000000018011e600 f i GuInternalTriangleMesh.obj
 0001:0011d650       ?getName@?$ReflectionAllocator@I@shdfnd@physx@@CAPEBDXZ 000000018011e650 f i GuInternalTriangleMesh.obj
 0001:0011d6a0       ??0MeshInterface@Gu@physx@@QEAA@XZ 000000018011e6a0 f   GuMeshInterface.obj
 0001:0011d6f0       ??1MeshInterface@Gu@physx@@QEAA@XZ 000000018011e6f0 f   GuMeshInterface.obj
 0001:0011d700       ?SetPointers@MeshInterface@Gu@physx@@QEAA_NPEBX_NPEBVPxVec3@3@@Z 000000018011e700 f   GuMeshInterface.obj
 0001:0011d790       ?IsValid@MeshInterface@Gu@physx@@QEBA_NXZ 000000018011e790 f   GuMeshInterface.obj
 0001:0011d7e0       ?CheckTopology@MeshInterface@Gu@physx@@QEBAIXZ 000000018011e7e0 f   GuMeshInterface.obj
 0001:0011d920       ?getTriangle@PxMeshQuery@physx@@SAXAEBVPxTriangleMeshGeometry@2@AEBVPxTransform@2@IAEAVPxTriangle@2@PEAI3@Z 000000018011e920 f   GuMeshQuery.obj
 0001:0011da60       ?getTriangle@PxMeshQuery@physx@@SAXAEBVPxHeightFieldGeometry@2@AEBVPxTransform@2@IAEAVPxTriangle@2@PEAI3@Z 000000018011ea60 f   GuMeshQuery.obj
 0001:0011dae0       ?findOverlapTriangleMesh@PxMeshQuery@physx@@SAIAEBVPxGeometry@2@AEBVPxTransform@2@AEBVPxTriangleMeshGeometry@2@1PEAIIIAEA_N@Z 000000018011eae0 f   GuMeshQuery.obj
 0001:0011de60       ?findOverlapHeightField@PxMeshQuery@physx@@SAIAEBVPxGeometry@2@AEBVPxTransform@2@AEBVPxHeightFieldGeometry@2@1PEAIIIAEA_N@Z 000000018011ee60 f   GuMeshQuery.obj
 0001:0011e190       ?sweep@PxMeshQuery@physx@@SA_NAEBVPxVec3@2@MAEBVPxGeometry@2@AEBVPxTransform@2@IPEBVPxTriangle@2@AEAUPxSweepHit@2@V?$PxFlags@W4Enum@PxHitFlag@physx@@G@2@PEBIM_N@Z 000000018011f190 f   GuMeshQuery.obj
 0001:0011eda0       ??0PxBoxGeometry@physx@@QEAA@XZ 000000018011fda0 f i GuMeshQuery.obj
 0001:0011edf0       ??0PxCapsuleGeometry@physx@@QEAA@MM@Z 000000018011fdf0 f i GuMeshQuery.obj
 0001:0011ee80       ??4PxBoxGeometry@physx@@QEAAAEAV01@AEBV01@@Z 000000018011fe80 f i GuMeshQuery.obj
 0001:0011eed0       ??Dphysx@@YA?AVMatrix34@Cm@0@AEBVPxTransform@0@AEBVPxMeshScale@0@@Z 000000018011fed0 f i GuMeshQuery.obj
 0001:0011ef90       ??_EHfTrianglesEntityReport2@?A0xdf4583eb@@UEAAPEAXI@Z 000000018011ff90 f i GuMeshQuery.obj
 0001:0011ef90       ??_GHfTrianglesEntityReport2@?A0xdf4583eb@@UEAAPEAXI@Z 000000018011ff90 f i GuMeshQuery.obj
 0001:0011f080       ?buildFrom@physx@@YAXAEAVBox@Gu@1@AEBVPxVec3@1@1AEBVPxQuat@1@@Z 0000000180120080 f i GuMeshQuery.obj
 0001:0011f100       ?centerExtents@PxBounds3@physx@@SA?AV12@AEBVPxVec3@2@0@Z 0000000180120100 f i GuMeshQuery.obj
 0001:0011f180       ?computeWorldTriangle@TriangleMesh@Gu@physx@@QEBAXAEAVPxTriangle@3@IAEBVMatrix34@Cm@3@PEIAI2@Z 0000000180120180 f i GuMeshQuery.obj
 0001:0011f5b0       ?getCapsule@Gu@physx@@YAXAEAVCapsule@12@AEBVPxCapsuleGeometry@2@AEBVPxTransform@2@@Z 00000001801205b0 f i GuMeshQuery.obj
 0001:0011f600       ?getCollisionModel@TriangleMesh@Gu@physx@@QEBAAEBVRTreeMidphase@23@XZ 0000000180120600 f i GuMeshQuery.obj
 0001:0011f630       ?getTrianglesFast@TriangleMesh@Gu@physx@@QEBAPEBXXZ 0000000180120630 f i GuMeshQuery.obj
 0001:0011f660       ?getVerticesFast@TriangleMesh@Gu@physx@@QEBAPEBVPxVec3@3@XZ 0000000180120660 f i GuMeshQuery.obj
 0001:0011f690       ?isUnit@PxQuat@physx@@QEBA_NXZ 0000000180120690 f i GuMeshQuery.obj
 0001:0011f710       ?isValid@PxTransform@physx@@QEBA_NXZ 0000000180120710 f i GuMeshQuery.obj
 0001:0011fa80       ?poseExtent@PxBounds3@physx@@SA?AV12@AEBVPxTransform@2@AEBVPxVec3@2@@Z 0000000180120a80 f i GuMeshQuery.obj
 0001:0011fae0       ?collideOBB@MeshRayCollider@Gu@physx@@SAXAEBVBox@23@_NAEBURTreeMidphaseData@23@AEAU?$MeshHitCallback@UPxRaycastHit@physx@@@23@1@Z 0000000180120ae0 f   GuMidphase.obj
 0001:0011fe60       ??$collide@$00$00@MeshRayCollider@Gu@physx@@SAXAEBVPxVec3@2@0M_NAEBURTreeMidphaseData@12@AEAU?$MeshHitCallback@UPxRaycastHit@physx@@@12@PEBV32@@Z 0000000180120e60 f i GuMidphase.obj
 0001:001202c0       ??$collide@$00$0A@@MeshRayCollider@Gu@physx@@SAXAEBVPxVec3@2@0M_NAEBURTreeMidphaseData@12@AEAU?$MeshHitCallback@UPxRaycastHit@physx@@@12@PEBV32@@Z 00000001801212c0 f i GuMidphase.obj
 0001:00120720       ??$collide@$0A@$00@MeshRayCollider@Gu@physx@@SAXAEBVPxVec3@2@0M_NAEBURTreeMidphaseData@12@AEAU?$MeshHitCallback@UPxRaycastHit@physx@@@12@PEBV32@@Z 0000000180121720 f i GuMidphase.obj
 0001:00120b80       ??$collide@$0A@$0A@@MeshRayCollider@Gu@physx@@SAXAEBVPxVec3@2@0M_NAEBURTreeMidphaseData@12@AEAU?$MeshHitCallback@UPxRaycastHit@physx@@@12@PEBV32@@Z 0000000180121b80 f i GuMidphase.obj
 0001:00120fe0       ??$memFetchAsync@I@Cm@physx@@YAPEAI_KIAEAUMemFetchSmallBuffer@01@@Z 0000000180121fe0 f i GuMidphase.obj
 0001:00121000       ??$memFetchAsync@_K@Cm@physx@@YAPEA_K_KIAEAUMemFetchSmallBuffer@01@@Z 0000000180122000 f i GuMidphase.obj
 0001:00121020       ??0?$PxFlags@W4Enum@PxHitFlag@physx@@G@physx@@QEAA@G@Z 0000000180122020 f i GuMidphase.obj
 0001:00121050       ??0?$RayRTreeCallback@$00$00@@QEAA@AEBURTreeMidphaseData@Gu@physx@@AEAU?$MeshHitCallback@UPxRaycastHit@physx@@@23@IPEA_K2AEBVPxVec3@3@3M_NPEBV53@@Z 0000000180122050 f i GuMidphase.obj
 0001:001213a0       ??0?$RayRTreeCallback@$00$0A@@@QEAA@AEBURTreeMidphaseData@Gu@physx@@AEAU?$MeshHitCallback@UPxRaycastHit@physx@@@23@IPEA_K2AEBVPxVec3@3@3M_NPEBV53@@Z 00000001801223a0 f i GuMidphase.obj
 0001:001216f0       ??0?$RayRTreeCallback@$0A@$00@@QEAA@AEBURTreeMidphaseData@Gu@physx@@AEAU?$MeshHitCallback@UPxRaycastHit@physx@@@23@IPEA_K2AEBVPxVec3@3@3M_NPEBV53@@Z 00000001801226f0 f i GuMidphase.obj
 0001:00121a40       ??0?$RayRTreeCallback@$0A@$0A@@@QEAA@AEBURTreeMidphaseData@Gu@physx@@AEAU?$MeshHitCallback@UPxRaycastHit@physx@@@23@IPEA_K2AEBVPxVec3@3@3M_NPEBV53@@Z 0000000180122a40 f i GuMidphase.obj
 0001:00121d90       ??0Callback@RTree@Gu@physx@@QEAA@XZ 0000000180122d90 f i GuMidphase.obj
 0001:00121db0       ??0CallbackRaycast@RTree@Gu@physx@@QEAA@XZ 0000000180122db0 f i GuMidphase.obj
 0001:00121dd0       ??0PxActorShape@physx@@QEAA@XZ 0000000180122dd0 f i GuMidphase.obj
 0001:00121e00       ??0PxLocationHit@physx@@QEAA@XZ 0000000180122e00 f i GuMidphase.obj
 0001:00121e90       ??0PxQueryHit@physx@@QEAA@XZ 0000000180122e90 f i GuMidphase.obj
 0001:00121ed0       ??0PxRaycastHit@physx@@QEAA@XZ 0000000180122ed0 f i GuMidphase.obj
 0001:00121f20       ??0SimpleRayTriOverlap@@QEAA@AEBVPxVec3@physx@@0_NM@Z 0000000180122f20 f i GuMidphase.obj
 0001:00121fa0       ??1?$RayRTreeCallback@$00$00@@UEAA@XZ 0000000180122fa0 f i GuMidphase.obj
 0001:00122130       ??1?$RayRTreeCallback@$00$0A@@@UEAA@XZ 0000000180123130 f i GuMidphase.obj
 0001:001222c0       ??1?$RayRTreeCallback@$0A@$00@@UEAA@XZ 00000001801232c0 f i GuMidphase.obj
 0001:00122450       ??1?$RayRTreeCallback@$0A@$0A@@@UEAA@XZ 0000000180123450 f i GuMidphase.obj
 0001:001225e0       ??1Callback@RTree@Gu@physx@@UEAA@XZ 00000001801235e0 f i GuMidphase.obj
 0001:00122600       ??1CallbackRaycast@RTree@Gu@physx@@UEAA@XZ 0000000180123600 f i GuMidphase.obj
 0001:00122620       ??4PxLocationHit@physx@@QEAAAEAU01@AEBU01@@Z 0000000180123620 f i GuMidphase.obj
 0001:001226e0       ??4PxRaycastHit@physx@@QEAAAEAU01@AEBU01@@Z 00000001801236e0 f i GuMidphase.obj
 0001:00122744       ??_E?$RayRTreeCallback@$00$00@@W7EAAPEAXI@Z 0000000180123744 f i GuMidphase.obj
 0001:00122750       ??_E?$RayRTreeCallback@$00$0A@@@W7EAAPEAXI@Z 0000000180123750 f i GuMidphase.obj
 0001:0012275c       ??_E?$RayRTreeCallback@$0A@$00@@W7EAAPEAXI@Z 000000018012375c f i GuMidphase.obj
 0001:00122768       ??_E?$RayRTreeCallback@$0A@$0A@@@W7EAAPEAXI@Z 0000000180123768 f i GuMidphase.obj
 0001:00122780       ??_G?$RayRTreeCallback@$00$00@@UEAAPEAXI@Z 0000000180123780 f i GuMidphase.obj
 0001:00122780       ??_E?$RayRTreeCallback@$00$00@@UEAAPEAXI@Z 0000000180123780 f i GuMidphase.obj
 0001:001227d0       ??_G?$RayRTreeCallback@$00$0A@@@UEAAPEAXI@Z 00000001801237d0 f i GuMidphase.obj
 0001:001227d0       ??_E?$RayRTreeCallback@$00$0A@@@UEAAPEAXI@Z 00000001801237d0 f i GuMidphase.obj
 0001:00122820       ??_G?$RayRTreeCallback@$0A@$00@@UEAAPEAXI@Z 0000000180123820 f i GuMidphase.obj
 0001:00122820       ??_E?$RayRTreeCallback@$0A@$00@@UEAAPEAXI@Z 0000000180123820 f i GuMidphase.obj
 0001:00122870       ??_E?$RayRTreeCallback@$0A@$0A@@@UEAAPEAXI@Z 0000000180123870 f i GuMidphase.obj
 0001:00122870       ??_G?$RayRTreeCallback@$0A@$0A@@@UEAAPEAXI@Z 0000000180123870 f i GuMidphase.obj
 0001:001228c0       ??_GCallback@RTree@Gu@physx@@UEAAPEAXI@Z 00000001801238c0 f i GuMidphase.obj
 0001:001228c0       ??_ECallback@RTree@Gu@physx@@UEAAPEAXI@Z 00000001801238c0 f i GuMidphase.obj
 0001:00122910       ??_GCallbackRaycast@RTree@Gu@physx@@UEAAPEAXI@Z 0000000180123910 f i GuMidphase.obj
 0001:00122910       ??_ECallbackRaycast@RTree@Gu@physx@@UEAAPEAXI@Z 0000000180123910 f i GuMidphase.obj
 0001:00122960       ?GetNbTriangles@LeafTriangles@Gu@physx@@QEBAIXZ 0000000180123960 f i GuMidphase.obj
 0001:00122980       ?GetTriangleIndex@LeafTriangles@Gu@physx@@QEBAIXZ 0000000180123980 f i GuMidphase.obj
 0001:001229a0       ?LeafGetNbTriangles@Gu@physx@@YAII@Z 00000001801239a0 f i GuMidphase.obj
 0001:001229c0       ?LeafGetTriangleIndex@Gu@physx@@YAII@Z 00000001801239c0 f i GuMidphase.obj
 0001:001229d0       ?getVertIndices@?$RayRTreeCallback@$00$00@@QEAAXIAEAI00@Z 00000001801239d0 f i GuMidphase.obj
 0001:00122b00       ?getVertIndices@?$RayRTreeCallback@$00$0A@@@QEAAXIAEAI00@Z 0000000180123b00 f i GuMidphase.obj
 0001:00122c30       ?getVertIndices@?$RayRTreeCallback@$0A@$00@@QEAAXIAEAI00@Z 0000000180123c30 f i GuMidphase.obj
 0001:00122d60       ?getVertIndices@?$RayRTreeCallback@$0A@$0A@@@QEAAXIAEAI00@Z 0000000180123d60 f i GuMidphase.obj
 0001:00122e90       ?inAnyMode@?$MeshHitCallback@UPxRaycastHit@physx@@@Gu@physx@@QEBA_NXZ 0000000180123e90 f i GuMidphase.obj
 0001:00122ed0       ?inClosestMode@?$MeshHitCallback@UPxRaycastHit@physx@@@Gu@physx@@QEBA_NXZ 0000000180123ed0 f i GuMidphase.obj
 0001:00122f10       ?overlap@SimpleRayTriOverlap@@QEBAHAEBVPxVec3@physx@@00AEAUPxRaycastHit@3@@Z 0000000180123f10 f i GuMidphase.obj
 0001:00123400       ?processResults@?$RayRTreeCallback@$00$00@@UEAA_NIPEAI@Z 0000000180124400 f i GuMidphase.obj
 0001:00123450       ?processResults@?$RayRTreeCallback@$00$00@@UEAA_NIPEAIAEAM@Z 0000000180124450 f i GuMidphase.obj
 0001:00123ef0       ?processResults@?$RayRTreeCallback@$00$0A@@@UEAA_NIPEAI@Z 0000000180124ef0 f i GuMidphase.obj
 0001:00123f40       ?processResults@?$RayRTreeCallback@$00$0A@@@UEAA_NIPEAIAEAM@Z 0000000180124f40 f i GuMidphase.obj
 0001:001249e0       ?processResults@?$RayRTreeCallback@$0A@$00@@UEAA_NIPEAI@Z 00000001801259e0 f i GuMidphase.obj
 0001:00124a30       ?processResults@?$RayRTreeCallback@$0A@$00@@UEAA_NIPEAIAEAM@Z 0000000180125a30 f i GuMidphase.obj
 0001:001254d0       ?processResults@?$RayRTreeCallback@$0A@$0A@@@UEAA_NIPEAI@Z 00000001801264d0 f i GuMidphase.obj
 0001:00125520       ?processResults@?$RayRTreeCallback@$0A@$0A@@@UEAA_NIPEAIAEAM@Z 0000000180126520 f i GuMidphase.obj
 0001:00125fc0       ?profile@Callback@RTree@Gu@physx@@UEAAXXZ 0000000180126fc0 f i GuMidphase.obj
 0001:00125fd0       ?findOverlapSphereMesh@Gu@physx@@YAIAEBVSphere@12@AEBVRTreeMidphase@12@AEBVPxTransform@2@AEBVPxMeshScale@2@PEIAIIIAEA_N@Z 0000000180126fd0 f   GuOverlapTestsMesh.obj
 0001:00126060       ?findOverlapCapsuleMesh@Gu@physx@@YAIAEBVCapsule@12@AEBVRTreeMidphase@12@AEBVPxTransform@2@AEBVPxMeshScale@2@PEIAIIIAEA_N@Z 0000000180127060 f   GuOverlapTestsMesh.obj
 0001:001260f0       ?findOverlapOBBMesh@Gu@physx@@YAIAEBVBox@12@AEBVRTreeMidphase@12@AEBVPxTransform@2@AEBVPxMeshScale@2@PEIAIIIAEA_N@Z 00000001801270f0 f   GuOverlapTestsMesh.obj
 0001:001261a0       ?checkOverlapOBB_triangleGeom@Gu@physx@@YA_NAEBVPxGeometry@2@AEBVPxTransform@2@AEBVBox@12@@Z 00000001801271a0 f   GuOverlapTestsMesh.obj
 0001:00126490       ?checkOverlapSphere_triangleGeom@@YA_NAEBVPxGeometry@physx@@AEBVPxTransform@2@AEBVSphere@Gu@2@@Z 0000000180127490 f   GuOverlapTestsMesh.obj
 0001:00126570       ?checkOverlapCapsule_triangleGeom@@YA_NAEBVPxGeometry@physx@@AEBVPxTransform@2@AEBVCapsule@Gu@2@@Z 0000000180127570 f   GuOverlapTestsMesh.obj
 0001:00126650       ?GeomOverlapCallback_SphereMesh@@YA_NAEBVPxGeometry@physx@@AEBVPxTransform@2@01PEAUTriggerCache@Gu@2@@Z 0000000180127650 f   GuOverlapTestsMesh.obj
 0001:001267f0       ?GeomOverlapCallback_CapsuleMesh@@YA_NAEBVPxGeometry@physx@@AEBVPxTransform@2@01PEAUTriggerCache@Gu@2@@Z 00000001801277f0 f   GuOverlapTestsMesh.obj
 0001:00126990       ?GeomOverlapCallback_BoxMesh@@YA_NAEBVPxGeometry@physx@@AEBVPxTransform@2@01PEAUTriggerCache@Gu@2@@Z 0000000180127990 f   GuOverlapTestsMesh.obj
 0001:00126b40       ?GeomOverlapCallback_ConvexMesh@@YA_NAEBVPxGeometry@physx@@AEBVPxTransform@2@01PEAUTriggerCache@Gu@2@@Z 0000000180127b40 f   GuOverlapTestsMesh.obj
 0001:0012b440       ??$PX_UNUSED@PEAUTriggerCache@Gu@physx@@@@YAXAEBQEAUTriggerCache@Gu@physx@@@Z 000000018012c440 f i GuOverlapTestsMesh.obj
 0001:0012b450       ??0?$IntersectAnyVsMeshCallback@$00$00@@QEAA@AEBVRTreeMidphase@Gu@physx@@AEBVPxMat33@3@PEAULimitedResults@@@Z 000000018012c450 f i GuOverlapTestsMesh.obj
 0001:0012b530       ??0?$IntersectAnyVsMeshCallback@$00$0A@@@QEAA@AEBVRTreeMidphase@Gu@physx@@AEBVPxMat33@3@PEAULimitedResults@@@Z 000000018012c530 f i GuOverlapTestsMesh.obj
 0001:0012b610       ??0?$IntersectAnyVsMeshCallback@$01$00@@QEAA@AEBVRTreeMidphase@Gu@physx@@AEBVPxMat33@3@PEAULimitedResults@@@Z 000000018012c610 f i GuOverlapTestsMesh.obj
 0001:0012b6f0       ??0?$IntersectAnyVsMeshCallback@$01$0A@@@QEAA@AEBVRTreeMidphase@Gu@physx@@AEBVPxMat33@3@PEAULimitedResults@@@Z 000000018012c6f0 f i GuOverlapTestsMesh.obj
 0001:0012b7d0       ??0?$IntersectAnyVsMeshCallback@$0A@$00@@QEAA@AEBVRTreeMidphase@Gu@physx@@AEBVPxMat33@3@PEAULimitedResults@@@Z 000000018012c7d0 f i GuOverlapTestsMesh.obj
 0001:0012b8b0       ??0?$IntersectAnyVsMeshCallback@$0A@$0A@@@QEAA@AEBVRTreeMidphase@Gu@physx@@AEBVPxMat33@3@PEAULimitedResults@@@Z 000000018012c8b0 f i GuOverlapTestsMesh.obj
 0001:0012b990       ??0ConvexHullV@Gu@physx@@QEAA@PEBUConvexHullData@12@AEBT__m128@@11@Z 000000018012c990 f i GuOverlapTestsMesh.obj
 0001:0012bc10       ??0ConvexHullV@Gu@physx@@QEAA@XZ 000000018012cc10 f i GuOverlapTestsMesh.obj
 0001:0012bc70       ??0ConvexVsMeshOverlapCallback@@QEAA@AEBVConvexMesh@Gu@physx@@AEBVPxMeshScale@3@AEBVFastVertex2ShapeScaling@Cm@3@AEBVPxTransform@3@3_NAEBVBox@23@@Z 000000018012cc70 f i GuOverlapTestsMesh.obj
 0001:0012c200       ??0LimitedResults@@QEAA@PEAIII@Z 000000018012d200 f i GuOverlapTestsMesh.obj
 0001:0012c270       ??0PsMatTransformV@aos@shdfnd@physx@@QEAA@AEBT__m128@@AEBUMat33V@123@@Z 000000018012d270 f i GuOverlapTestsMesh.obj
 0001:0012c2e0       ??0PsMatTransformV@aos@shdfnd@physx@@QEAA@AEBVPsTransformV@123@@Z 000000018012d2e0 f i GuOverlapTestsMesh.obj
 0001:0012c360       ??0PsMatTransformV@aos@shdfnd@physx@@QEAA@XZ 000000018012d360 f i GuOverlapTestsMesh.obj
 0001:0012c3e0       ??0PsTransformV@aos@shdfnd@physx@@QEAA@AEBVPxTransform@3@@Z 000000018012d3e0 f i GuOverlapTestsMesh.obj
 0001:0012c480       ??1?$IntersectAnyVsMeshCallback@$00$00@@UEAA@XZ 000000018012d480 f i GuOverlapTestsMesh.obj
 0001:0012c4d0       ??1?$IntersectAnyVsMeshCallback@$00$0A@@@UEAA@XZ 000000018012d4d0 f i GuOverlapTestsMesh.obj
 0001:0012c520       ??1?$IntersectAnyVsMeshCallback@$01$00@@UEAA@XZ 000000018012d520 f i GuOverlapTestsMesh.obj
 0001:0012c570       ??1?$IntersectAnyVsMeshCallback@$01$0A@@@UEAA@XZ 000000018012d570 f i GuOverlapTestsMesh.obj
 0001:0012c5c0       ??1?$IntersectAnyVsMeshCallback@$0A@$00@@UEAA@XZ 000000018012d5c0 f i GuOverlapTestsMesh.obj
 0001:0012c610       ??1?$IntersectAnyVsMeshCallback@$0A@$0A@@@UEAA@XZ 000000018012d610 f i GuOverlapTestsMesh.obj
 0001:0012c660       ??1ConvexHullV@Gu@physx@@QEAA@XZ 000000018012d660 f i GuOverlapTestsMesh.obj
 0001:0012c680       ??1ConvexVsMeshOverlapCallback@@UEAA@XZ 000000018012d680 f i GuOverlapTestsMesh.obj
 0001:0012c6d0       ??DMatrix34@Cm@physx@@QEBA?AV012@AEBV012@@Z 000000018012d6d0 f i GuOverlapTestsMesh.obj
 0001:0012c820       ??_E?$IntersectAnyVsMeshCallback@$00$00@@UEAAPEAXI@Z 000000018012d820 f i GuOverlapTestsMesh.obj
 0001:0012c820       ??_G?$IntersectAnyVsMeshCallback@$00$00@@UEAAPEAXI@Z 000000018012d820 f i GuOverlapTestsMesh.obj
 0001:0012c870       ??_E?$IntersectAnyVsMeshCallback@$00$0A@@@UEAAPEAXI@Z 000000018012d870 f i GuOverlapTestsMesh.obj
 0001:0012c870       ??_G?$IntersectAnyVsMeshCallback@$00$0A@@@UEAAPEAXI@Z 000000018012d870 f i GuOverlapTestsMesh.obj
 0001:0012c8c0       ??_G?$IntersectAnyVsMeshCallback@$01$00@@UEAAPEAXI@Z 000000018012d8c0 f i GuOverlapTestsMesh.obj
 0001:0012c8c0       ??_E?$IntersectAnyVsMeshCallback@$01$00@@UEAAPEAXI@Z 000000018012d8c0 f i GuOverlapTestsMesh.obj
 0001:0012c910       ??_E?$IntersectAnyVsMeshCallback@$01$0A@@@UEAAPEAXI@Z 000000018012d910 f i GuOverlapTestsMesh.obj
 0001:0012c910       ??_G?$IntersectAnyVsMeshCallback@$01$0A@@@UEAAPEAXI@Z 000000018012d910 f i GuOverlapTestsMesh.obj
 0001:0012c960       ??_G?$IntersectAnyVsMeshCallback@$0A@$00@@UEAAPEAXI@Z 000000018012d960 f i GuOverlapTestsMesh.obj
 0001:0012c960       ??_E?$IntersectAnyVsMeshCallback@$0A@$00@@UEAAPEAXI@Z 000000018012d960 f i GuOverlapTestsMesh.obj
 0001:0012c9b0       ??_E?$IntersectAnyVsMeshCallback@$0A@$0A@@@UEAAPEAXI@Z 000000018012d9b0 f i GuOverlapTestsMesh.obj
 0001:0012c9b0       ??_G?$IntersectAnyVsMeshCallback@$0A@$0A@@@UEAAPEAXI@Z 000000018012d9b0 f i GuOverlapTestsMesh.obj
 0001:0012ca00       ??_GConvexVsMeshOverlapCallback@@UEAAPEAXI@Z 000000018012da00 f i GuOverlapTestsMesh.obj
 0001:0012ca00       ??_EConvexVsMeshOverlapCallback@@UEAAPEAXI@Z 000000018012da00 f i GuOverlapTestsMesh.obj
 0001:0012ca50       ?CalculateConvexMargin@Gu@physx@@YAXPEBUConvexHullData@12@AEAT__m128@@1AEBT4@@Z 000000018012da50 f i GuOverlapTestsMesh.obj
 0001:0012cc50       ?CalculateConvexTolerance@Gu@physx@@YA?AT__m128@@PEBUConvexHullData@12@AEBT3@@Z 000000018012dc50 f i GuOverlapTestsMesh.obj
 0001:0012cdb0       ?ConstructSkewMatrix@Gu@physx@@YAXAEBT__m128@@0AEAUMat33V@aos@shdfnd@2@1@Z 000000018012ddb0 f i GuOverlapTestsMesh.obj
 0001:0012d220       ?QuatGetMat33V@aos@shdfnd@physx@@YA?AUMat33V@123@AEBT__m128@@@Z 000000018012e220 f i GuOverlapTestsMesh.obj
 0001:0012dbf0       ?QuatVLoadU@aos@shdfnd@physx@@YA?AT__m128@@PEBM@Z 000000018012ebf0 f i GuOverlapTestsMesh.obj
 0001:0012dc20       ?QuatVLoadXYZW@aos@shdfnd@physx@@YA?AT__m128@@MMMM@Z 000000018012ec20 f i GuOverlapTestsMesh.obj
 0001:0012dc80       ?V3LoadU@aos@shdfnd@physx@@YA?AT__m128@@PEBM@Z 000000018012ec80 f i GuOverlapTestsMesh.obj
 0001:0012dd00       ?V4LoadU@aos@shdfnd@physx@@YA?AT__m128@@QEBM@Z 000000018012ed00 f i GuOverlapTestsMesh.obj
 0001:0012dd30       ?Vec4VLoadXYZW@aos@shdfnd@physx@@YA?AT__m128@@AEBM000@Z 000000018012ed30 f i GuOverlapTestsMesh.obj
 0001:0012dda0       ?abs@PxVec3@physx@@QEBA?AV12@XZ 000000018012eda0 f i GuOverlapTestsMesh.obj
 0001:0012de30       ?add@LimitedResults@@QEAA_NI@Z 000000018012ee30 f i GuOverlapTestsMesh.obj
 0001:0012ded0       ?computeSweptAABBAroundOBB@Gu@physx@@YAXAEBVBox@12@AEAVPxVec3@2@11AEAM@Z 000000018012eed0 f i GuOverlapTestsMesh.obj
 0001:0012e130       ?getInverse@PxTransform@physx@@QEBA?AV12@XZ 000000018012f130 f i GuOverlapTestsMesh.obj
 0001:0012e240       ?largestAxis@shdfnd@physx@@YAIAEBVPxVec3@2@AEAI1@Z 000000018012f240 f i GuOverlapTestsMesh.obj
 0001:0012e310       ?processHit@?$IntersectAnyVsMeshCallback@$00$00@@UEAA_NAEBUPxRaycastHit@physx@@AEBVPxVec3@3@11AEAMPEBI@Z 000000018012f310 f i GuOverlapTestsMesh.obj
 0001:0012eab0       ?processHit@?$IntersectAnyVsMeshCallback@$00$0A@@@UEAA_NAEBUPxRaycastHit@physx@@AEBVPxVec3@3@11AEAMPEBI@Z 000000018012fab0 f i GuOverlapTestsMesh.obj
 0001:0012f250       ?processHit@?$IntersectAnyVsMeshCallback@$01$00@@UEAA_NAEBUPxRaycastHit@physx@@AEBVPxVec3@3@11AEAMPEBI@Z 0000000180130250 f i GuOverlapTestsMesh.obj
 0001:0012f980       ?processHit@?$IntersectAnyVsMeshCallback@$01$0A@@@UEAA_NAEBUPxRaycastHit@physx@@AEBVPxVec3@3@11AEAMPEBI@Z 0000000180130980 f i GuOverlapTestsMesh.obj
 0001:001300a0       ?processHit@?$IntersectAnyVsMeshCallback@$0A@$00@@UEAA_NAEBUPxRaycastHit@physx@@AEBVPxVec3@3@11AEAMPEBI@Z 00000001801310a0 f i GuOverlapTestsMesh.obj
 0001:00130840       ?processHit@?$IntersectAnyVsMeshCallback@$0A@$0A@@@UEAA_NAEBUPxRaycastHit@physx@@AEBVPxVec3@3@11AEAMPEBI@Z 0000000180131840 f i GuOverlapTestsMesh.obj
 0001:00130fe0       ?processHit@ConvexVsMeshOverlapCallback@@UEAA_NAEBUPxRaycastHit@physx@@AEBVPxVec3@3@11AEAMPEBI@Z 0000000180131fe0 f i GuOverlapTestsMesh.obj
 0001:001316b0       ?reset@LimitedResults@@QEAAXXZ 00000001801326b0 f i GuOverlapTestsMesh.obj
 0001:001316e0       ?transformBoxOrthonormal@physx@@YA?AVBox@Gu@1@AEBV231@AEBVPxTransform@1@@Z 00000001801326e0 f i GuOverlapTestsMesh.obj
 0001:00131860       ??0RTree@Gu@physx@@QEAA@AEBW4PxEMPTY@2@@Z 0000000180132860 f   GuRTree.obj
 0001:001318e0       ?exportExtraData@RTree@Gu@physx@@QEAAXAEAVPxSerializationContext@3@@Z 00000001801328e0 f   GuRTree.obj
 0001:00131940       ?importExtraData@RTree@Gu@physx@@QEAAXAEAVPxDeserializationContext@3@@Z 0000000180132940 f   GuRTree.obj
 0001:00131990       ??0RTree@Gu@physx@@QEAA@XZ 0000000180132990 f   GuRTree.obj
 0001:00131a80       ?release@RTree@Gu@physx@@QEAAXXZ 0000000180132a80 f   GuRTree.obj
 0001:00131af0       ?save@RTree@Gu@physx@@QEBA_NAEAVPxOutputStream@3@@Z 0000000180132af0 f   GuRTree.obj
 0001:00131de0       ?load@RTree@Gu@physx@@QEAA_NAEAVPxInputStream@3@I@Z 0000000180132de0 f   GuRTree.obj
 0001:001321f0       ?validate@RTree@Gu@physx@@QEAAXXZ 00000001801331f0 f   GuRTree.obj
 0001:001322a0       ?computeBottomLevelCount@RTree@Gu@physx@@QEBAII@Z 00000001801332a0 f   GuRTree.obj
 0001:00132520       ?validateRecursive@RTree@Gu@physx@@IEAAXIURTreeNodeQ@23@PEAURTreePage@23@@Z 0000000180133520 f   GuRTree.obj
 0001:00132ff0       ??$PX_UNUSED@URTreeNodeQ@Gu@physx@@@@YAXAEBURTreeNodeQ@Gu@physx@@@Z 0000000180133ff0 f i GuRTree.obj
 0001:00133000       ??$readExtraData@URTreePage@Gu@physx@@@PxDeserializationContext@physx@@QEAAPEAURTreePage@Gu@1@I@Z 0000000180134000 f i GuRTree.obj
 0001:00133050       ??0?$AlignedAllocator@$0IA@VAllocator@shdfnd@physx@@@shdfnd@physx@@QEAA@AEBVAllocator@12@@Z 0000000180134050 f i GuRTree.obj
 0001:00133070       ?WriteDwordBuffer@physx@@YAXPEBII_NAEAVPxOutputStream@1@@Z 0000000180134070 f i GuRTree.obj
 0001:001330c0       ?allocate@?$AlignedAllocator@$0IA@VAllocator@shdfnd@physx@@@shdfnd@physx@@QEAAPEAX_KPEBDH@Z 00000001801340c0 f i GuRTree.obj
 0001:00133190       ?computeBounds@RTreePage@Gu@physx@@QEAAXAEAURTreeNodeQ@23@@Z 0000000180134190 f i GuRTree.obj
 0001:001333e0       ?deallocate@?$AlignedAllocator@$0IA@VAllocator@shdfnd@physx@@@shdfnd@physx@@QEAAXPEAX@Z 00000001801343e0 f i GuRTree.obj
 0001:00133450       ?getNode@RTreePage@Gu@physx@@QEBAXIAEAURTreeNodeQ@23@@Z 0000000180134450 f i GuRTree.obj
 0001:001335b0       ?isLeaf@RTreeNodeQ@Gu@physx@@QEBAIXZ 00000001801345b0 f i GuRTree.obj
 0001:001335d0       ?littleEndian@shdfnd@physx@@YADXZ 00000001801345d0 f i GuRTree.obj
 0001:001335f0       ?nodeCount@RTreePage@Gu@physx@@QEBAIXZ 00000001801345f0 f i GuRTree.obj
 0001:00133650       ?traverseAABB@RTree@Gu@physx@@QEBAXAEBVPxVec3@3@0IPEAIPEAUCallback@123@@Z 0000000180134650 f   GuRTreeQueries.obj
 0001:00134210       ?traverseOBB@RTree@Gu@physx@@QEBAXAEBVBox@23@IPEAIPEAUCallback@123@@Z 0000000180135210 f   GuRTreeQueries.obj
 0001:00138ab0       ??$PX_UNUSED@PEAI@@YAXAEBQEAI@Z 0000000180139ab0 f i GuRTreeQueries.obj
 0001:00138ac0       ??$V4SplatElement@$00@aos@shdfnd@physx@@YA?AT__m128@@T3@@Z 0000000180139ac0 f i GuRTreeQueries.obj
 0001:00138b40       ??$V4SplatElement@$01@aos@shdfnd@physx@@YA?AT__m128@@T3@@Z 0000000180139b40 f i GuRTreeQueries.obj
 0001:00138bc0       ??$V4SplatElement@$0A@@aos@shdfnd@physx@@YA?AT__m128@@T3@@Z 0000000180139bc0 f i GuRTreeQueries.obj
 0001:00138c40       ??$traverseRay@$00@RTree@Gu@physx@@QEBAXAEBVPxVec3@2@0IPEAIPEAUCallbackRaycast@012@PEBV32@M@Z 0000000180139c40 f i GuRTreeQueries.obj
 0001:0013a6f0       ??$traverseRay@$0A@@RTree@Gu@physx@@QEBAXAEBVPxVec3@2@0IPEAIPEAUCallbackRaycast@012@PEBV32@M@Z 000000018013b6f0 f i GuRTreeQueries.obj
 0001:0013c1a0       ?U4Load@aos@shdfnd@physx@@YA?AT__m128@@I@Z 000000018013d1a0 f i GuRTreeQueries.obj
 0001:0013c1d0       ?U4StoreA@aos@shdfnd@physx@@YAXT__m128@@PEAI@Z 000000018013d1d0 f i GuRTreeQueries.obj
 0001:0013c200       ?V4Andc@aos@shdfnd@physx@@YA?AT__m128@@T4@0@Z 000000018013d200 f i GuRTreeQueries.obj
 0001:0013c290       ?V4IsGrtrV32u@aos@shdfnd@physx@@YA?AT__m128@@T4@0@Z 000000018013d290 f i GuRTreeQueries.obj
 0001:0013c2f0       ?V4NegMulSub@aos@shdfnd@physx@@YA?AT__m128@@T4@00@Z 000000018013d2f0 f i GuRTreeQueries.obj
 0001:0013c3a0       ?V4RecipFast@aos@shdfnd@physx@@YA?AT__m128@@T4@@Z 000000018013d3a0 f i GuRTreeQueries.obj
 0001:0013c3d0       ?V4U32Andc@aos@shdfnd@physx@@YA?AT__m128@@T4@0@Z 000000018013d3d0 f i GuRTreeQueries.obj
 0001:0013c490       ?V4U32StoreAligned@aos@shdfnd@physx@@YAXT__m128@@PEAT4@@Z 000000018013d490 f i GuRTreeQueries.obj
 0001:0013c4c0       ?V4U32and@aos@shdfnd@physx@@YA?AT__m128@@T4@0@Z 000000018013d4c0 f i GuRTreeQueries.obj
 0001:0013c580       ?V4U32or@aos@shdfnd@physx@@YA?AT__m128@@T4@0@Z 000000018013d580 f i GuRTreeQueries.obj
 0001:0013c640       ?Vec4V_From_PxVec3_WUndefined@aos@shdfnd@physx@@YA?AT__m128@@AEBVPxVec3@3@@Z 000000018013d640 f i GuRTreeQueries.obj
 0001:0013c6a0       ?Vec4V_ReinterpretFrom_VecU32V@aos@shdfnd@physx@@YA?AT__m128@@T4@@Z 000000018013d6a0 f i GuRTreeQueries.obj
 0001:0013c6d0       ?VecU32VLoadXYZW@aos@shdfnd@physx@@YA?AT__m128@@IIII@Z 000000018013d6d0 f i GuRTreeQueries.obj
 0001:0013c750       ?VecU32V_From_BoolV@aos@shdfnd@physx@@YA?AT__m128@@AEBT4@@Z 000000018013d750 f i GuRTreeQueries.obj
 0001:0013c770       ?VecU32V_ReinterpretFrom_Vec4V@aos@shdfnd@physx@@YA?AT__m128@@T4@@Z 000000018013d770 f i GuRTreeQueries.obj
 0001:0013c7a0       ?isLeaf@RTreePage@Gu@physx@@QEBAII@Z 000000018013d7a0 f i GuRTreeQueries.obj
 0001:0013d040       ?sweepCapsule_MeshGeom@@YA_NAEBVPxGeometry@physx@@AEBVPxTransform@2@AEBVCapsule@Gu@2@AEBVPxVec3@2@MAEAUPxSweepHit@2@V?$PxFlags@W4Enum@PxHitFlag@physx@@G@2@M@Z 000000018013e040 f   GuSweepsMesh.obj
 0001:0013d820       ?sweepBox_MeshGeom@@YA_NAEBVPxGeometry@physx@@AEBVPxTransform@2@AEBVBox@Gu@2@AEBVPxVec3@2@MAEAUPxSweepHit@2@V?$PxFlags@W4Enum@PxHitFlag@physx@@G@2@M@Z 000000018013e820 f   GuSweepsMesh.obj
 0001:0013e610       ?sweepConvex_MeshGeom@@YA_NAEBVPxGeometry@physx@@AEBVPxTransform@2@AEBVPxConvexMeshGeometry@2@1AEBVPxVec3@2@MAEAUPxSweepHit@2@V?$PxFlags@W4Enum@PxHitFlag@physx@@G@2@M@Z 000000018013f610 f   GuSweepsMesh.obj
 0001:0013f7a0       ??0?$PxFlags@W4Enum@PxMeshGeometryFlag@physx@@E@physx@@QEAA@AEBV01@@Z 00000001801407a0 f i GuSweepsMesh.obj
 0001:0013f7d0       ??0BoxV@Gu@physx@@QEAA@AEBT__m128@@0@Z 00000001801407d0 f i GuSweepsMesh.obj
 0001:0013f870       ??0CapsuleV@Gu@physx@@QEAA@XZ 0000000180140870 f i GuSweepsMesh.obj
 0001:0013f8c0       ??0ConvexVsMeshSweepCallback@@QEAA@AEBUConvexHullData@Gu@physx@@AEBVPxMeshScale@3@AEBVFastVertex2ShapeScaling@Cm@3@AEBVPxTransform@3@3AEBVPxVec3@3@MV?$PxFlags@W4Enum@PxHitFlag@physx@@G@3@_NM6@Z 00000001801408c0 f i GuSweepsMesh.obj
 0001:0013feb0       ??0Matrix34Padded@@QEAA@AEBVMatrix34@Cm@physx@@@Z 0000000180140eb0 f i GuSweepsMesh.obj
 0001:0013fee0       ??0PsTransformV@aos@shdfnd@physx@@QEAA@AEBT__m128@@0@Z 0000000180140ee0 f i GuSweepsMesh.obj
 0001:0013ffb0       ??0PxMeshScale@physx@@QEAA@AEBVPxVec3@1@AEBVPxQuat@1@@Z 0000000180140fb0 f i GuSweepsMesh.obj
 0001:001400a0       ??0PxSweepHit@physx@@QEAA@XZ 00000001801410a0 f i GuSweepsMesh.obj
 0001:001400d0       ??0SweepBoxMeshHitCallback@@QEAA@W4Enum@CallbackMode@Gu@physx@@AEBVMatrix34Padded@@MM_NAEBVBox@34@AEBVPxVec3@4@44AEBV?$PxFlags@W4Enum@PxHitFlag@physx@@G@4@M@Z 00000001801410d0 f i GuSweepsMesh.obj
 0001:00140460       ??0SweepCapsuleCallback@@QEAA@AEAUPxSweepHit@physx@@AEBVMatrix34@Cm@2@MM_NAEBVCapsule@Gu@2@AEBVPxVec3@2@AEBV?$PxFlags@W4Enum@PxHitFlag@physx@@G@2@@Z 0000000180141460 f i GuSweepsMesh.obj
 0001:001405e0       ??1CapsuleV@Gu@physx@@QEAA@XZ 00000001801415e0 f i GuSweepsMesh.obj
 0001:00140600       ??1ConvexVsMeshSweepCallback@@UEAA@XZ 0000000180141600 f i GuSweepsMesh.obj
 0001:00140650       ??1Matrix34Padded@@QEAA@XZ 0000000180141650 f i GuSweepsMesh.obj
 0001:00140660       ??1SweepBoxMeshHitCallback@@UEAA@XZ 0000000180141660 f i GuSweepsMesh.obj
 0001:001406b0       ??1SweepCapsuleCallback@@UEAA@XZ 00000001801416b0 f i GuSweepsMesh.obj
 0001:001406d0       ??4PxSweepHit@physx@@QEAAAEAU01@AEBU01@@Z 00000001801416d0 f i GuSweepsMesh.obj
 0001:00140720       ??B?$PxFlags@W4Enum@PxMeshGeometryFlag@physx@@E@physx@@QEBA_NXZ 0000000180141720 f i GuSweepsMesh.obj
 0001:00140760       ??I?$PxFlags@W4Enum@PxMeshGeometryFlag@physx@@E@physx@@QEBA?AV01@W4Enum@PxMeshGeometryFlag@1@@Z 0000000180141760 f i GuSweepsMesh.obj
 0001:001407c0       ??_GConvexVsMeshSweepCallback@@UEAAPEAXI@Z 00000001801417c0 f i GuSweepsMesh.obj
 0001:001407c0       ??_EConvexVsMeshSweepCallback@@UEAAPEAXI@Z 00000001801417c0 f i GuSweepsMesh.obj
 0001:00140810       ??_ESweepBoxMeshHitCallback@@UEAAPEAXI@Z 0000000180141810 f i GuSweepsMesh.obj
 0001:00140810       ??_GSweepBoxMeshHitCallback@@UEAAPEAXI@Z 0000000180141810 f i GuSweepsMesh.obj
 0001:00140860       ??_GSweepCapsuleCallback@@UEAAPEAXI@Z 0000000180141860 f i GuSweepsMesh.obj
 0001:00140860       ??_ESweepCapsuleCallback@@UEAAPEAXI@Z 0000000180141860 f i GuSweepsMesh.obj
 0001:001408b0       ?QuatConjugate@aos@shdfnd@physx@@YA?AT__m128@@T4@@Z 00000001801418b0 f i GuSweepsMesh.obj
 0001:00140960       ?QuatIdentity@aos@shdfnd@physx@@YA?AT__m128@@XZ 0000000180141960 f i GuSweepsMesh.obj
 0001:001409c0       ?QuatLength@aos@shdfnd@physx@@YA?AT__m128@@T4@@Z 00000001801419c0 f i GuSweepsMesh.obj
 0001:00140a00       ?QuatMul@aos@shdfnd@physx@@YA?AT__m128@@T4@0@Z 0000000180141a00 f i GuSweepsMesh.obj
 0001:00140e40       ?QuatRotateInv@aos@shdfnd@physx@@YA?AT__m128@@T4@0@Z 0000000180141e40 f i GuSweepsMesh.obj
 0001:001411d0       ?QuatTransform@aos@shdfnd@physx@@YA?AT__m128@@T4@00@Z 00000001801421d0 f i GuSweepsMesh.obj
 0001:001415a0       ?V4Dot@aos@shdfnd@physx@@YA?AT__m128@@T4@0@Z 00000001801425a0 f i GuSweepsMesh.obj
 0001:001416a0       ?V4Length@aos@shdfnd@physx@@YA?AT__m128@@T4@@Z 00000001801426a0 f i GuSweepsMesh.obj
 0001:00141700       ?V4Scale@aos@shdfnd@physx@@YA?AT__m128@@T4@0@Z 0000000180142700 f i GuSweepsMesh.obj
 0001:00141740       ?V4ScaleAdd@aos@shdfnd@physx@@YA?AT__m128@@T4@00@Z 0000000180142740 f i GuSweepsMesh.obj
 0001:001417f0       ?V4StoreA@aos@shdfnd@physx@@YAXT__m128@@PEAM@Z 00000001801427f0 f i GuSweepsMesh.obj
 0001:00141820       ?finalize@SweepCapsuleCallback@@QEAA_NAEAUPxSweepHit@physx@@AEBVCapsule@Gu@3@AEBVPxTriangleMeshGeometry@3@AEBVPxTransform@3@_NM@Z 0000000180142820 f i GuSweepsMesh.obj
 0001:00141ba0       ?getHull@ConvexMesh@Gu@physx@@QEAAAEAUConvexHullData@23@XZ 0000000180142ba0 f i GuSweepsMesh.obj
 0001:00141bc0       ?getInverse@PxMeshScale@physx@@QEBA?AV12@XZ 0000000180142bc0 f i GuSweepsMesh.obj
 0001:00141c80       ?initialize@CapsuleV@Gu@physx@@QEAAXAEBT__m128@@00@Z 0000000180142c80 f i GuSweepsMesh.obj
 0001:00141de0       ?initialize@ConvexHullV@Gu@physx@@QEAAXPEBUConvexHullData@23@AEBT__m128@@11@Z 0000000180142de0 f i GuSweepsMesh.obj
 0001:00141f70       ?isFinite@PsTransformV@aos@shdfnd@physx@@QEBA_NXZ 0000000180142f70 f i GuSweepsMesh.obj
 0001:00141fe0       ?isFiniteQuatV@aos@shdfnd@physx@@YA_NT__m128@@@Z 0000000180142fe0 f i GuSweepsMesh.obj
 0001:00142010       ?isFiniteVec3V@aos@shdfnd@physx@@YA_NT__m128@@@Z 0000000180143010 f i GuSweepsMesh.obj
 0001:001420d0       ?isFiniteVec4V@aos@shdfnd@physx@@YA_NT__m128@@@Z 00000001801430d0 f i GuSweepsMesh.obj
 0001:001421b0       ?isSane@PsTransformV@aos@shdfnd@physx@@QEBA_NXZ 00000001801431b0 f i GuSweepsMesh.obj
 0001:00142210       ?isSaneQuatV@aos@shdfnd@physx@@YA_NT__m128@@@Z 0000000180143210 f i GuSweepsMesh.obj
 0001:00142410       ?isSet@?$PxFlags@W4Enum@PxHitFlag@physx@@G@physx@@QEBA_NW4Enum@PxHitFlag@2@@Z 0000000180143410 f i GuSweepsMesh.obj
 0001:00142460       ?normalizeSafe@PxVec3@physx@@QEAAMXZ 0000000180143460 f i GuSweepsMesh.obj
 0001:001424d0       ?processHit@ConvexVsMeshSweepCallback@@UEAA_NAEBUPxRaycastHit@physx@@AEBVPxVec3@3@11AEAMPEBI@Z 00000001801434d0 f i GuSweepsMesh.obj
 0001:001427b0       ?processHit@SweepBoxMeshHitCallback@@UEAA_NAEBUPxRaycastHit@physx@@AEBVPxVec3@3@11AEAMPEBI@Z 00000001801437b0 f i GuSweepsMesh.obj
 0001:00143360       ?processHit@SweepCapsuleCallback@@UEAA_NAEBUPxRaycastHit@physx@@AEBVPxVec3@3@11AEAMPEBI@Z 0000000180144360 f i GuSweepsMesh.obj
 0001:00143a10       ?rotate@PsTransformV@aos@shdfnd@physx@@QEBA?AT__m128@@AEBT5@@Z 0000000180144a10 f i GuSweepsMesh.obj
 0001:00143b00       ?rotateInv@PsTransformV@aos@shdfnd@physx@@QEBA?AT__m128@@AEBT5@@Z 0000000180144b00 f i GuSweepsMesh.obj
 0001:00143bf0       ?rotateInv@PxTransform@physx@@QEBA?AVPxVec3@2@AEBV32@@Z 0000000180144bf0 f i GuSweepsMesh.obj
 0001:00143ca0       ?transform@PsTransformV@aos@shdfnd@physx@@QEBA?AT__m128@@AEBT5@@Z 0000000180144ca0 f i GuSweepsMesh.obj
 0001:00143dc0       ?transformBounds@FastVertex2ShapeScaling@Cm@physx@@QEBA?AVPxBounds3@3@AEBV43@@Z 0000000180144dc0 f i GuSweepsMesh.obj
 0001:00143e70       ?transformInv@PsTransformV@aos@shdfnd@physx@@QEBA?AV1234@AEBV1234@@Z 0000000180144e70 f i GuSweepsMesh.obj
 0001:001440f0       ?onRefCountZero@TriangleMesh@Gu@physx@@UEAAXXZ 00000001801450f0 f   GuTriangleMesh.obj
 0001:001441a0       ?exportExtraData@TriangleMesh@Gu@physx@@UEAAXAEAVPxSerializationContext@3@@Z 00000001801451a0 f   GuTriangleMesh.obj
 0001:001441d0       ?importExtraData@TriangleMesh@Gu@physx@@QEAAXAEAVPxDeserializationContext@3@@Z 00000001801451d0 f   GuTriangleMesh.obj
 0001:00144200       ?createObject@TriangleMesh@Gu@physx@@SAPEAV123@AEAPEAEAEAVPxDeserializationContext@3@@Z 0000000180145200 f   GuTriangleMesh.obj
 0001:001442c0       ??0TriangleMesh@Gu@physx@@QEAA@XZ 00000001801452c0 f   GuTriangleMesh.obj
 0001:00144370       ?load@TriangleMesh@Gu@physx@@QEAA_NAEAVPxInputStream@3@@Z 0000000180145370 f   GuTriangleMesh.obj
 0001:00144dd0       ?setupMeshInterface@TriangleMesh@Gu@physx@@QEAAXXZ 0000000180145dd0 f   GuTriangleMesh.obj
 0001:00144e20       ?checkMeshIndicesSize@TriangleMesh@Gu@physx@@QEAAXXZ 0000000180145e20 f   GuTriangleMesh.obj
 0001:00144f90       ?release@TriangleMesh@Gu@physx@@UEAAXXZ 0000000180145f90 f   GuTriangleMesh.obj
 0001:00145000       ?getReferenceCount@TriangleMesh@Gu@physx@@UEBAIXZ 0000000180146000 f   GuTriangleMesh.obj
 0001:00145030       ??1TriangleMesh@Gu@physx@@UEAA@XZ 0000000180146030 f   GuTriangleMesh.obj
 0001:001450a0       ?debugVisualize@TriangleMesh@Gu@physx@@QEBAXAEAVRenderOutput@Cm@3@AEBVMatrix34@53@AEBVPxMeshScale@3@AEBVPxBounds3@3@_KMI@Z 00000001801460a0 f   GuTriangleMesh.obj
 0001:00147310       ??$?_UE@@YAPEAX_KV?$ReflectionAllocator@E@shdfnd@physx@@PEBDH@Z 0000000180148310 f i GuTriangleMesh.obj
 0001:00147360       ??$deletePxBase@VTriangleMesh@Gu@physx@@@Cm@physx@@YAXPEAVTriangleMesh@Gu@1@@Z 0000000180148360 f i GuTriangleMesh.obj
 0001:00147420       ??0?$ReflectionAllocator@E@shdfnd@physx@@QEAA@PEBD@Z 0000000180148420 f i GuTriangleMesh.obj
 0001:00147440       ??0PxTransform@physx@@QEAA@XZ 0000000180148440 f i GuTriangleMesh.obj
 0001:00147480       ??0PxTriangleMesh@physx@@IEAA@GV?$PxFlags@W4Enum@PxBaseFlag@physx@@G@1@@Z 0000000180148480 f i GuTriangleMesh.obj
 0001:001474f0       ??4PxDebugLine@physx@@QEAAAEAU01@$$QEAU01@@Z 00000001801484f0 f i GuTriangleMesh.obj
 0001:00147570       ?allocate@?$ReflectionAllocator@E@shdfnd@physx@@QEAAPEAX_KPEBDH@Z 0000000180148570 f i GuTriangleMesh.obj
 0001:00147610       ?empty@PxBounds3@physx@@SA?AV12@XZ 0000000180148610 f i GuTriangleMesh.obj
 0001:00147680       ?flip@physx@@YAXAEAI@Z     0000000180148680 f i GuTriangleMesh.obj
 0001:00147770       ?getName@?$ReflectionAllocator@E@shdfnd@physx@@CAPEBDXZ 0000000180148770 f i GuTriangleMesh.obj
 0001:001477c0       ?isZero@PxVec3@physx@@QEBA_NXZ 00000001801487c0 f i GuTriangleMesh.obj
 0001:00147820       ?resolveReferences@TriangleMesh@Gu@physx@@QEAAXAEAVPxDeserializationContext@3@@Z 0000000180148820 f i GuTriangleMesh.obj
 0001:00147830       ?exportExtraData@HeightField@Gu@physx@@UEAAXAEAVPxSerializationContext@3@@Z 0000000180148830 f   GuHeightField.obj
 0001:001478a0       ?importExtraData@HeightField@Gu@physx@@QEAAXAEAVPxDeserializationContext@3@@Z 00000001801488a0 f   GuHeightField.obj
 0001:001478e0       ?createObject@HeightField@Gu@physx@@SAPEAV123@AEAPEAEAEAVPxDeserializationContext@3@@Z 00000001801488e0 f   GuHeightField.obj
 0001:001479a0       ??0HeightField@Gu@physx@@QEAA@PEAVGuMeshFactory@2@@Z 00000001801489a0 f   GuHeightField.obj
 0001:00147af0       ?release@HeightField@Gu@physx@@UEAAXXZ 0000000180148af0 f   GuHeightField.obj
 0001:00147b60       ?saveCells@HeightField@Gu@physx@@UEBAIPEAXI@Z 0000000180148b60 f   GuHeightField.obj
 0001:00147bd0       ?modifySamples@HeightField@Gu@physx@@UEAA_NHHAEBVPxHeightFieldDesc@3@_N@Z 0000000180148bd0 f   GuHeightField.obj
 0001:00147fa0       ?getReferenceCount@HeightField@Gu@physx@@UEBAIXZ 0000000180148fa0 f   GuHeightField.obj
 0001:00147fd0       ?onRefCountZero@HeightField@Gu@physx@@UEAAXXZ 0000000180148fd0 f   GuHeightField.obj
 0001:001480d0       ?loadFromDesc@HeightField@Gu@physx@@QEAA_NAEBVPxHeightFieldDesc@3@_N@Z 00000001801490d0 f   GuHeightField.obj
 0001:00148690       ?load@HeightField@Gu@physx@@QEAA_NAEAVPxInputStream@3@@Z 0000000180149690 f   GuHeightField.obj
 0001:00148b40       ?computeCellCoordinates@HeightField@Gu@physx@@QEBAIMMAEAM0@Z 0000000180149b40 f   GuHeightField.obj
 0001:00148e00       ?isSolidVertex@HeightField@Gu@physx@@QEBA_NIIIGAEA_N@Z 0000000180149e00 f   GuHeightField.obj
 0001:00149020       ?isCollisionVertexPreca@HeightField@Gu@physx@@QEBA_NIIIG@Z 000000018014a020 f   GuHeightField.obj
 0001:001491f0       ?parseTrianglesForCollisionVertices@HeightField@Gu@physx@@QEAAXG@Z 000000018014a1f0 f   GuHeightField.obj
 0001:001495b0       ?computeExtreme@HeightField@Gu@physx@@QEBAMIIII@Z 000000018014a5b0 f   GuHeightField.obj
 0001:00149730       ?releaseMemory@HeightField@Gu@physx@@QEAAX_N@Z 000000018014a730 f   GuHeightField.obj
 0001:001497f0       ??1HeightField@Gu@physx@@UEAA@XZ 000000018014a7f0 f   GuHeightField.obj
 0001:00149850       ?getVertexEdgeIndices@physx@@YAIAEBVHeightField@Gu@1@IIIQEAUEdgeData@1@@Z 000000018014a850 f   GuHeightField.obj
 0001:00149e30       ?getEdgeTriangleIndices@physx@@YAIAEBVHeightField@Gu@1@AEBUEdgeData@1@PEIAI@Z 000000018014ae30 f   GuHeightField.obj
 0001:0014ac00       ??$PxMax@H@physx@@YAHHH@Z  000000018014bc00 f i GuHeightField.obj
 0001:0014ac40       ??$PxMin@H@physx@@YAHHH@Z  000000018014bc40 f i GuHeightField.obj
 0001:0014ac80       ??$deletePxBase@VHeightField@Gu@physx@@@Cm@physx@@YAXPEAVHeightField@Gu@1@@Z 000000018014bc80 f i GuHeightField.obj
 0001:0014ad40       ??$readExtraData@UPxHeightFieldSample@physx@@$0BA@@PxDeserializationContext@physx@@QEAAPEAUPxHeightFieldSample@1@I@Z 000000018014bd40 f i GuHeightField.obj
 0001:0014ad80       ??$readExtraData@UPxHeightFieldSample@physx@@@PxDeserializationContext@physx@@QEAAPEAUPxHeightFieldSample@1@I@Z 000000018014bd80 f i GuHeightField.obj
 0001:0014add0       ??0?$AlignedAllocator@$0BA@VAllocator@shdfnd@physx@@@shdfnd@physx@@QEAA@AEBVAllocator@12@@Z 000000018014bdd0 f i GuHeightField.obj
 0001:0014adf0       ??0?$BitMapBase@VAllocator@shdfnd@physx@@@Cm@physx@@QEAA@XZ 000000018014bdf0 f i GuHeightField.obj
 0001:0014ae40       ??0?$PxFlags@W4Enum@PxHeightFieldFlag@physx@@G@physx@@QEAA@G@Z 000000018014be40 f i GuHeightField.obj
 0001:0014ae70       ??0HeightField@Gu@physx@@QEAA@V?$PxFlags@W4Enum@PxBaseFlag@physx@@G@2@@Z 000000018014be70 f i GuHeightField.obj
 0001:0014af30       ??0PxHeightField@physx@@IEAA@GV?$PxFlags@W4Enum@PxBaseFlag@physx@@G@1@@Z 000000018014bf30 f i GuHeightField.obj
 0001:0014afa0       ??0PxHeightField@physx@@IEAA@V?$PxFlags@W4Enum@PxBaseFlag@physx@@G@1@@Z 000000018014bfa0 f i GuHeightField.obj
 0001:0014b000       ??1?$BitMapBase@VAllocator@shdfnd@physx@@@Cm@physx@@QEAA@XZ 000000018014c000 f i GuHeightField.obj
 0001:0014b050       ??9?$PxFlags@W4Enum@PxHeightFieldFlag@physx@@G@physx@@QEBA_NAEBV01@@Z 000000018014c050 f i GuHeightField.obj
 0001:0014b0a0       ??_EHeightField@Gu@physx@@UEAAPEAXI@Z 000000018014c0a0 f i GuHeightField.obj
 0001:0014b1ac       ??_EHeightField@Gu@physx@@WBA@EAAPEAXI@Z 000000018014c1ac f i GuHeightField.obj
 0001:0014b1c0       ?anyHole@@YAIIG@Z          000000018014c1c0 f i GuHeightField.obj
 0001:0014b240       ?clear@?$BitMapBase@VAllocator@shdfnd@physx@@@Cm@physx@@QEAAXI@Z 000000018014c240 f i GuHeightField.obj
 0001:0014b2a0       ?clearBit@?$PxBitAndDataT@E$0IA@@physx@@QEAAXXZ 000000018014c2a0 f i GuHeightField.obj
 0001:0014b2c0       ?deallocate@?$AlignedAllocator@$0BA@VAllocator@shdfnd@physx@@@shdfnd@physx@@QEAAXPEAX@Z 000000018014c2c0 f i GuHeightField.obj
 0001:0014b330       ?extendUninitialized@?$BitMapBase@VAllocator@shdfnd@physx@@@Cm@physx@@IEAAXI@Z 000000018014c330 f i GuHeightField.obj
 0001:0014b400       ?flip@physx@@YAXAEAF@Z     000000018014c400 f i GuHeightField.obj
 0001:0014b480       ?getMaterialIndex01@HeightField@Gu@physx@@QEBAII@Z 000000018014c480 f i GuHeightField.obj
 0001:0014b4f0       ?getMaxHeight@HeightField@Gu@physx@@QEBAMXZ 000000018014c4f0 f i GuHeightField.obj
 0001:0014b510       ?getMinHeight@HeightField@Gu@physx@@QEBAMXZ 000000018014c510 f i GuHeightField.obj
 0001:0014b530       ?getThicknessFast@HeightField@Gu@physx@@QEBAMXZ 000000018014c530 f i GuHeightField.obj
 0001:0014b550       ?getWordCount@?$BitMapBase@VAllocator@shdfnd@physx@@@Cm@physx@@QEBAIXZ 000000018014c550 f i GuHeightField.obj
 0001:0014b570       ?isConvexVertex@HeightField@Gu@physx@@QEBA_NIII@Z 000000018014c570 f i GuHeightField.obj
 0001:0014b930       ?isInUserMemory@?$BitMapBase@VAllocator@shdfnd@physx@@@Cm@physx@@QEBAIXZ 000000018014c930 f i GuHeightField.obj
 0001:0014b950       ?isValid@PxHeightFieldDesc@physx@@QEBA_NXZ 000000018014c950 f i GuHeightField.obj
 0001:0014ba70       ?requires@HeightField@Gu@physx@@UEAAXAEAVPxProcessPxBaseCallback@3@@Z 000000018014ca70 f i GuHeightField.obj
 0001:0014ba80       ?resolveReferences@HeightField@Gu@physx@@QEAAXAEAVPxDeserializationContext@3@@Z 000000018014ca80 f i GuHeightField.obj
 0001:0014ba90       ?set@?$BitMapBase@VAllocator@shdfnd@physx@@@Cm@physx@@QEAAXI@Z 000000018014ca90 f i GuHeightField.obj
 0001:0014bb80       ?setBit@?$PxBitAndDataT@E$0IA@@physx@@QEAAXXZ 000000018014cb80 f i GuHeightField.obj
 0001:0014bba0       ?test@?$BitMapBase@VAllocator@shdfnd@physx@@@Cm@physx@@QEBAHI@Z 000000018014cba0 f i GuHeightField.obj
 0001:0014bcf0       ?computeLocalBounds@HeightFieldUtil@Gu@physx@@QEBAXAEAVPxBounds3@3@@Z 000000018014ccf0 f   GuHeightFieldUtil.obj
 0001:0014be80       ?isCollisionEdge@HeightFieldUtil@Gu@physx@@QEBA_NI@Z 000000018014ce80 f   GuHeightFieldUtil.obj
 0001:0014bfd0       ?isCollisionEdge@HeightFieldUtil@Gu@physx@@QEBA_NIIPEIBIIII@Z 000000018014cfd0 f   GuHeightFieldUtil.obj
 0001:0014c140       ?isBoundaryEdge@HeightFieldUtil@Gu@physx@@QEBA_NI@Z 000000018014d140 f   GuHeightFieldUtil.obj
 0001:0014c260       ?getFaceIndexAtShapePoint@HeightFieldUtil@Gu@physx@@QEBAIMM@Z 000000018014d260 f   GuHeightFieldUtil.obj
 0001:0014c310       ?getFaceIndexAtShapePointNoTest@HeightFieldUtil@Gu@physx@@QEBAIMM@Z 000000018014d310 f   GuHeightFieldUtil.obj
 0001:0014c400       ?getFaceIndexAtShapePointNoTest2@HeightFieldUtil@Gu@physx@@QEBAIIMM@Z 000000018014d400 f   GuHeightFieldUtil.obj
 0001:0014c480       ?getFaceIndexAtTriangleIndex@HeightFieldUtil@Gu@physx@@QEBAII@Z 000000018014d480 f   GuHeightFieldUtil.obj
 0001:0014c4d0       ?getSmoothNormalAtShapePoint@HeightFieldUtil@Gu@physx@@QEBA?AVPxVec3@3@MM@Z 000000018014d4d0 f   GuHeightFieldUtil.obj
 0001:0014ca30       ?getVertexNormal@HeightFieldUtil@Gu@physx@@QEBA?AVPxVec3@3@III@Z 000000018014da30 f   GuHeightFieldUtil.obj
 0001:0014cd50       ?getVertexFaceIndex@HeightFieldUtil@Gu@physx@@QEBAIIII@Z 000000018014dd50 f   GuHeightFieldUtil.obj
 0001:0014cf30       ?getEdge@HeightFieldUtil@Gu@physx@@QEBAXIIIIAEAVPxVec3@3@0@Z 000000018014df30 f   GuHeightFieldUtil.obj
 0001:0014d630       ?getEdgeFaceIndex@HeightFieldUtil@Gu@physx@@QEBAII@Z 000000018014e630 f   GuHeightFieldUtil.obj
 0001:0014d710       ?getEdgeFaceIndex@HeightFieldUtil@Gu@physx@@QEBAIIIII@Z 000000018014e710 f   GuHeightFieldUtil.obj
 0001:0014d810       ?getEdgeFaceIndex@HeightFieldUtil@Gu@physx@@QEBAIIIPEIBI@Z 000000018014e810 f   GuHeightFieldUtil.obj
 0001:0014d900       ?findClosestPointsOnCell@HeightFieldUtil@Gu@physx@@QEBAIIIVPxVec3@3@PEIAV43@PEIAI_N33@Z 000000018014e900 f   GuHeightFieldUtil.obj
 0001:0014e7b0       ?findProjectionOnTriangle@HeightFieldUtil@Gu@physx@@QEBA_NIIIAEBVPxVec3@3@AEAV43@@Z 000000018014f7b0 f   GuHeightFieldUtil.obj
 0001:0014eee0       ?findClosestPointOnEdge@HeightFieldUtil@Gu@physx@@QEBAMIIIIAEBVPxVec3@3@AEAV43@@Z 000000018014fee0 f   GuHeightFieldUtil.obj
 0001:0014f8d0       ?getTriangle@HeightFieldUtil@Gu@physx@@QEBAIAEBVPxTransform@3@AEAVPxTriangle@3@PEAI2I_N3@Z 00000001801508d0 f   GuHeightFieldUtil.obj
 0001:0014ff50       ?overlapAABBTriangles@HeightFieldUtil@Gu@physx@@QEBA_NAEBVPxTransform@3@AEBVPxBounds3@3@IPEAV?$EntityReport@I@23@@Z 0000000180150f50 f   GuHeightFieldUtil.obj
 0001:00151870       ??$PxClamp@H@physx@@YAHHHH@Z 0000000180152870 f i GuHeightFieldUtil.obj
 0001:00151910       ??B?$PxFlags@W4Enum@PxHeightFieldFlag@physx@@G@physx@@QEBAIXZ 0000000180152910 f i GuHeightFieldUtil.obj
 0001:00151930       ?ceil@shdfnd@physx@@YAMM@Z 0000000180152930 f i GuHeightFieldUtil.obj
 0001:00151950       ?floatFloor@shdfnd@physx@@YAMM@Z 0000000180152950 f i GuHeightFieldUtil.obj
 0001:00151970       ?floor@shdfnd@physx@@YAMM@Z 0000000180152970 f i GuHeightFieldUtil.obj
 0001:00151990       ?getEdgeTriangleIndices@HeightField@Gu@physx@@QEBAIIQEAI@Z 0000000180152990 f i GuHeightFieldUtil.obj
 0001:00151c10       ?getEdgeTriangleIndices@HeightField@Gu@physx@@QEBAIIQEAIIII@Z 0000000180152c10 f i GuHeightFieldUtil.obj
 0001:00151e50       ?getFlagsFast@HeightField@Gu@physx@@QEBAIXZ 0000000180152e50 f i GuHeightFieldUtil.obj
 0001:00151e80       ?getMaxColumn@HeightField@Gu@physx@@QEBAIM@Z 0000000180152e80 f i GuHeightFieldUtil.obj
 0001:00151ee0       ?getMaxRow@HeightField@Gu@physx@@QEBAIM@Z 0000000180152ee0 f i GuHeightFieldUtil.obj
 0001:00151f40       ?getMinColumn@HeightField@Gu@physx@@QEBAIM@Z 0000000180152f40 f i GuHeightFieldUtil.obj
 0001:00151fa0       ?getMinRow@HeightField@Gu@physx@@QEBAIM@Z 0000000180152fa0 f i GuHeightFieldUtil.obj
 0001:00152000       ?getTriangleAdjacencyIndices@HeightField@Gu@physx@@QEBAXIIIIAEAI00@Z 0000000180153000 f i GuHeightFieldUtil.obj
 0001:00152320       ?getTriangleIndex2@HeightField@Gu@physx@@QEBAIIMM@Z 0000000180153320 f i GuHeightFieldUtil.obj
 0001:001523e0       ?getTriangleIndex@HeightField@Gu@physx@@QEBAIMM@Z 00000001801533e0 f i GuHeightFieldUtil.obj
 0001:00152460       ?getVertex@HeightField@Gu@physx@@QEBA?AVPxVec3@3@I@Z 0000000180153460 f i GuHeightFieldUtil.obj
 0001:00152500       ?isConvexEdge@HeightField@Gu@physx@@QEBA_NI@Z 0000000180153500 f i GuHeightFieldUtil.obj
 0001:00152590       ?isConvexEdge@HeightField@Gu@physx@@QEBA_NIIII@Z 0000000180153590 f i GuHeightFieldUtil.obj
 0001:00152cd0       ?isValidTriangle@HeightField@Gu@physx@@QEBA_NI@Z 0000000180153cd0 f i GuHeightFieldUtil.obj
 0001:00152d60       ?intersectHeightFieldSphere@Gu@physx@@YA_NAEBVHeightFieldUtil@12@AEBVSphere@12@@Z 0000000180153d60 f   GuOverlapTestsHF.obj
 0001:001530f0       ?intersectHeightFieldCapsule@Gu@physx@@YA_NAEBVHeightFieldUtil@12@AEBVCapsule@12@@Z 00000001801540f0 f   GuOverlapTestsHF.obj
 0001:001539d0       ?intersectHeightFieldBox@Gu@physx@@YA_NAEBVHeightFieldUtil@12@AEBVBox@12@@Z 00000001801549d0 f   GuOverlapTestsHF.obj
 0001:00154280       ?intersectHeightFieldConvex@Gu@physx@@YA_NAEBVHeightFieldUtil@12@AEBVPxTransform@2@AEBVConvexMesh@12@1AEBVPxMeshScale@2@@Z 0000000180155280 f   GuOverlapTestsHF.obj
 0001:00154c80       ?checkOverlapSphere_heightFieldGeom@Gu@physx@@YA_NAEBVPxGeometry@2@AEBVPxTransform@2@AEBVSphere@12@@Z 0000000180155c80 f   GuOverlapTestsHF.obj
 0001:00154da0       ?checkOverlapOBB_heightFieldGeom@Gu@physx@@YA_NAEBVPxGeometry@2@AEBVPxTransform@2@AEBVBox@12@@Z 0000000180155da0 f   GuOverlapTestsHF.obj
 0001:00154f30       ?checkOverlapCapsule_heightFieldGeom@Gu@physx@@YA_NAEBVPxGeometry@2@AEBVPxTransform@2@AEBVCapsule@12@@Z 0000000180155f30 f   GuOverlapTestsHF.obj
 0001:00155190       ?GeomOverlapCallback_SphereHeightfield@@YA_NAEBVPxGeometry@physx@@AEBVPxTransform@2@01PEAUTriggerCache@Gu@2@@Z 0000000180156190 f   GuOverlapTestsHF.obj
 0001:00155300       ?GeomOverlapCallback_PlaneHeightfield@@YA_NAEBVPxGeometry@physx@@AEBVPxTransform@2@01PEAUTriggerCache@Gu@2@@Z 0000000180156300 f   GuOverlapTestsHF.obj
 0001:00155450       ?GeomOverlapCallback_CapsuleHeightfield@@YA_NAEBVPxGeometry@physx@@AEBVPxTransform@2@01PEAUTriggerCache@Gu@2@@Z 0000000180156450 f   GuOverlapTestsHF.obj
 0001:001555d0       ?GeomOverlapCallback_BoxHeightfield@@YA_NAEBVPxGeometry@physx@@AEBVPxTransform@2@01PEAUTriggerCache@Gu@2@@Z 00000001801565d0 f   GuOverlapTestsHF.obj
 0001:00155750       ?GeomOverlapCallback_ConvexHeightfield@@YA_NAEBVPxGeometry@physx@@AEBVPxTransform@2@01PEAUTriggerCache@Gu@2@@Z 0000000180156750 f   GuOverlapTestsHF.obj
 0001:00156370       ??$PX_UNUSED@PEAV?$Array@IVNamedAllocator@shdfnd@physx@@@shdfnd@physx@@@@YAXAEBQEAV?$Array@IVNamedAllocator@shdfnd@physx@@@shdfnd@physx@@@Z 0000000180157370 f i GuOverlapTestsHF.obj
 0001:00156380       ??$PX_UNUSED@VPxGeometry@physx@@@@YAXAEBVPxGeometry@physx@@@Z 0000000180157380 f i GuOverlapTestsHF.obj
 0001:00156390       ??$PX_UNUSED@VPxTransform@physx@@@@YAXAEBVPxTransform@physx@@@Z 0000000180157390 f i GuOverlapTestsHF.obj
 0001:001563a0       ??$traceSegment@UTriggerTraceSegmentCallback@Gu@physx@@$0A@$0A@$0A@@HeightFieldUtil@Gu@physx@@QEBAXAEBVPxVec3@2@0PEAUTriggerTraceSegmentCallback@12@PEBV32@@Z 00000001801573a0 f i GuOverlapTestsHF.obj
 0001:00158bc0       ??0?$OverlapTraceSegment@UTriggerTraceSegmentCallback@Gu@physx@@@HeightFieldUtil@Gu@physx@@QEAA@AEBV123@AEBVHeightField@23@@Z 0000000180159bc0 f i GuOverlapTestsHF.obj
 0001:00158c30       ??0EdgeCache@Gu@physx@@QEAA@XZ 0000000180159c30 f i GuOverlapTestsHF.obj
 0001:00158c60       ??0Matrix34@Cm@physx@@QEAA@AEBVPxMat33@2@@Z 0000000180159c60 f i GuOverlapTestsHF.obj
 0001:00158cf0       ??0TriggerTraceSegmentCallback@Gu@physx@@QEAA@XZ 0000000180159cf0 f i GuOverlapTestsHF.obj
 0001:00158d10       ?V4AllGrtr@aos@shdfnd@physx@@YAIT__m128@@0@Z 0000000180159d10 f i GuOverlapTestsHF.obj
 0001:00158d80       ?addIndex@?$OverlapTraceSegment@UTriggerTraceSegmentCallback@Gu@physx@@@HeightFieldUtil@Gu@physx@@QEAA_NI@Z 0000000180159d80 f i GuOverlapTestsHF.obj
 0001:00158e00       ?computeRectangleDifference@?$OverlapTraceSegment@UTriggerTraceSegmentCallback@Gu@physx@@@HeightFieldUtil@Gu@physx@@QEAAXAEBUOverlapRectangle@1234@0AEAUOverlapLine@1234@@Z 0000000180159e00 f i GuOverlapTestsHF.obj
 0001:00158f40       ?distanceSegmentSegmentSquared@Gu@physx@@YAMAEBVSegment@12@0PEAM1@Z 0000000180159f40 f i GuOverlapTestsHF.obj
 0001:00158ff0       ?faceHit@TriggerTraceSegmentCallback@Gu@physx@@QEAA_NAEBVHeightFieldUtil@23@AEBVPxVec3@3@I@Z 0000000180159ff0 f i GuOverlapTestsHF.obj
 0001:00159020       ?getInverse@PsTransformV@aos@shdfnd@physx@@QEBA?AV1234@XZ 000000018015a020 f i GuOverlapTestsHF.obj
 0001:00159180       ?hash@EdgeCache@Gu@physx@@QEBAII@Z 000000018015a180 f i GuOverlapTestsHF.obj
 0001:001591b0       ?init@?$OverlapTraceSegment@UTriggerTraceSegmentCallback@Gu@physx@@@HeightFieldUtil@Gu@physx@@QEAA_NHHHHHPEAUTriggerTraceSegmentCallback@34@PEAV?$Array@IVNamedAllocator@shdfnd@physx@@@shdfnd@4@@Z 000000018015a1b0 f i GuOverlapTestsHF.obj
 0001:00159340       ?initialized@?$OverlapTraceSegment@UTriggerTraceSegmentCallback@Gu@physx@@@HeightFieldUtil@Gu@physx@@QEBA_NXZ 000000018015a340 f i GuOverlapTestsHF.obj
 0001:00159360       ?intersectRayTriangle@Gu@physx@@YA_NAEBVPxVec3@2@0000AEAM11_NM@Z 000000018015a360 f i GuOverlapTestsHF.obj
 0001:001594a0       ?invalidate@OverlapRectangle@?$OverlapTraceSegment@UTriggerTraceSegmentCallback@Gu@physx@@@HeightFieldUtil@Gu@physx@@QEAAXXZ 000000018015a4a0 f i GuOverlapTestsHF.obj
 0001:001594f0       ?isDeltaHeightInsideExtent@HeightField@Gu@physx@@QEBA_NMM@Z 000000018015a4f0 f i GuOverlapTestsHF.obj
 0001:001595b0       ?isDeltaHeightOppositeExtent@HeightField@Gu@physx@@QEBA_NM@Z 000000018015a5b0 f i GuOverlapTestsHF.obj
 0001:00159630       ?isInCache@EdgeCache@Gu@physx@@QEAA_NEE@Z 000000018015a630 f i GuOverlapTestsHF.obj
 0001:00159730       ?onEvent@TriggerTraceSegmentCallback@Gu@physx@@QEAA_NIPEAI@Z 000000018015a730 f i GuOverlapTestsHF.obj
 0001:00159750       ?prepare@?$OverlapTraceSegment@UTriggerTraceSegmentCallback@Gu@physx@@@HeightFieldUtil@Gu@physx@@QEAAXAEBVPxVec3@4@00AEAM1@Z 000000018015a750 f i GuOverlapTestsHF.obj
 0001:00159aa0       ?reportOverlaps@?$OverlapTraceSegment@UTriggerTraceSegmentCallback@Gu@physx@@@HeightFieldUtil@Gu@physx@@QEAA_NXZ 000000018015aaa0 f i GuOverlapTestsHF.obj
 0001:00159b10       ?step@?$OverlapTraceSegment@UTriggerTraceSegmentCallback@Gu@physx@@@HeightFieldUtil@Gu@physx@@QEAA_NHH@Z 000000018015ab10 f i GuOverlapTestsHF.obj
 0001:00159c40       ?testVertexIndex@?$OverlapTraceSegment@UTriggerTraceSegmentCallback@Gu@physx@@@HeightFieldUtil@Gu@physx@@QEAA_NI@Z 000000018015ac40 f i GuOverlapTestsHF.obj
 0001:00159e40       ?underFaceHit@TriggerTraceSegmentCallback@Gu@physx@@QEAA_NAEBVHeightFieldUtil@23@AEBVPxVec3@3@1MMMI@Z 000000018015ae40 f i GuOverlapTestsHF.obj
 0001:00159e60       ?visitCells@?$OverlapTraceSegment@UTriggerTraceSegmentCallback@Gu@physx@@@HeightFieldUtil@Gu@physx@@QEAA_NAEBUOverlapLine@1234@@Z 000000018015ae60 f i GuOverlapTestsHF.obj
 0001:0015a0a0       ?visitCells@?$OverlapTraceSegment@UTriggerTraceSegmentCallback@Gu@physx@@@HeightFieldUtil@Gu@physx@@QEAA_NAEBUOverlapRectangle@1234@@Z 000000018015b0a0 f i GuOverlapTestsHF.obj
 0001:0015a730       ?sweepCapsule_HeightFieldGeom@@YA_NAEBVPxGeometry@physx@@AEBVPxTransform@2@AEBVCapsule@Gu@2@AEBVPxVec3@2@MAEAUPxSweepHit@2@V?$PxFlags@W4Enum@PxHitFlag@physx@@G@2@M@Z 000000018015b730 f   GuSweepsHF.obj
 0001:0015ad60       ?sweepConvex_HeightFieldGeom@@YA_NAEBVPxGeometry@physx@@AEBVPxTransform@2@AEBVPxConvexMeshGeometry@2@1AEBVPxVec3@2@MAEAUPxSweepHit@2@V?$PxFlags@W4Enum@PxHitFlag@physx@@G@2@M@Z 000000018015bd60 f   GuSweepsHF.obj
 0001:0015b4e0       ?sweepBox_HeightFieldGeom@@YA_NAEBVPxGeometry@physx@@AEBVPxTransform@2@AEBVBox@Gu@2@AEBVPxVec3@2@MAEAUPxSweepHit@2@V?$PxFlags@W4Enum@PxHitFlag@physx@@G@2@M@Z 000000018015c4e0 f   GuSweepsHF.obj
 0001:0015c2d0       ??$PX_UNUSED@V?$PxFlags@W4Enum@PxHitFlag@physx@@G@physx@@@@YAXAEBV?$PxFlags@W4Enum@PxHitFlag@physx@@G@physx@@@Z 000000018015d2d0 f i GuSweepsHF.obj
 0001:0015c2e0       ??$traceSegment@UBoxTraceSegmentReport@@$0A@$0A@$00@HeightFieldUtil@Gu@physx@@QEBAXAEBVPxVec3@2@0PEAUBoxTraceSegmentReport@@PEBV32@@Z 000000018015d2e0 f i GuSweepsHF.obj
 0001:0015eb00       ??$traceSegment@UCapsuleTraceSegmentReport@@$0A@$0A@$00@HeightFieldUtil@Gu@physx@@QEBAXAEBVPxVec3@2@0PEAUCapsuleTraceSegmentReport@@PEBV32@@Z 000000018015fb00 f i GuSweepsHF.obj
 0001:00161320       ??$traceSegment@VConvexVsHeightfieldSweep@@$0A@$0A@$00@HeightFieldUtil@Gu@physx@@QEBAXAEBVPxVec3@2@0PEAVConvexVsHeightfieldSweep@@PEBV32@@Z 0000000180162320 f i GuSweepsHF.obj
 0001:00163b40       ??0?$OverlapTraceSegment@UBoxTraceSegmentReport@@@HeightFieldUtil@Gu@physx@@QEAA@AEBV123@AEBVHeightField@23@@Z 0000000180164b40 f i GuSweepsHF.obj
 0001:00163bb0       ??0?$OverlapTraceSegment@UCapsuleTraceSegmentReport@@@HeightFieldUtil@Gu@physx@@QEAA@AEBV123@AEBVHeightField@23@@Z 0000000180164bb0 f i GuSweepsHF.obj
 0001:00163c20       ??0?$OverlapTraceSegment@VConvexVsHeightfieldSweep@@@HeightFieldUtil@Gu@physx@@QEAA@AEBV123@AEBVHeightField@23@@Z 0000000180164c20 f i GuSweepsHF.obj
 0001:00163c90       ??0BoxTraceSegmentReport@@QEAA@XZ 0000000180164c90 f i GuSweepsHF.obj
 0001:00163ce0       ??0CapsuleTraceSegmentReport@@QEAA@XZ 0000000180164ce0 f i GuSweepsHF.obj
 0001:00163d30       ??0ConvexVsHeightfieldSweep@@QEAA@AEAVHeightFieldUtil@Gu@physx@@AEBUConvexHullData@23@AEBVPxMeshScale@3@AEBVPxTransform@3@3AEBVPxVec3@3@MV?$PxFlags@W4Enum@PxHitFlag@physx@@G@3@M_N_N@Z 0000000180164d30 f i GuSweepsHF.obj
 0001:00164300       ??1BoxTraceSegmentReport@@UEAA@XZ 0000000180165300 f i GuSweepsHF.obj
 0001:00164320       ??1CapsuleTraceSegmentReport@@UEAA@XZ 0000000180165320 f i GuSweepsHF.obj
 0001:00164340       ??1ConvexVsHeightfieldSweep@@UEAA@XZ 0000000180165340 f i GuSweepsHF.obj
 0001:00164380       ??4PxTransform@physx@@QEAAAEAV01@$$QEAV01@@Z 0000000180165380 f i GuSweepsHF.obj
 0001:001643e0       ??_GBoxTraceSegmentReport@@UEAAPEAXI@Z 00000001801653e0 f i GuSweepsHF.obj
 0001:001643e0       ??_EBoxTraceSegmentReport@@UEAAPEAXI@Z 00000001801653e0 f i GuSweepsHF.obj
 0001:00164430       ??_ECapsuleTraceSegmentReport@@UEAAPEAXI@Z 0000000180165430 f i GuSweepsHF.obj
 0001:00164430       ??_GCapsuleTraceSegmentReport@@UEAAPEAXI@Z 0000000180165430 f i GuSweepsHF.obj
 0001:00164480       ??_EConvexVsHeightfieldSweep@@UEAAPEAXI@Z 0000000180165480 f i GuSweepsHF.obj
 0001:00164480       ??_GConvexVsHeightfieldSweep@@UEAAPEAXI@Z 0000000180165480 f i GuSweepsHF.obj
 0001:001644d0       ?QuatVLoadA@aos@shdfnd@physx@@YA?AT__m128@@PEBM@Z 00000001801654d0 f i GuSweepsHF.obj
 0001:00164500       ?V3LoadA@aos@shdfnd@physx@@YA?AT__m128@@PEBM@Z 0000000180165500 f i GuSweepsHF.obj
 0001:00164550       ?addIndex@?$OverlapTraceSegment@UBoxTraceSegmentReport@@@HeightFieldUtil@Gu@physx@@QEAA_NI@Z 0000000180165550 f i GuSweepsHF.obj
 0001:001645d0       ?addIndex@?$OverlapTraceSegment@UCapsuleTraceSegmentReport@@@HeightFieldUtil@Gu@physx@@QEAA_NI@Z 00000001801655d0 f i GuSweepsHF.obj
 0001:00164650       ?addIndex@?$OverlapTraceSegment@VConvexVsHeightfieldSweep@@@HeightFieldUtil@Gu@physx@@QEAA_NI@Z 0000000180165650 f i GuSweepsHF.obj
 0001:001646d0       ?computeRectangleDifference@?$OverlapTraceSegment@UBoxTraceSegmentReport@@@HeightFieldUtil@Gu@physx@@QEAAXAEBUOverlapRectangle@1234@0AEAUOverlapLine@1234@@Z 00000001801656d0 f i GuSweepsHF.obj
 0001:00164810       ?computeRectangleDifference@?$OverlapTraceSegment@UCapsuleTraceSegmentReport@@@HeightFieldUtil@Gu@physx@@QEAAXAEBUOverlapRectangle@1234@0AEAUOverlapLine@1234@@Z 0000000180165810 f i GuSweepsHF.obj
 0001:00164950       ?computeRectangleDifference@?$OverlapTraceSegment@VConvexVsHeightfieldSweep@@@HeightFieldUtil@Gu@physx@@QEAAXAEBUOverlapRectangle@1234@0AEAUOverlapLine@1234@@Z 0000000180165950 f i GuSweepsHF.obj
 0001:00164a90       ?faceHit@BoxTraceSegmentReport@@QEAA_NAEBVHeightFieldUtil@Gu@physx@@AEBVPxVec3@4@I@Z 0000000180165a90 f i GuSweepsHF.obj
 0001:00164ab0       ?faceHit@CapsuleTraceSegmentReport@@QEAA_NAEBVHeightFieldUtil@Gu@physx@@AEBVPxVec3@4@I@Z 0000000180165ab0 f i GuSweepsHF.obj
 0001:00164ad0       ?faceHit@ConvexVsHeightfieldSweep@@QEAA_NAEBVHeightFieldUtil@Gu@physx@@AEBVPxVec3@4@I@Z 0000000180165ad0 f i GuSweepsHF.obj
 0001:00164af0       ?init@?$OverlapTraceSegment@UBoxTraceSegmentReport@@@HeightFieldUtil@Gu@physx@@QEAA_NHHHHHPEAUBoxTraceSegmentReport@@PEAV?$Array@IVNamedAllocator@shdfnd@physx@@@shdfnd@4@@Z 0000000180165af0 f i GuSweepsHF.obj
 0001:00164c80       ?init@?$OverlapTraceSegment@UCapsuleTraceSegmentReport@@@HeightFieldUtil@Gu@physx@@QEAA_NHHHHHPEAUCapsuleTraceSegmentReport@@PEAV?$Array@IVNamedAllocator@shdfnd@physx@@@shdfnd@4@@Z 0000000180165c80 f i GuSweepsHF.obj
 0001:00164e10       ?init@?$OverlapTraceSegment@VConvexVsHeightfieldSweep@@@HeightFieldUtil@Gu@physx@@QEAA_NHHHHHPEAVConvexVsHeightfieldSweep@@PEAV?$Array@IVNamedAllocator@shdfnd@physx@@@shdfnd@4@@Z 0000000180165e10 f i GuSweepsHF.obj
 0001:00164fa0       ?initialized@?$OverlapTraceSegment@UBoxTraceSegmentReport@@@HeightFieldUtil@Gu@physx@@QEBA_NXZ 0000000180165fa0 f i GuSweepsHF.obj
 0001:00164fc0       ?initialized@?$OverlapTraceSegment@UCapsuleTraceSegmentReport@@@HeightFieldUtil@Gu@physx@@QEBA_NXZ 0000000180165fc0 f i GuSweepsHF.obj
 0001:00164fe0       ?initialized@?$OverlapTraceSegment@VConvexVsHeightfieldSweep@@@HeightFieldUtil@Gu@physx@@QEBA_NXZ 0000000180165fe0 f i GuSweepsHF.obj
 0001:00165000       ?invalidate@OverlapRectangle@?$OverlapTraceSegment@UBoxTraceSegmentReport@@@HeightFieldUtil@Gu@physx@@QEAAXXZ 0000000180166000 f i GuSweepsHF.obj
 0001:00165050       ?invalidate@OverlapRectangle@?$OverlapTraceSegment@UCapsuleTraceSegmentReport@@@HeightFieldUtil@Gu@physx@@QEAAXXZ 0000000180166050 f i GuSweepsHF.obj
 0001:001650a0       ?invalidate@OverlapRectangle@?$OverlapTraceSegment@VConvexVsHeightfieldSweep@@@HeightFieldUtil@Gu@physx@@QEAAXXZ 00000001801660a0 f i GuSweepsHF.obj
 0001:001650f0       ?onEvent@BoxTraceSegmentReport@@UEAA_NIPEAI@Z 00000001801660f0 f i GuSweepsHF.obj
 0001:00165910       ?onEvent@CapsuleTraceSegmentReport@@UEAA_NIPEAI@Z 0000000180166910 f i GuSweepsHF.obj
 0001:00165cd0       ?onEvent@ConvexVsHeightfieldSweep@@UEAA_NIPEAI@Z 0000000180166cd0 f i GuSweepsHF.obj
 0001:00166010       ?prepare@?$OverlapTraceSegment@UBoxTraceSegmentReport@@@HeightFieldUtil@Gu@physx@@QEAAXAEBVPxVec3@4@00AEAM1@Z 0000000180167010 f i GuSweepsHF.obj
 0001:00166360       ?prepare@?$OverlapTraceSegment@UCapsuleTraceSegmentReport@@@HeightFieldUtil@Gu@physx@@QEAAXAEBVPxVec3@4@00AEAM1@Z 0000000180167360 f i GuSweepsHF.obj
 0001:001666b0       ?prepare@?$OverlapTraceSegment@VConvexVsHeightfieldSweep@@@HeightFieldUtil@Gu@physx@@QEAAXAEBVPxVec3@4@00AEAM1@Z 00000001801676b0 f i GuSweepsHF.obj
 0001:00166a00       ?reportOverlaps@?$OverlapTraceSegment@UBoxTraceSegmentReport@@@HeightFieldUtil@Gu@physx@@QEAA_NXZ 0000000180167a00 f i GuSweepsHF.obj
 0001:00166a90       ?reportOverlaps@?$OverlapTraceSegment@UCapsuleTraceSegmentReport@@@HeightFieldUtil@Gu@physx@@QEAA_NXZ 0000000180167a90 f i GuSweepsHF.obj
 0001:00166b20       ?reportOverlaps@?$OverlapTraceSegment@VConvexVsHeightfieldSweep@@@HeightFieldUtil@Gu@physx@@QEAA_NXZ 0000000180167b20 f i GuSweepsHF.obj
 0001:00166bb0       ?step@?$OverlapTraceSegment@UBoxTraceSegmentReport@@@HeightFieldUtil@Gu@physx@@QEAA_NHH@Z 0000000180167bb0 f i GuSweepsHF.obj
 0001:00166ce0       ?step@?$OverlapTraceSegment@UCapsuleTraceSegmentReport@@@HeightFieldUtil@Gu@physx@@QEAA_NHH@Z 0000000180167ce0 f i GuSweepsHF.obj
 0001:00166e10       ?step@?$OverlapTraceSegment@VConvexVsHeightfieldSweep@@@HeightFieldUtil@Gu@physx@@QEAA_NHH@Z 0000000180167e10 f i GuSweepsHF.obj
 0001:00166f40       ?testVertexIndex@?$OverlapTraceSegment@UBoxTraceSegmentReport@@@HeightFieldUtil@Gu@physx@@QEAA_NI@Z 0000000180167f40 f i GuSweepsHF.obj
 0001:00167140       ?testVertexIndex@?$OverlapTraceSegment@UCapsuleTraceSegmentReport@@@HeightFieldUtil@Gu@physx@@QEAA_NI@Z 0000000180168140 f i GuSweepsHF.obj
 0001:00167340       ?testVertexIndex@?$OverlapTraceSegment@VConvexVsHeightfieldSweep@@@HeightFieldUtil@Gu@physx@@QEAA_NI@Z 0000000180168340 f i GuSweepsHF.obj
 0001:00167540       ?underFaceHit@BoxTraceSegmentReport@@QEAA_NAEBVHeightFieldUtil@Gu@physx@@AEBVPxVec3@4@1MMMI@Z 0000000180168540 f i GuSweepsHF.obj
 0001:00167560       ?underFaceHit@CapsuleTraceSegmentReport@@QEAA_NAEBVHeightFieldUtil@Gu@physx@@AEBVPxVec3@4@1MMMI@Z 0000000180168560 f i GuSweepsHF.obj
 0001:00167580       ?underFaceHit@ConvexVsHeightfieldSweep@@QEAA_NAEBVHeightFieldUtil@Gu@physx@@AEBVPxVec3@4@1MMMI@Z 0000000180168580 f i GuSweepsHF.obj
 0001:001675a0       ?visitCells@?$OverlapTraceSegment@UBoxTraceSegmentReport@@@HeightFieldUtil@Gu@physx@@QEAA_NAEBUOverlapLine@1234@@Z 00000001801685a0 f i GuSweepsHF.obj
 0001:001677e0       ?visitCells@?$OverlapTraceSegment@UBoxTraceSegmentReport@@@HeightFieldUtil@Gu@physx@@QEAA_NAEBUOverlapRectangle@1234@@Z 00000001801687e0 f i GuSweepsHF.obj
 0001:00167920       ?visitCells@?$OverlapTraceSegment@UCapsuleTraceSegmentReport@@@HeightFieldUtil@Gu@physx@@QEAA_NAEBUOverlapLine@1234@@Z 0000000180168920 f i GuSweepsHF.obj
 0001:00167b60       ?visitCells@?$OverlapTraceSegment@UCapsuleTraceSegmentReport@@@HeightFieldUtil@Gu@physx@@QEAA_NAEBUOverlapRectangle@1234@@Z 0000000180168b60 f i GuSweepsHF.obj
 0001:00167ca0       ?visitCells@?$OverlapTraceSegment@VConvexVsHeightfieldSweep@@@HeightFieldUtil@Gu@physx@@QEAA_NAEBUOverlapLine@1234@@Z 0000000180168ca0 f i GuSweepsHF.obj
 0001:00167ee0       ?visitCells@?$OverlapTraceSegment@VConvexVsHeightfieldSweep@@@HeightFieldUtil@Gu@physx@@QEAA_NAEBUOverlapRectangle@1234@@Z 0000000180168ee0 f i GuSweepsHF.obj
 0001:00168020       ?pcmContactBoxBox@Gu@physx@@YA_NAEBVGeometryUnion@12@0AEBVPxTransform@2@1AEBMAEAUCache@12@AEAVContactBuffer@12@@Z 0000000180169020 f   GuPCMContactBoxBox.obj
 0001:00172f90       ??0ShrunkBoxV@Gu@physx@@QEAA@AEBT__m128@@0@Z 0000000180173f90 f i GuPCMContactBoxBox.obj
 0001:00173160       ??1ShrunkBoxV@Gu@physx@@QEAA@XZ 0000000180174160 f i GuPCMContactBoxBox.obj
 0001:00173180       ?BTTFT@aos@shdfnd@physx@@YA?AT__m128@@XZ 0000000180174180 f i GuPCMContactBoxBox.obj
 0001:001731d0       ?CalculatePCMBoxMargin@Gu@physx@@YA?AT__m128@@AEBT3@@Z 00000001801741d0 f i GuPCMContactBoxBox.obj
 0001:00173290       ?QuatDot@aos@shdfnd@physx@@YA?AT__m128@@T4@0@Z 0000000180174290 f i GuPCMContactBoxBox.obj
 0001:001732f0       ?V3ExtractMax@aos@shdfnd@physx@@YA?AT__m128@@T4@@Z 00000001801742f0 f i GuPCMContactBoxBox.obj
 0001:001733c0       ?V3RecipFast@aos@shdfnd@physx@@YA?AT__m128@@T4@@Z 00000001801743c0 f i GuPCMContactBoxBox.obj
 0001:001734a0       ?V3SetZ@aos@shdfnd@physx@@YA?AT__m128@@T4@0@Z 00000001801744a0 f i GuPCMContactBoxBox.obj
 0001:00173520       ?V4ExtractMax@aos@shdfnd@physx@@YA?AT__m128@@T4@@Z 0000000180174520 f i GuPCMContactBoxBox.obj
 0001:00173620       ?contains@Gu@physx@@YA_NPEAT__m128@@IAEBT3@11@Z 0000000180174620 f i GuPCMContactBoxBox.obj
 0001:00174030       ?getCol0@PsMatTransformV@aos@shdfnd@physx@@QEBA?AT__m128@@XZ 0000000180175030 f i GuPCMContactBoxBox.obj
 0001:00174060       ?getCol1@PsMatTransformV@aos@shdfnd@physx@@QEBA?AT__m128@@XZ 0000000180175060 f i GuPCMContactBoxBox.obj
 0001:00174090       ?getCol2@PsMatTransformV@aos@shdfnd@physx@@QEBA?AT__m128@@XZ 0000000180175090 f i GuPCMContactBoxBox.obj
 0001:001740c0       ?getManifold@Cache@Gu@physx@@QEAAAEAVPersistentContactManifold@23@XZ 00000001801750c0 f i GuPCMContactBoxBox.obj
 0001:00174150       ?getNumContacts@PersistentContactManifold@Gu@physx@@QEBAIXZ 0000000180175150 f i GuPCMContactBoxBox.obj
 0001:00174170       ?getWorldNormal@PersistentContactManifold@Gu@physx@@QEAA?AT__m128@@AEBVPsTransformV@aos@shdfnd@3@@Z 0000000180175170 f i GuPCMContactBoxBox.obj
 0001:00174470       ?invalidate_BoxConvex@PersistentContactManifold@Gu@physx@@QEAAIAEBVPsTransformV@aos@shdfnd@3@AEBT__m128@@@Z 0000000180175470 f i GuPCMContactBoxBox.obj
 0001:001747d0       ?loadTransformA@aos@shdfnd@physx@@YA?AVPsTransformV@123@AEBVPxTransform@3@@Z 00000001801757d0 f i GuPCMContactBoxBox.obj
 0001:00174860       ?maxTransformPositionDelta@PersistentContactManifold@Gu@physx@@QEAA?AT__m128@@AEBT4@@Z 0000000180175860 f i GuPCMContactBoxBox.obj
 0001:00174990       ?refreshContactPoints@PersistentContactManifold@Gu@physx@@QEAAXAEBVPsMatTransformV@aos@shdfnd@3@AEBT__m128@@1@Z 0000000180175990 f i GuPCMContactBoxBox.obj
 0001:00174e40       ?removeContactPoint@PersistentContactManifold@Gu@physx@@QEAAXI@Z 0000000180175e40 f i GuPCMContactBoxBox.obj
 0001:00174eb0       ?rotate@PsMatTransformV@aos@shdfnd@physx@@QEBA?AT__m128@@AEBT5@@Z 0000000180175eb0 f i GuPCMContactBoxBox.obj
 0001:00174f20       ?setRelativeTransform@PersistentContactManifold@Gu@physx@@QEAAXAEBVPsTransformV@aos@shdfnd@3@@Z 0000000180175f20 f i GuPCMContactBoxBox.obj
 0001:00174f50       ?transformInv@PsMatTransformV@aos@shdfnd@physx@@QEBA?AT__m128@@AEBT5@@Z 0000000180175f50 f i GuPCMContactBoxBox.obj
 0001:00175000       ?transformInv@PsMatTransformV@aos@shdfnd@physx@@QEBA?AV1234@AEBV1234@@Z 0000000180176000 f i GuPCMContactBoxBox.obj
 0001:00175120       ?pcmContactBoxConvex@Gu@physx@@YA_NAEBVGeometryUnion@12@0AEBVPxTransform@2@1AEBMAEAUCache@12@AEAVContactBuffer@12@@Z 0000000180176120 f   GuPCMContactBoxConvex.obj
 0001:00176a50       ??0?$SupportLocalImpl@VBoxV@Gu@physx@@@Gu@physx@@QEAA@AEBVBoxV@12@AEBVPsTransformV@aos@shdfnd@2@AEBUMat33V@562@2_N@Z 0000000180177a50 f i GuPCMContactBoxConvex.obj
 0001:00176ad0       ??0?$SupportLocalImpl@VConvexHullNoScaleV@Gu@physx@@@Gu@physx@@QEAA@AEBVConvexHullNoScaleV@12@AEBVPsTransformV@aos@shdfnd@2@AEBUMat33V@562@2_N@Z 0000000180177ad0 f i GuPCMContactBoxConvex.obj
 0001:00176b50       ??0?$SupportLocalImpl@VConvexHullV@Gu@physx@@@Gu@physx@@QEAA@AEBVConvexHullV@12@AEBVPsTransformV@aos@shdfnd@2@AEBUMat33V@562@2_N@Z 0000000180177b50 f i GuPCMContactBoxConvex.obj
 0001:00176bd0       ??0ShrunkConvexHullV@Gu@physx@@QEAA@PEBUConvexHullData@12@AEBT__m128@@11@Z 0000000180177bd0 f i GuPCMContactBoxConvex.obj
 0001:00176c30       ??0SupportLocal@Gu@physx@@QEAA@AEBVPsTransformV@aos@shdfnd@2@AEBUMat33V@452@1_N@Z 0000000180177c30 f i GuPCMContactBoxConvex.obj
 0001:00176cb0       ??1?$SupportLocalImpl@VBoxV@Gu@physx@@@Gu@physx@@UEAA@XZ 0000000180177cb0 f i GuPCMContactBoxConvex.obj
 0001:00176cd0       ??1?$SupportLocalImpl@VConvexHullNoScaleV@Gu@physx@@@Gu@physx@@UEAA@XZ 0000000180177cd0 f i GuPCMContactBoxConvex.obj
 0001:00176cf0       ??1?$SupportLocalImpl@VConvexHullV@Gu@physx@@@Gu@physx@@UEAA@XZ 0000000180177cf0 f i GuPCMContactBoxConvex.obj
 0001:00176d10       ??1ShrunkConvexHullV@Gu@physx@@QEAA@XZ 0000000180177d10 f i GuPCMContactBoxConvex.obj
 0001:00176d30       ??1SupportLocal@Gu@physx@@UEAA@XZ 0000000180177d30 f i GuPCMContactBoxConvex.obj
 0001:00176d50       ??_E?$SupportLocalImpl@VBoxV@Gu@physx@@@Gu@physx@@UEAAPEAXI@Z 0000000180177d50 f i GuPCMContactBoxConvex.obj
 0001:00176d50       ??_G?$SupportLocalImpl@VBoxV@Gu@physx@@@Gu@physx@@UEAAPEAXI@Z 0000000180177d50 f i GuPCMContactBoxConvex.obj
 0001:00176da0       ??_E?$SupportLocalImpl@VConvexHullNoScaleV@Gu@physx@@@Gu@physx@@UEAAPEAXI@Z 0000000180177da0 f i GuPCMContactBoxConvex.obj
 0001:00176da0       ??_G?$SupportLocalImpl@VConvexHullNoScaleV@Gu@physx@@@Gu@physx@@UEAAPEAXI@Z 0000000180177da0 f i GuPCMContactBoxConvex.obj
 0001:00176df0       ??_G?$SupportLocalImpl@VConvexHullV@Gu@physx@@@Gu@physx@@UEAAPEAXI@Z 0000000180177df0 f i GuPCMContactBoxConvex.obj
 0001:00176df0       ??_E?$SupportLocalImpl@VConvexHullV@Gu@physx@@@Gu@physx@@UEAAPEAXI@Z 0000000180177df0 f i GuPCMContactBoxConvex.obj
 0001:00176e40       ??_GSupportLocal@Gu@physx@@UEAAPEAXI@Z 0000000180177e40 f i GuPCMContactBoxConvex.obj
 0001:00176e40       ??_ESupportLocal@Gu@physx@@UEAAPEAXI@Z 0000000180177e40 f i GuPCMContactBoxConvex.obj
 0001:00176e90       ?BruteForceSearchMinMax@ConvexHullNoScaleV@Gu@physx@@QEBAXAEBT__m128@@AEAT4@1@Z 0000000180177e90 f i GuPCMContactBoxConvex.obj
 0001:00177130       ?BruteForceSearchMinMax@ConvexHullV@Gu@physx@@QEBAXAEBT__m128@@AEAT4@1@Z 0000000180178130 f i GuPCMContactBoxConvex.obj
 0001:00177450       ?CalculatePCMConvexMargin@Gu@physx@@YA?AT__m128@@PEBUConvexHullData@12@AEBT3@@Z 0000000180178450 f i GuPCMContactBoxConvex.obj
 0001:00177580       ?doSupport@?$SupportLocalImpl@VBoxV@Gu@physx@@@Gu@physx@@UEBA?AT__m128@@AEBT4@@Z 0000000180178580 f i GuPCMContactBoxConvex.obj
 0001:001775d0       ?doSupport@?$SupportLocalImpl@VBoxV@Gu@physx@@@Gu@physx@@UEBAXAEBT__m128@@AEAT4@1@Z 00000001801785d0 f i GuPCMContactBoxConvex.obj
 0001:00177620       ?doSupport@?$SupportLocalImpl@VConvexHullNoScaleV@Gu@physx@@@Gu@physx@@UEBA?AT__m128@@AEBT4@@Z 0000000180178620 f i GuPCMContactBoxConvex.obj
 0001:00177670       ?doSupport@?$SupportLocalImpl@VConvexHullNoScaleV@Gu@physx@@@Gu@physx@@UEBAXAEBT__m128@@AEAT4@1@Z 0000000180178670 f i GuPCMContactBoxConvex.obj
 0001:001776c0       ?doSupport@?$SupportLocalImpl@VConvexHullV@Gu@physx@@@Gu@physx@@UEBA?AT__m128@@AEBT4@@Z 00000001801786c0 f i GuPCMContactBoxConvex.obj
 0001:00177710       ?doSupport@?$SupportLocalImpl@VConvexHullV@Gu@physx@@@Gu@physx@@UEBAXAEBT__m128@@AEAT4@1@Z 0000000180178710 f i GuPCMContactBoxConvex.obj
 0001:00177760       ?populateVerts@?$SupportLocalImpl@VBoxV@Gu@physx@@@Gu@physx@@UEBAXPEBEIPEBVPxVec3@3@PEAT__m128@@@Z 0000000180178760 f i GuPCMContactBoxConvex.obj
 0001:001777c0       ?populateVerts@?$SupportLocalImpl@VConvexHullNoScaleV@Gu@physx@@@Gu@physx@@UEBAXPEBEIPEBVPxVec3@3@PEAT__m128@@@Z 00000001801787c0 f i GuPCMContactBoxConvex.obj
 0001:00177820       ?populateVerts@?$SupportLocalImpl@VConvexHullV@Gu@physx@@@Gu@physx@@UEBAXPEBEIPEBVPxVec3@3@PEAT__m128@@@Z 0000000180178820 f i GuPCMContactBoxConvex.obj
 0001:00177880       ?populateVerts@BoxV@Gu@physx@@QEBAXPEBEIPEBVPxVec3@3@PEAT__m128@@@Z 0000000180178880 f i GuPCMContactBoxConvex.obj
 0001:00177920       ?populateVerts@ConvexHullNoScaleV@Gu@physx@@QEBAXPEBEIPEBVPxVec3@3@PEAT__m128@@@Z 0000000180178920 f i GuPCMContactBoxConvex.obj
 0001:001779c0       ?populateVerts@ConvexHullV@Gu@physx@@QEBAXPEBEIPEBVPxVec3@3@PEAT__m128@@@Z 00000001801789c0 f i GuPCMContactBoxConvex.obj
 0001:00177aa0       ?supportLocal@BoxV@Gu@physx@@QEBAXAEBT__m128@@AEAT4@1@Z 0000000180178aa0 f i GuPCMContactBoxConvex.obj
 0001:00177c70       ?supportLocal@ConvexHullNoScaleV@Gu@physx@@QEBAXAEBT__m128@@AEAT4@1@Z 0000000180178c70 f i GuPCMContactBoxConvex.obj
 0001:00177cc0       ?supportLocal@ConvexHullV@Gu@physx@@QEBAXAEBT__m128@@AEAT4@1@Z 0000000180178cc0 f i GuPCMContactBoxConvex.obj
 0001:00177d10       ?supportVertexMinMax@ConvexHullNoScaleV@Gu@physx@@QEBAXAEBT__m128@@AEAT4@1@Z 0000000180178d10 f i GuPCMContactBoxConvex.obj
 0001:00177f30       ?supportVertexMinMax@ConvexHullV@Gu@physx@@QEBAXAEBT__m128@@AEAT4@1@Z 0000000180178f30 f i GuPCMContactBoxConvex.obj
 0001:00178220       ?pcmContactCapsuleBox@Gu@physx@@YA_NAEBVGeometryUnion@12@0AEBVPxTransform@2@1AEBMAEAUCache@12@AEAVContactBuffer@12@@Z 0000000180179220 f   GuPCMContactCapsuleBox.obj
 0001:001795d0       ??0CapsuleV@Gu@physx@@QEAA@AEBT__m128@@00@Z 000000018017a5d0 f i GuPCMContactCapsuleBox.obj
 0001:00179760       ?invalidate_SphereCapsule@PersistentContactManifold@Gu@physx@@QEAAIAEBVPsTransformV@aos@shdfnd@3@AEBT__m128@@@Z 000000018017a760 f i GuPCMContactCapsuleBox.obj
 0001:00179ac0       ?setMargin@ConvexV@Gu@physx@@QEAAXAEBT__m128@@@Z 000000018017aac0 f i GuPCMContactCapsuleBox.obj
 0001:00179af0       ?transformInv@PsTransformV@aos@shdfnd@physx@@QEBA?AT__m128@@AEBT5@@Z 000000018017aaf0 f i GuPCMContactCapsuleBox.obj
 0001:00179c30       ?pcmContactCapsuleConvex@Gu@physx@@YA_NAEBVGeometryUnion@12@0AEBVPxTransform@2@1AEBMAEAUCache@12@AEAVContactBuffer@12@@Z 000000018017ac30 f   GuPCMContactCapsuleConvex.obj
 0001:0017b210       ?CalculateCapsuleMinMargin@Gu@physx@@YA?AT__m128@@AEBT3@@Z 000000018017c210 f i GuPCMContactCapsuleConvex.obj
 0001:0017b290       ?pcmContactCapsuleHeightField@Gu@physx@@YA_NAEBVGeometryUnion@12@0AEBVPxTransform@2@1AEBMAEAUCache@12@AEAVContactBuffer@12@@Z 000000018017c290 f   GuPCMContactCapsuleHeightField.obj
 0001:0017b980       ??$PX_UNUSED@PEAVMeshPersistentContact@Gu@physx@@@@YAXAEBQEAVMeshPersistentContact@Gu@physx@@@Z 000000018017c980 f i GuPCMContactCapsuleHeightField.obj
 0001:0017b990       ??$processTriangleCache@$0BA@@PCMCapsuleVsHeightfieldContactGenerationCallback@physx@@QEAAXAEAU?$TriangleCache@$0BA@@Gu@1@@Z 000000018017c990 f i GuPCMContactCapsuleHeightField.obj
 0001:0017b9d0       ??$processTriangleCache@$0BA@VPCMCapsuleVsMeshContactGeneration@Gu@physx@@@PCMMeshContactGeneration@Gu@physx@@QEAA_NAEAU?$TriangleCache@$0BA@@12@@Z 000000018017c9d0 f i GuPCMContactCapsuleHeightField.obj
 0001:0017bae0       ??0?$PCMHeightfieldContactGenerationCallback@UPCMCapsuleVsHeightfieldContactGenerationCallback@physx@@@Gu@physx@@QEAA@AEBVHeightFieldUtil@12@AEBVPxTransform@2@@Z 000000018017cae0 f i GuPCMContactCapsuleHeightField.obj
 0001:0017bb50       ??0?$TriangleCache@$0BA@@Gu@physx@@QEAA@XZ 000000018017cb50 f i GuPCMContactCapsuleHeightField.obj
 0001:0017bba0       ??0PCMCapsuleVsHeightfieldContactGenerationCallback@physx@@QEAA@AEBVCapsuleV@Gu@1@AEBT__m128@@1AEBVPsTransformV@aos@shdfnd@1@2AEBVPxTransform@1@AEAVMultiplePersistentContactManifold@31@AEAVContactBuffer@31@AEAVHeightFieldUtil@31@@Z 000000018017cba0 f i GuPCMContactCapsuleHeightField.obj
 0001:0017bc60       ??0PCMCapsuleVsMeshContactGeneration@Gu@physx@@QEAA@AEBVCapsuleV@12@AEBT__m128@@1AEBVPsTransformV@aos@shdfnd@2@2AEAVMultiplePersistentContactManifold@12@AEAVContactBuffer@12@@Z 000000018017cc60 f i GuPCMContactCapsuleHeightField.obj
 0001:0017bdf0       ??0PCMContactPatch@Gu@physx@@QEAA@XZ 000000018017cdf0 f i GuPCMContactCapsuleHeightField.obj
 0001:0017be60       ??0PCMMeshContactGeneration@Gu@physx@@QEAA@AEBT__m128@@0AEBVPsTransformV@aos@shdfnd@2@1AEAVMultiplePersistentContactManifold@12@AEAVContactBuffer@12@@Z 000000018017ce60 f i GuPCMContactCapsuleHeightField.obj
 0001:0017c150       ??1?$PCMHeightfieldContactGenerationCallback@UPCMCapsuleVsHeightfieldContactGenerationCallback@physx@@@Gu@physx@@UEAA@XZ 000000018017d150 f i GuPCMContactCapsuleHeightField.obj
 0001:0017c170       ??1PCMCapsuleVsHeightfieldContactGenerationCallback@physx@@UEAA@XZ 000000018017d170 f i GuPCMContactCapsuleHeightField.obj
 0001:0017c190       ??_G?$PCMHeightfieldContactGenerationCallback@UPCMCapsuleVsHeightfieldContactGenerationCallback@physx@@@Gu@physx@@UEAAPEAXI@Z 000000018017d190 f i GuPCMContactCapsuleHeightField.obj
 0001:0017c190       ??_E?$PCMHeightfieldContactGenerationCallback@UPCMCapsuleVsHeightfieldContactGenerationCallback@physx@@@Gu@physx@@UEAAPEAXI@Z 000000018017d190 f i GuPCMContactCapsuleHeightField.obj
 0001:0017c1e0       ??_EPCMCapsuleVsHeightfieldContactGenerationCallback@physx@@UEAAPEAXI@Z 000000018017d1e0 f i GuPCMContactCapsuleHeightField.obj
 0001:0017c1e0       ??_GPCMCapsuleVsHeightfieldContactGenerationCallback@physx@@UEAAPEAXI@Z 000000018017d1e0 f i GuPCMContactCapsuleHeightField.obj
 0001:0017c230       ?addTriangle@?$TriangleCache@$0BA@@Gu@physx@@QEAAXPEBVPxVec3@3@PEBIIE@Z 000000018017d230 f i GuPCMContactCapsuleHeightField.obj
 0001:0017c480       ?getMultipleManifold@Cache@Gu@physx@@QEAAAEAVMultiplePersistentContactManifold@23@XZ 000000018017d480 f i GuPCMContactCapsuleHeightField.obj
 0001:0017c520       ?invalidate@MultiplePersistentContactManifold@Gu@physx@@QEAAIAEBVPsTransformV@aos@shdfnd@3@AEBT__m128@@1@Z 000000018017d520 f i GuPCMContactCapsuleHeightField.obj
 0001:0017c7b0       ?isEmpty@SinglePersistentContactManifold@Gu@physx@@QEAA_NXZ 000000018017d7b0 f i GuPCMContactCapsuleHeightField.obj
 0001:0017c7f0       ?maxTransformPositionDelta@MultiplePersistentContactManifold@Gu@physx@@QEAA?AT__m128@@AEBT4@@Z 000000018017d7f0 f i GuPCMContactCapsuleHeightField.obj
 0001:0017c920       ?onEvent@?$PCMHeightfieldContactGenerationCallback@UPCMCapsuleVsHeightfieldContactGenerationCallback@physx@@@Gu@physx@@UEAA_NIPEAI@Z 000000018017d920 f i GuPCMContactCapsuleHeightField.obj
 0001:0017d020       ?prioritizeContactPatches@PCMMeshContactGeneration@Gu@physx@@QEAAXXZ 000000018017e020 f i GuPCMContactCapsuleHeightField.obj
 0001:0017d270       ?processContacts@PCMMeshContactGeneration@Gu@physx@@QEAAXE_N@Z 000000018017e270 f i GuPCMContactCapsuleHeightField.obj
 0001:0017d490       ?reduceManifoldContactsInDifferentPatches@MultiplePersistentContactManifold@Gu@physx@@QEAAIPEAPEAUPCMContactPatch@23@IPEAVMeshPersistentContact@23@IAEBT__m128@@@Z 000000018017e490 f i GuPCMContactCapsuleHeightField.obj
 0001:0017d770       ?refineContactPatchConnective@MultiplePersistentContactManifold@Gu@physx@@QEAAXPEAPEAUPCMContactPatch@23@IPEAVMeshPersistentContact@23@AEBT__m128@@@Z 000000018017e770 f i GuPCMContactCapsuleHeightField.obj
 0001:0017d9b0       ?refreshManifold@MultiplePersistentContactManifold@Gu@physx@@QEAAXAEBVPsMatTransformV@aos@shdfnd@3@AEBT__m128@@1@Z 000000018017e9b0 f i GuPCMContactCapsuleHeightField.obj
 0001:0017dcd0       ?setRelativeTransform@MultiplePersistentContactManifold@Gu@physx@@QEAAXAEBVPsTransformV@aos@shdfnd@3@@Z 000000018017ecd0 f i GuPCMContactCapsuleHeightField.obj
 0001:0017dd00       ?pcmContactCapsuleMesh@Gu@physx@@YA_NAEBVGeometryUnion@12@0AEBVPxTransform@2@1AEBMAEAUCache@12@AEAVContactBuffer@12@@Z 000000018017ed00 f   GuPCMContactCapsuleMesh.obj
 0001:0017e570       ??$processTriangleCache@$0BA@@PCMCapsuleVsMeshContactGenerationCallback@physx@@QEAAXAEAU?$TriangleCache@$0BA@@Gu@1@@Z 000000018017f570 f i GuPCMContactCapsuleMesh.obj
 0001:0017e5b0       ??0?$PCMMeshContactGenerationCallback@UPCMCapsuleVsMeshContactGenerationCallback@physx@@@Gu@physx@@QEAA@AEBVFastVertex2ShapeScaling@Cm@2@PEBE_N@Z 000000018017f5b0 f i GuPCMContactCapsuleMesh.obj
 0001:0017e650       ??0PCMCapsuleVsMeshContactGenerationCallback@physx@@QEAA@AEBVCapsuleV@Gu@1@AEBT__m128@@1AEBVPsTransformV@aos@shdfnd@1@2AEAVMultiplePersistentContactManifold@31@AEAVContactBuffer@31@PEBEAEBVFastVertex2ShapeScaling@Cm@1@_N@Z 000000018017f650 f i GuPCMContactCapsuleMesh.obj
 0001:0017e720       ??1?$PCMMeshContactGenerationCallback@UPCMCapsuleVsMeshContactGenerationCallback@physx@@@Gu@physx@@UEAA@XZ 000000018017f720 f i GuPCMContactCapsuleMesh.obj
 0001:0017e740       ??1PCMCapsuleVsMeshContactGenerationCallback@physx@@UEAA@XZ 000000018017f740 f i GuPCMContactCapsuleMesh.obj
 0001:0017e760       ??_E?$PCMMeshContactGenerationCallback@UPCMCapsuleVsMeshContactGenerationCallback@physx@@@Gu@physx@@UEAAPEAXI@Z 000000018017f760 f i GuPCMContactCapsuleMesh.obj
 0001:0017e760       ??_G?$PCMMeshContactGenerationCallback@UPCMCapsuleVsMeshContactGenerationCallback@physx@@@Gu@physx@@UEAAPEAXI@Z 000000018017f760 f i GuPCMContactCapsuleMesh.obj
 0001:0017e7b0       ??_EPCMCapsuleVsMeshContactGenerationCallback@physx@@UEAAPEAXI@Z 000000018017f7b0 f i GuPCMContactCapsuleMesh.obj
 0001:0017e7b0       ??_GPCMCapsuleVsMeshContactGenerationCallback@physx@@UEAAPEAXI@Z 000000018017f7b0 f i GuPCMContactCapsuleMesh.obj
 0001:0017e800       ?doTest@PCMCapsuleVsMeshContactGenerationCallback@physx@@QEAA_NAEBVPxVec3@2@00@Z 000000018017f800 f i GuPCMContactCapsuleMesh.obj
 0001:0017e820       ?flushCache@?$PCMMeshContactGenerationCallback@UPCMCapsuleVsMeshContactGenerationCallback@physx@@@Gu@physx@@QEAAXXZ 000000018017f820 f i GuPCMContactCapsuleMesh.obj
 0001:0017e880       ?isEmpty@?$TriangleCache@$0BA@@Gu@physx@@QEBA_NXZ 000000018017f880 f i GuPCMContactCapsuleMesh.obj
 0001:0017e8c0       ?isFull@?$TriangleCache@$0BA@@Gu@physx@@QEBA_NXZ 000000018017f8c0 f i GuPCMContactCapsuleMesh.obj
 0001:0017e900       ?processHit@?$PCMMeshContactGenerationCallback@UPCMCapsuleVsMeshContactGenerationCallback@physx@@@Gu@physx@@UEAA_NAEBUPxRaycastHit@3@AEBVPxVec3@3@11AEAMPEBI@Z 000000018017f900 f i GuPCMContactCapsuleMesh.obj
 0001:0017ebe0       ?reset@?$TriangleCache@$0BA@@Gu@physx@@QEAAXXZ 000000018017fbe0 f i GuPCMContactCapsuleMesh.obj
 0001:0017ec00       ?generateLastContacts@PCMConvexVsMeshContactGeneration@Gu@physx@@QEAAXXZ 000000018017fc00 f   GuPCMContactConvexCommon.obj
 0001:0017eed0       ?addContactsToPatch@PCMConvexVsMeshContactGeneration@Gu@physx@@QEAAXAEBT__m128@@II@Z 000000018017fed0 f   GuPCMContactConvexCommon.obj
 0001:0017f3e0       ?processTriangle@PCMConvexVsMeshContactGeneration@Gu@physx@@QEAA_NPEBVPxVec3@3@IEPEBI@Z 00000001801803e0 f   GuPCMContactConvexCommon.obj
 0001:0017fa80       ?processTriangle@PCMConvexVsMeshContactGeneration@Gu@physx@@SA_NAEBUPolygonalData@23@PEAVSupportLocal@23@PEBVPxVec3@3@IEAEBT__m128@@_NAEBVPsTransformV@aos@shdfnd@3@AEBVPsMatTransformV@9shdfnd@3@PEAVMeshPersistentContact@23@AEAI@Z 0000000180180a80 f   GuPCMContactConvexCommon.obj
 0001:0017ff00       ?processTriangle@PCMSphereVsMeshContactGeneration@Gu@physx@@QEAA_NPEBVPxVec3@3@IEPEBI@Z 0000000180180f00 f   GuPCMContactConvexCommon.obj
 0001:00180a70       ?generateEEContacts@PCMCapsuleVsMeshContactGeneration@Gu@physx@@QEAAXAEBT__m128@@000I000PEAVMeshPersistentContact@23@AEAI@Z 0000000180181a70 f   GuPCMContactConvexCommon.obj
 0001:00180bd0       ?generateEE@PCMCapsuleVsMeshContactGeneration@Gu@physx@@QEAAXAEBT__m128@@000I00PEAVMeshPersistentContact@23@AEAI@Z 0000000180181bd0 f   GuPCMContactConvexCommon.obj
 0001:001815b0       ?generateContacts@PCMCapsuleVsMeshContactGeneration@Gu@physx@@SA_NAEBT__m128@@0000I000PEAVMeshPersistentContact@23@AEAI@Z 00000001801825b0 f   GuPCMContactConvexCommon.obj
 0001:00182650       ?generateEEContactsMTD@PCMCapsuleVsMeshContactGeneration@Gu@physx@@SAXAEBT__m128@@000I000PEAVMeshPersistentContact@23@AEAI@Z 0000000180183650 f   GuPCMContactConvexCommon.obj
 0001:00182790       ?generateEEMTD@PCMCapsuleVsMeshContactGeneration@Gu@physx@@SAXAEBT__m128@@000I00PEAVMeshPersistentContact@23@AEAI@Z 0000000180183790 f   GuPCMContactConvexCommon.obj
 0001:00183050       ?processTriangle@PCMCapsuleVsMeshContactGeneration@Gu@physx@@QEAA_NPEBVPxVec3@3@IEPEBI@Z 0000000180184050 f   GuPCMContactConvexCommon.obj
 0001:00183de0       ?processTriangle@PCMCapsuleVsMeshContactGeneration@Gu@physx@@SA_NAEBVTriangleV@23@IAEBVCapsuleV@23@AEBT__m128@@EPEAVMeshPersistentContact@23@AEAI@Z 0000000180184de0 f   GuPCMContactConvexCommon.obj
 0001:00185cc0       ?pcmDistanceSegmentTriangleSquared@Gu@physx@@YA?AT__m128@@AEBT3@0000AEAT3@11@Z 0000000180186cc0 f   GuPCMContactConvexCommon.obj
 0001:0018a2e0       ??$PX_UNUSED@PEBI@@YAXAEBQEBI@Z 000000018018b2e0 f i GuPCMContactConvexCommon.obj
 0001:0018a2f0       ??0?$SupportLocalImpl@VTriangleV@Gu@physx@@@Gu@physx@@QEAA@AEBVTriangleV@12@AEBVPsTransformV@aos@shdfnd@2@AEBUMat33V@562@2_N@Z 000000018018b2f0 f i GuPCMContactConvexCommon.obj
 0001:0018a370       ??0TriangleV@Gu@physx@@QEAA@PEBVPxVec3@2@@Z 000000018018b370 f i GuPCMContactConvexCommon.obj
 0001:0018a640       ??1?$SupportLocalImpl@VTriangleV@Gu@physx@@@Gu@physx@@UEAA@XZ 000000018018b640 f i GuPCMContactConvexCommon.obj
 0001:0018a660       ??_E?$SupportLocalImpl@VTriangleV@Gu@physx@@@Gu@physx@@UEAAPEAXI@Z 000000018018b660 f i GuPCMContactConvexCommon.obj
 0001:0018a660       ??_G?$SupportLocalImpl@VTriangleV@Gu@physx@@@Gu@physx@@UEAAPEAXI@Z 000000018018b660 f i GuPCMContactConvexCommon.obj
 0001:0018a6b0       ?FNegMulSub@aos@shdfnd@physx@@YA?AT__m128@@T4@00@Z 000000018018b6b0 f i GuPCMContactConvexCommon.obj
 0001:0018a730       ?V4Perm_XZXZ@aos@shdfnd@physx@@YA?AT__m128@@T4@@Z 000000018018b730 f i GuPCMContactConvexCommon.obj
 0001:0018a760       ?V4Perm_YWYW@aos@shdfnd@physx@@YA?AT__m128@@T4@@Z 000000018018b760 f i GuPCMContactConvexCommon.obj
 0001:0018a790       ?V4Perm_YXWZ@aos@shdfnd@physx@@YA?AT__m128@@T4@@Z 000000018018b790 f i GuPCMContactConvexCommon.obj
 0001:0018a7c0       ?addManifoldPointToPatch@PCMMeshContactGeneration@Gu@physx@@QEAAXAEBT__m128@@0I@Z 000000018018b7c0 f i GuPCMContactConvexCommon.obj
 0001:0018adf0       ?doSupport@?$SupportLocalImpl@VTriangleV@Gu@physx@@@Gu@physx@@UEBA?AT__m128@@AEBT4@@Z 000000018018bdf0 f i GuPCMContactConvexCommon.obj
 0001:0018ae40       ?doSupport@?$SupportLocalImpl@VTriangleV@Gu@physx@@@Gu@physx@@UEBAXAEBT__m128@@AEAT4@1@Z 000000018018be40 f i GuPCMContactConvexCommon.obj
 0001:0018ae90       ?get@?$CacheMap@UCachedEdge@Gu@physx@@$0IA@@Gu@physx@@QEBAPEBUCachedEdge@23@AEBU423@@Z 000000018018be90 f i GuPCMContactConvexCommon.obj
 0001:0018af50       ?isValidTriangleBarycentricCoord2@Gu@physx@@YA?AT__m128@@AEBT3@@Z 000000018018bf50 f i GuPCMContactConvexCommon.obj
 0001:0018b340       ?normal@TriangleV@Gu@physx@@QEBA?AT__m128@@XZ 000000018018c340 f i GuPCMContactConvexCommon.obj
 0001:0018b4f0       ?pcmDistanceSegmentSegmentSquared4@Gu@physx@@YA?AT__m128@@AEBT3@000000000AEAT3@1@Z 000000018018c4f0 f i GuPCMContactConvexCommon.obj
 0001:0018d080       ?populateVerts@?$SupportLocalImpl@VTriangleV@Gu@physx@@@Gu@physx@@UEBAXPEBEIPEBVPxVec3@3@PEAT__m128@@@Z 000000018018e080 f i GuPCMContactConvexCommon.obj
 0001:0018d0e0       ?populateVerts@TriangleV@Gu@physx@@QEBAXPEBEIPEBVPxVec3@3@PEAT__m128@@@Z 000000018018e0e0 f i GuPCMContactConvexCommon.obj
 0001:0018d180       ?supportLocal@TriangleV@Gu@physx@@QEBAXAEBT__m128@@AEAT4@1@Z 000000018018e180 f i GuPCMContactConvexCommon.obj
 0001:0018d470       ?pcmContactConvexConvex@Gu@physx@@YA_NAEBVGeometryUnion@12@0AEBVPxTransform@2@1AEBMAEAUCache@12@AEAVContactBuffer@12@@Z 000000018018e470 f   GuPCMContactConvexConvex.obj
 0001:0018f340       ?pcmContactBoxHeightField@Gu@physx@@YA_NAEBVGeometryUnion@12@0AEBVPxTransform@2@1AEBMAEAUCache@12@AEAVContactBuffer@12@@Z 0000000180190340 f   GuPCMContactConvexHeightField.obj
 0001:0018f620       ?pcmContactConvexHeightField@Gu@physx@@YA_NAEBVGeometryUnion@12@0AEBVPxTransform@2@1AEBMAEAUCache@12@AEAVContactBuffer@12@@Z 0000000180190620 f   GuPCMContactConvexHeightField.obj
 0001:0018fa10       ?PCMContactConvexHeightfield@Gu@physx@@YA_NAEBUPolygonalData@12@PEAVSupportLocal@12@AEBT__m128@@AEBVPxBounds3@2@AEBVPxHeightFieldGeometry@2@AEBVPxTransform@2@5MAEAVContactBuffer@12@AEBVFastVertex2ShapeScaling@Cm@2@_NAEAVMultiplePersistentContactManifold@12@@Z 0000000180190a10 f   GuPCMContactConvexHeightField.obj
 0001:00190140       ??$processTriangleCache@$0BA@@PCMConvexVsHeightfieldContactGenerationCallback@physx@@QEAAXAEAU?$TriangleCache@$0BA@@Gu@1@@Z 0000000180191140 f i GuPCMContactConvexHeightField.obj
 0001:00190180       ??$processTriangleCache@$0BA@VPCMConvexVsMeshContactGeneration@Gu@physx@@@PCMMeshContactGeneration@Gu@physx@@QEAA_NAEAU?$TriangleCache@$0BA@@12@@Z 0000000180191180 f i GuPCMContactConvexHeightField.obj
 0001:00190290       ??0?$PCMHeightfieldContactGenerationCallback@UPCMConvexVsHeightfieldContactGenerationCallback@physx@@@Gu@physx@@QEAA@AEBVHeightFieldUtil@12@AEBVPxTransform@2@@Z 0000000180191290 f i GuPCMContactConvexHeightField.obj
 0001:00190300       ??0?$SupportLocalShrunkImpl@VBoxV@Gu@physx@@VShrunkBoxV@23@@Gu@physx@@QEAA@AEBVBoxV@12@AEBVPsTransformV@aos@shdfnd@2@AEBUMat33V@562@2_N@Z 0000000180191300 f i GuPCMContactConvexHeightField.obj
 0001:00190390       ??0?$SupportLocalShrunkImpl@VConvexHullNoScaleV@Gu@physx@@VShrunkConvexHullNoScaleV@23@@Gu@physx@@QEAA@AEBVConvexHullNoScaleV@12@AEBVPsTransformV@aos@shdfnd@2@AEBUMat33V@562@2_N@Z 0000000180191390 f i GuPCMContactConvexHeightField.obj
 0001:00190420       ??0?$SupportLocalShrunkImpl@VConvexHullV@Gu@physx@@VShrunkConvexHullV@23@@Gu@physx@@QEAA@AEBVConvexHullV@12@AEBVPsTransformV@aos@shdfnd@2@AEBUMat33V@562@2_N@Z 0000000180191420 f i GuPCMContactConvexHeightField.obj
 0001:001904b0       ??0PCMConvexVsHeightfieldContactGenerationCallback@physx@@QEAA@AEBT__m128@@0AEBUPolygonalData@Gu@1@PEAVSupportLocal@41@AEBVFastVertex2ShapeScaling@Cm@1@_NAEBVPsTransformV@aos@shdfnd@1@5AEBVPxTransform@1@AEAVMultiplePersistentContactManifold@41@AEAVContactBuffer@41@AEAVHeightFieldUtil@41@AEAVContainer@41@@Z 00000001801914b0 f i GuPCMContactConvexHeightField.obj
 0001:001905c0       ??0PCMConvexVsMeshContactGeneration@Gu@physx@@QEAA@AEBT__m128@@0AEBVPsTransformV@aos@shdfnd@2@1AEAVMultiplePersistentContactManifold@12@AEAVContactBuffer@12@AEBUPolygonalData@12@PEAVSupportLocal@12@AEAVContainer@12@AEBVFastVertex2ShapeScaling@Cm@2@_N@Z 00000001801915c0 f i GuPCMContactConvexHeightField.obj
 0001:00190770       ??1?$PCMHeightfieldContactGenerationCallback@UPCMConvexVsHeightfieldContactGenerationCallback@physx@@@Gu@physx@@UEAA@XZ 0000000180191770 f i GuPCMContactConvexHeightField.obj
 0001:00190790       ??1?$SupportLocalShrunkImpl@VBoxV@Gu@physx@@VShrunkBoxV@23@@Gu@physx@@UEAA@XZ 0000000180191790 f i GuPCMContactConvexHeightField.obj
 0001:001907b0       ??1?$SupportLocalShrunkImpl@VConvexHullNoScaleV@Gu@physx@@VShrunkConvexHullNoScaleV@23@@Gu@physx@@UEAA@XZ 00000001801917b0 f i GuPCMContactConvexHeightField.obj
 0001:001907d0       ??1?$SupportLocalShrunkImpl@VConvexHullV@Gu@physx@@VShrunkConvexHullV@23@@Gu@physx@@UEAA@XZ 00000001801917d0 f i GuPCMContactConvexHeightField.obj
 0001:001907f0       ??1PCMConvexVsHeightfieldContactGenerationCallback@physx@@UEAA@XZ 00000001801917f0 f i GuPCMContactConvexHeightField.obj
 0001:00190810       ??_E?$PCMHeightfieldContactGenerationCallback@UPCMConvexVsHeightfieldContactGenerationCallback@physx@@@Gu@physx@@UEAAPEAXI@Z 0000000180191810 f i GuPCMContactConvexHeightField.obj
 0001:00190810       ??_G?$PCMHeightfieldContactGenerationCallback@UPCMConvexVsHeightfieldContactGenerationCallback@physx@@@Gu@physx@@UEAAPEAXI@Z 0000000180191810 f i GuPCMContactConvexHeightField.obj
 0001:00190860       ??_G?$SupportLocalShrunkImpl@VBoxV@Gu@physx@@VShrunkBoxV@23@@Gu@physx@@UEAAPEAXI@Z 0000000180191860 f i GuPCMContactConvexHeightField.obj
 0001:00190860       ??_E?$SupportLocalShrunkImpl@VBoxV@Gu@physx@@VShrunkBoxV@23@@Gu@physx@@UEAAPEAXI@Z 0000000180191860 f i GuPCMContactConvexHeightField.obj
 0001:001908b0       ??_E?$SupportLocalShrunkImpl@VConvexHullNoScaleV@Gu@physx@@VShrunkConvexHullNoScaleV@23@@Gu@physx@@UEAAPEAXI@Z 00000001801918b0 f i GuPCMContactConvexHeightField.obj
 0001:001908b0       ??_G?$SupportLocalShrunkImpl@VConvexHullNoScaleV@Gu@physx@@VShrunkConvexHullNoScaleV@23@@Gu@physx@@UEAAPEAXI@Z 00000001801918b0 f i GuPCMContactConvexHeightField.obj
 0001:00190900       ??_G?$SupportLocalShrunkImpl@VConvexHullV@Gu@physx@@VShrunkConvexHullV@23@@Gu@physx@@UEAAPEAXI@Z 0000000180191900 f i GuPCMContactConvexHeightField.obj
 0001:00190900       ??_E?$SupportLocalShrunkImpl@VConvexHullV@Gu@physx@@VShrunkConvexHullV@23@@Gu@physx@@UEAAPEAXI@Z 0000000180191900 f i GuPCMContactConvexHeightField.obj
 0001:00190950       ??_EPCMConvexVsHeightfieldContactGenerationCallback@physx@@UEAAPEAXI@Z 0000000180191950 f i GuPCMContactConvexHeightField.obj
 0001:00190950       ??_GPCMConvexVsHeightfieldContactGenerationCallback@physx@@UEAAPEAXI@Z 0000000180191950 f i GuPCMContactConvexHeightField.obj
 0001:001909a0       ?doSupport@?$SupportLocalShrunkImpl@VBoxV@Gu@physx@@VShrunkBoxV@23@@Gu@physx@@UEBA?AT__m128@@AEBT4@@Z 00000001801919a0 f i GuPCMContactConvexHeightField.obj
 0001:001909f0       ?doSupport@?$SupportLocalShrunkImpl@VBoxV@Gu@physx@@VShrunkBoxV@23@@Gu@physx@@UEBAXAEBT__m128@@AEAT4@1@Z 00000001801919f0 f i GuPCMContactConvexHeightField.obj
 0001:00190a40       ?doSupport@?$SupportLocalShrunkImpl@VConvexHullNoScaleV@Gu@physx@@VShrunkConvexHullNoScaleV@23@@Gu@physx@@UEBA?AT__m128@@AEBT4@@Z 0000000180191a40 f i GuPCMContactConvexHeightField.obj
 0001:00190a90       ?doSupport@?$SupportLocalShrunkImpl@VConvexHullNoScaleV@Gu@physx@@VShrunkConvexHullNoScaleV@23@@Gu@physx@@UEBAXAEBT__m128@@AEAT4@1@Z 0000000180191a90 f i GuPCMContactConvexHeightField.obj
 0001:00190ae0       ?doSupport@?$SupportLocalShrunkImpl@VConvexHullV@Gu@physx@@VShrunkConvexHullV@23@@Gu@physx@@UEBA?AT__m128@@AEBT4@@Z 0000000180191ae0 f i GuPCMContactConvexHeightField.obj
 0001:00190b30       ?doSupport@?$SupportLocalShrunkImpl@VConvexHullV@Gu@physx@@VShrunkConvexHullV@23@@Gu@physx@@UEBAXAEBT__m128@@AEAT4@1@Z 0000000180191b30 f i GuPCMContactConvexHeightField.obj
 0001:00190b80       ?invalidate@MultiplePersistentContactManifold@Gu@physx@@QEAAIAEBVPsTransformV@aos@shdfnd@3@AEBT__m128@@@Z 0000000180191b80 f i GuPCMContactConvexHeightField.obj
 0001:00190be0       ?onEvent@?$PCMHeightfieldContactGenerationCallback@UPCMConvexVsHeightfieldContactGenerationCallback@physx@@@Gu@physx@@UEAA_NIPEAI@Z 0000000180191be0 f i GuPCMContactConvexHeightField.obj
 0001:001912e0       ?populateVerts@?$SupportLocalShrunkImpl@VBoxV@Gu@physx@@VShrunkBoxV@23@@Gu@physx@@UEBAXPEBEIPEBVPxVec3@3@PEAT__m128@@@Z 00000001801922e0 f i GuPCMContactConvexHeightField.obj
 0001:00191340       ?populateVerts@?$SupportLocalShrunkImpl@VConvexHullNoScaleV@Gu@physx@@VShrunkConvexHullNoScaleV@23@@Gu@physx@@UEBAXPEBEIPEBVPxVec3@3@PEAT__m128@@@Z 0000000180192340 f i GuPCMContactConvexHeightField.obj
 0001:001913a0       ?populateVerts@?$SupportLocalShrunkImpl@VConvexHullV@Gu@physx@@VShrunkConvexHullV@23@@Gu@physx@@UEBAXPEBEIPEBVPxVec3@3@PEAT__m128@@@Z 00000001801923a0 f i GuPCMContactConvexHeightField.obj
 0001:00191400       ?pcmContactBoxMesh@Gu@physx@@YA_NAEBVGeometryUnion@12@0AEBVPxTransform@2@1AEBMAEAUCache@12@AEAVContactBuffer@12@@Z 0000000180192400 f   GuPCMContactConvexMesh.obj
 0001:001916d0       ?pcmContactConvexMesh@Gu@physx@@YA_NAEBVGeometryUnion@12@0AEBVPxTransform@2@1AEBMAEAUCache@12@AEAVContactBuffer@12@@Z 00000001801926d0 f   GuPCMContactConvexMesh.obj
 0001:00191ae0       ?PCMContactConvexMesh@Gu@physx@@YA_NAEBUPolygonalData@12@PEAVSupportLocal@12@AEBT__m128@@AEBVPxBounds3@2@AEBUPxTriangleMeshGeometryLL@2@AEBVPxTransform@2@5MAEAVContactBuffer@12@AEBVFastVertex2ShapeScaling@Cm@2@7_N8AEAVMultiplePersistentContactManifold@12@@Z 0000000180192ae0 f   GuPCMContactConvexMesh.obj
 0001:00192300       ??$processTriangleCache@$0BA@@PCMConvexVsMeshContactGenerationCallback@physx@@QEAAXAEAU?$TriangleCache@$0BA@@Gu@1@@Z 0000000180193300 f i GuPCMContactConvexMesh.obj
 0001:00192340       ??0?$PCMMeshContactGenerationCallback@UPCMConvexVsMeshContactGenerationCallback@physx@@@Gu@physx@@QEAA@AEBVFastVertex2ShapeScaling@Cm@2@PEBE_N@Z 0000000180193340 f i GuPCMContactConvexMesh.obj
 0001:001923e0       ??0PCMConvexVsMeshContactGenerationCallback@physx@@QEAA@AEBT__m128@@0AEBVPsTransformV@aos@shdfnd@1@1AEAVMultiplePersistentContactManifold@Gu@1@AEAVContactBuffer@71@AEBUPolygonalData@71@PEAVSupportLocal@71@AEAVContainer@71@AEBVFastVertex2ShapeScaling@Cm@1@_N7PEBE8AEBVBox@71@@Z 00000001801933e0 f i GuPCMContactConvexMesh.obj
 0001:00192520       ??1?$PCMMeshContactGenerationCallback@UPCMConvexVsMeshContactGenerationCallback@physx@@@Gu@physx@@UEAA@XZ 0000000180193520 f i GuPCMContactConvexMesh.obj
 0001:00192540       ??1PCMConvexVsMeshContactGenerationCallback@physx@@UEAA@XZ 0000000180193540 f i GuPCMContactConvexMesh.obj
 0001:00192560       ??_G?$PCMMeshContactGenerationCallback@UPCMConvexVsMeshContactGenerationCallback@physx@@@Gu@physx@@UEAAPEAXI@Z 0000000180193560 f i GuPCMContactConvexMesh.obj
 0001:00192560       ??_E?$PCMMeshContactGenerationCallback@UPCMConvexVsMeshContactGenerationCallback@physx@@@Gu@physx@@UEAAPEAXI@Z 0000000180193560 f i GuPCMContactConvexMesh.obj
 0001:001925b0       ??_GPCMConvexVsMeshContactGenerationCallback@physx@@UEAAPEAXI@Z 00000001801935b0 f i GuPCMContactConvexMesh.obj
 0001:001925b0       ??_EPCMConvexVsMeshContactGenerationCallback@physx@@UEAAPEAXI@Z 00000001801935b0 f i GuPCMContactConvexMesh.obj
 0001:00192600       ?doTest@PCMConvexVsMeshContactGenerationCallback@physx@@QEAAHAEBVPxVec3@2@00@Z 0000000180193600 f i GuPCMContactConvexMesh.obj
 0001:00192650       ?flushCache@?$PCMMeshContactGenerationCallback@UPCMConvexVsMeshContactGenerationCallback@physx@@@Gu@physx@@QEAAXXZ 0000000180193650 f i GuPCMContactConvexMesh.obj
 0001:001926b0       ?processHit@?$PCMMeshContactGenerationCallback@UPCMConvexVsMeshContactGenerationCallback@physx@@@Gu@physx@@UEAA_NAEBUPxRaycastHit@3@AEBVPxVec3@3@11AEAMPEBI@Z 00000001801936b0 f i GuPCMContactConvexMesh.obj
 0001:00192990       ?generateFullContactManifold@Gu@physx@@YA_NAEAUPolygonalData@12@0PEAVSupportLocal@12@1PEAVPersistentContact@12@AEAIAEBT__m128@@4_N@Z 0000000180193990 f   GuPCMContactGenBoxConvex.obj
 0001:00193210       ?computeMTD@Gu@physx@@YA_NAEAUPolygonalData@12@0PEAVSupportLocal@12@1AEAT__m128@@2@Z 0000000180194210 f   GuPCMContactGenBoxConvex.obj
 0001:001935a0       ?buildPartialHull@Gu@physx@@YAXAEBUPolygonalData@12@PEAVSupportLocal@12@AEAVSeparatingAxes@12@AEBT__m128@@3@Z 00000001801945a0 f   GuPCMContactGenBoxConvex.obj
 0001:001955f0       ?generatedContacts@Gu@physx@@YAXAEAUPolygonalData@12@0AEBUHullPolygonData@12@1PEAVSupportLocal@12@2AEBVPsMatTransformV@aos@shdfnd@2@PEAVPersistentContact@12@AEAIAEBT__m128@@@Z 00000001801965f0 f   GuPCMContactGenBoxConvex.obj
 0001:00197f40       ??$PX_UNUSED@UPolygonalData@Gu@physx@@@@YAXAEBUPolygonalData@Gu@physx@@@Z 0000000180198f40 f i GuPCMContactGenBoxConvex.obj
 0001:00197f50       ?getPolygonIndex@Gu@physx@@YAHAEBUPolygonalData@12@PEAVSupportLocal@12@AEBT__m128@@@Z 0000000180198f50 f i GuPCMContactGenBoxConvex.obj
 0001:001989a0       ?signed2DTriArea@Gu@physx@@YA?AT__m128@@AEBT3@00@Z 00000001801999a0 f i GuPCMContactGenBoxConvex.obj
 0001:00198c30       ?generateFullContactManifold@Gu@physx@@YA_NAEBVCapsuleV@12@AEAUPolygonalData@12@PEAVSupportLocal@12@AEBVPsMatTransformV@aos@shdfnd@2@PEAVPersistentContact@12@AEAIAEBT__m128@@AEAT__m128@@_N@Z 0000000180199c30 f   GuPCMContactGenSphereCapsule.obj
 0001:00198df0       ?generateCapsuleBoxFullContactManifold@Gu@physx@@YA_NAEBVCapsuleV@12@AEAUPolygonalData@12@PEAVSupportLocal@12@AEBVPsMatTransformV@aos@shdfnd@2@PEAVPersistentContact@12@AEAIAEBT__m128@@AEAT__m128@@_N@Z 0000000180199df0 f   GuPCMContactGenSphereCapsule.obj
 0001:00198fc0       ?computeMTD@Gu@physx@@YA_NAEBVCapsuleV@12@AEAUPolygonalData@12@PEAVSupportLocal@12@AEAT__m128@@3@Z 0000000180199fc0 f   GuPCMContactGenSphereCapsule.obj
 0001:00199080       ?generateSphereFullContactManifold@Gu@physx@@YA_NAEBVCapsuleV@12@AEAUPolygonalData@12@PEAVSupportLocal@12@PEAVPersistentContact@12@AEAIAEBT__m128@@AEAT7@_N@Z 000000018019a080 f   GuPCMContactGenSphereCapsule.obj
 0001:00199b70       ?generatedCapsuleBoxFaceContacts@Gu@physx@@YAXAEBVCapsuleV@12@AEAUPolygonalData@12@AEBUHullPolygonData@12@PEAVSupportLocal@12@AEBVPsMatTransformV@aos@shdfnd@2@PEAVPersistentContact@12@AEAIAEBT__m128@@7@Z 000000018019ab70 f   GuPCMContactGenSphereCapsule.obj
 0001:0019b450       ?generatedContactsEEContacts@Gu@physx@@YAXAEBVCapsuleV@12@AEAUPolygonalData@12@AEBUHullPolygonData@12@PEAVSupportLocal@12@AEBVPsMatTransformV@aos@shdfnd@2@PEAVPersistentContact@12@AEAIAEBT__m128@@7@Z 000000018019c450 f   GuPCMContactGenSphereCapsule.obj
 0001:0019c0a0       ?BAndNot@aos@shdfnd@physx@@YA?AT__m128@@T4@0@Z 000000018019d0a0 f i GuPCMContactGenSphereCapsule.obj
 0001:0019c0e0       ?intersectSegmentPolyhedron@Gu@physx@@YA_NAEBT__m128@@0AEBUPolygonalData@12@AEAT3@2@Z 000000018019d0e0 f i GuPCMContactGenSphereCapsule.obj
 0001:0019c7b0       ?testPolyDataAxis@Gu@physx@@YA_NAEBVCapsuleV@12@AEBUPolygonalData@12@PEAVSupportLocal@12@AEBT__m128@@AEAT6@4@Z 000000018019d7b0 f i GuPCMContactGenSphereCapsule.obj
 0001:0019d0a0       ?pcmContactPlaneBox@Gu@physx@@YA_NAEBVGeometryUnion@12@0AEBVPxTransform@2@1AEBMAEAUCache@12@AEAVContactBuffer@12@@Z 000000018019e0a0 f   GuPCMContactPlaneBox.obj
 0001:0019f0a0       ?QuatGetBasisVector0@aos@shdfnd@physx@@YA?AT__m128@@T4@@Z 00000001801a00a0 f i GuPCMContactPlaneBox.obj
 0001:0019f4b0       ?invalidate_PrimitivesPlane@PersistentContactManifold@Gu@physx@@QEAAIAEBVPsTransformV@aos@shdfnd@3@AEBT__m128@@1@Z 00000001801a04b0 f i GuPCMContactPlaneBox.obj
 0001:0019f740       ?pcmContactPlaneCapsule@Gu@physx@@YA_NAEBVGeometryUnion@12@0AEBVPxTransform@2@1AEBMAEAUCache@12@AEAVContactBuffer@12@@Z 00000001801a0740 f   GuPCMContactPlaneCapsule.obj
 0001:001a0230       ?pcmContactPlaneConvex@Gu@physx@@YA_NAEBVGeometryUnion@12@0AEBVPxTransform@2@1AEBMAEAUCache@12@AEAVContactBuffer@12@@Z 00000001801a1230 f   GuPCMContactPlaneConvex.obj
 0001:001a0a90       ?ConstructVertex2ShapeMatrix@Gu@physx@@YA?AUMat33V@aos@shdfnd@2@AEBT__m128@@0@Z 00000001801a1a90 f i GuPCMContactPlaneConvex.obj
 0001:001a0ca0       ?pcmContactSphereConvex@Gu@physx@@YA_NAEBVGeometryUnion@12@0AEBVPxTransform@2@1AEBMAEAUCache@12@AEAVContactBuffer@12@@Z 00000001801a1ca0 f   GuPCMContactSphereConvex.obj
 0001:001a2590       ??0?$EPASupportMapPairLocalImpl@VCapsuleV@Gu@physx@@VConvexHullNoScaleV@23@@Gu@physx@@QEAA@AEBVCapsuleV@12@AEBVConvexHullNoScaleV@12@@Z 00000001801a3590 f i GuPCMContactSphereConvex.obj
 0001:001a2600       ??0CapsuleV@Gu@physx@@QEAA@AEBT__m128@@0@Z 00000001801a3600 f i GuPCMContactSphereConvex.obj
 0001:001a26e0       ??1?$EPASupportMapPairLocalImpl@VCapsuleV@Gu@physx@@VConvexHullNoScaleV@23@@Gu@physx@@UEAA@XZ 00000001801a36e0 f i GuPCMContactSphereConvex.obj
 0001:001a2700       ??_E?$EPASupportMapPairLocalImpl@VCapsuleV@Gu@physx@@VConvexHullNoScaleV@23@@Gu@physx@@UEAAPEAXI@Z 00000001801a3700 f i GuPCMContactSphereConvex.obj
 0001:001a2700       ??_G?$EPASupportMapPairLocalImpl@VCapsuleV@Gu@physx@@VConvexHullNoScaleV@23@@Gu@physx@@UEAAPEAXI@Z 00000001801a3700 f i GuPCMContactSphereConvex.obj
 0001:001a2750       ?doSupport@?$EPASupportMapPairLocalImpl@VCapsuleV@Gu@physx@@VConvexHullNoScaleV@23@@Gu@physx@@UEBAXAEBT__m128@@AEAT4@11@Z 00000001801a3750 f i GuPCMContactSphereConvex.obj
 0001:001a2860       ?doWarmStartSupport@?$EPASupportMapPairLocalImpl@VCapsuleV@Gu@physx@@VConvexHullNoScaleV@23@@Gu@physx@@UEBAXHHAEAT__m128@@00@Z 00000001801a3860 f i GuPCMContactSphereConvex.obj
 0001:001a2940       ?getContactPoint@PersistentContactManifold@Gu@physx@@QEAAAEAVPersistentContact@23@I@Z 00000001801a3940 f i GuPCMContactSphereConvex.obj
 0001:001a29d0       ?getDir@?$EPASupportMapPairLocalImpl@VCapsuleV@Gu@physx@@VConvexHullNoScaleV@23@@Gu@physx@@UEBA?AT__m128@@XZ 00000001801a39d0 f i GuPCMContactSphereConvex.obj
 0001:001a2a70       ?pcmContactSphereHeightField@Gu@physx@@YA_NAEBVGeometryUnion@12@0AEBVPxTransform@2@1AEBMAEAUCache@12@AEAVContactBuffer@12@@Z 00000001801a3a70 f   GuPCMContactSphereHeightField.obj
 0001:001a3170       ??$processTriangleCache@$0BA@@PCMSphereVsHeightfieldContactGenerationCallback@physx@@QEAAXAEAU?$TriangleCache@$0BA@@Gu@1@@Z 00000001801a4170 f i GuPCMContactSphereHeightField.obj
 0001:001a31b0       ??$processTriangleCache@$0BA@VPCMSphereVsMeshContactGeneration@Gu@physx@@@PCMMeshContactGeneration@Gu@physx@@QEAA_NAEAU?$TriangleCache@$0BA@@12@@Z 00000001801a41b0 f i GuPCMContactSphereHeightField.obj
 0001:001a32c0       ??0?$PCMHeightfieldContactGenerationCallback@UPCMSphereVsHeightfieldContactGenerationCallback@physx@@@Gu@physx@@QEAA@AEBVHeightFieldUtil@12@AEBVPxTransform@2@@Z 00000001801a42c0 f i GuPCMContactSphereHeightField.obj
 0001:001a3330       ??0PCMSphereVsHeightfieldContactGenerationCallback@physx@@QEAA@AEBT__m128@@000AEBVPsTransformV@aos@shdfnd@1@1AEBVPxTransform@1@AEAVMultiplePersistentContactManifold@Gu@1@AEAVContactBuffer@81@AEAVHeightFieldUtil@81@@Z 00000001801a4330 f i GuPCMContactSphereHeightField.obj
 0001:001a3410       ??0PCMSphereVsMeshContactGeneration@Gu@physx@@QEAA@AEBT__m128@@000AEBVPsTransformV@aos@shdfnd@2@1AEAVMultiplePersistentContactManifold@12@AEAVContactBuffer@12@@Z 00000001801a4410 f i GuPCMContactSphereHeightField.obj
 0001:001a35a0       ??1?$PCMHeightfieldContactGenerationCallback@UPCMSphereVsHeightfieldContactGenerationCallback@physx@@@Gu@physx@@UEAA@XZ 00000001801a45a0 f i GuPCMContactSphereHeightField.obj
 0001:001a35c0       ??1PCMSphereVsHeightfieldContactGenerationCallback@physx@@UEAA@XZ 00000001801a45c0 f i GuPCMContactSphereHeightField.obj
 0001:001a35e0       ??_E?$PCMHeightfieldContactGenerationCallback@UPCMSphereVsHeightfieldContactGenerationCallback@physx@@@Gu@physx@@UEAAPEAXI@Z 00000001801a45e0 f i GuPCMContactSphereHeightField.obj
 0001:001a35e0       ??_G?$PCMHeightfieldContactGenerationCallback@UPCMSphereVsHeightfieldContactGenerationCallback@physx@@@Gu@physx@@UEAAPEAXI@Z 00000001801a45e0 f i GuPCMContactSphereHeightField.obj
 0001:001a3630       ??_GPCMSphereVsHeightfieldContactGenerationCallback@physx@@UEAAPEAXI@Z 00000001801a4630 f i GuPCMContactSphereHeightField.obj
 0001:001a3630       ??_EPCMSphereVsHeightfieldContactGenerationCallback@physx@@UEAAPEAXI@Z 00000001801a4630 f i GuPCMContactSphereHeightField.obj
 0001:001a3680       ?onEvent@?$PCMHeightfieldContactGenerationCallback@UPCMSphereVsHeightfieldContactGenerationCallback@physx@@@Gu@physx@@UEAA_NIPEAI@Z 00000001801a4680 f i GuPCMContactSphereHeightField.obj
 0001:001a3d80       ?pcmContactSphereMesh@Gu@physx@@YA_NAEBVGeometryUnion@12@0AEBVPxTransform@2@1AEBMAEAUCache@12@AEAVContactBuffer@12@@Z 00000001801a4d80 f   GuPCMContactSphereMesh.obj
 0001:001a4530       ??$processTriangleCache@$0BA@@PCMSphereVsMeshContactGenerationCallback@physx@@QEAAXAEAU?$TriangleCache@$0BA@@Gu@1@@Z 00000001801a5530 f i GuPCMContactSphereMesh.obj
 0001:001a4570       ??0?$PCMMeshContactGenerationCallback@UPCMSphereVsMeshContactGenerationCallback@physx@@@Gu@physx@@QEAA@AEBVFastVertex2ShapeScaling@Cm@2@PEBE_N@Z 00000001801a5570 f i GuPCMContactSphereMesh.obj
 0001:001a4610       ??0PCMSphereVsMeshContactGenerationCallback@physx@@QEAA@AEBT__m128@@000AEBVPsTransformV@aos@shdfnd@1@1AEAVMultiplePersistentContactManifold@Gu@1@AEAVContactBuffer@71@PEBEAEBVFastVertex2ShapeScaling@Cm@1@_N@Z 00000001801a5610 f i GuPCMContactSphereMesh.obj
 0001:001a4700       ??1?$PCMMeshContactGenerationCallback@UPCMSphereVsMeshContactGenerationCallback@physx@@@Gu@physx@@UEAA@XZ 00000001801a5700 f i GuPCMContactSphereMesh.obj
 0001:001a4720       ??1PCMSphereVsMeshContactGenerationCallback@physx@@UEAA@XZ 00000001801a5720 f i GuPCMContactSphereMesh.obj
 0001:001a4740       ??_E?$PCMMeshContactGenerationCallback@UPCMSphereVsMeshContactGenerationCallback@physx@@@Gu@physx@@UEAAPEAXI@Z 00000001801a5740 f i GuPCMContactSphereMesh.obj
 0001:001a4740       ??_G?$PCMMeshContactGenerationCallback@UPCMSphereVsMeshContactGenerationCallback@physx@@@Gu@physx@@UEAAPEAXI@Z 00000001801a5740 f i GuPCMContactSphereMesh.obj
 0001:001a4790       ??_GPCMSphereVsMeshContactGenerationCallback@physx@@UEAAPEAXI@Z 00000001801a5790 f i GuPCMContactSphereMesh.obj
 0001:001a4790       ??_EPCMSphereVsMeshContactGenerationCallback@physx@@UEAAPEAXI@Z 00000001801a5790 f i GuPCMContactSphereMesh.obj
 0001:001a47e0       ?doTest@PCMSphereVsMeshContactGenerationCallback@physx@@QEAA_NAEBVPxVec3@2@00@Z 00000001801a57e0 f i GuPCMContactSphereMesh.obj
 0001:001a4800       ?flushCache@?$PCMMeshContactGenerationCallback@UPCMSphereVsMeshContactGenerationCallback@physx@@@Gu@physx@@QEAAXXZ 00000001801a5800 f i GuPCMContactSphereMesh.obj
 0001:001a4860       ?processHit@?$PCMMeshContactGenerationCallback@UPCMSphereVsMeshContactGenerationCallback@physx@@@Gu@physx@@UEAA_NAEBUPxRaycastHit@3@AEBVPxVec3@3@11AEAMPEBI@Z 00000001801a5860 f i GuPCMContactSphereMesh.obj
 0001:001a4b40       ??0PCMPolygonalBox@Gu@physx@@QEAA@AEBVPxVec3@2@@Z 00000001801a5b40 f   GuPCMShapeConvex.obj
 0001:001a5470       ?getPolygonalData@PCMPolygonalBox@Gu@physx@@QEBAXPEIAUPolygonalData@23@@Z 00000001801a6470 f   GuPCMShapeConvex.obj
 0001:001a5570       ?getPCMConvexData@Gu@physx@@YAXAEBVConvexHullV@12@_NAEAUPolygonalData@12@@Z 00000001801a6570 f   GuPCMShapeConvex.obj
 0001:001a5630       ?getPCMConvexData@Gu@physx@@YA_NAEBVGeometryUnion@12@AEAVFastVertex2ShapeScaling@Cm@2@AEAVPxBounds3@2@AEAUPolygonalData@12@@Z 00000001801a6630 f   GuPCMShapeConvex.obj
 0001:001a5de0       ?generateTriangleFullContactManifold@PCMConvexVsMeshContactGeneration@Gu@physx@@QEAA_NAEAVTriangleV@23@IPEBIEAEBUPolygonalData@23@PEAV?$SupportLocalImpl@VTriangleV@Gu@physx@@@23@PEAVSupportLocal@23@PEAVMeshPersistentContact@23@AEAIAEBT__m128@@AEAT9@@Z 00000001801a6de0 f   GuPCMTriangleContactGen.obj
 0001:001a65e0       ?generatePolyDataContactManifold@PCMConvexVsMeshContactGeneration@Gu@physx@@QEAA_NAEAVTriangleV@23@IIEPEAVMeshPersistentContact@23@AEAIAEBT__m128@@AEAT6@@Z 00000001801a75e0 f   GuPCMTriangleContactGen.obj
 0001:001a6770       ?generateTriangleFullContactManifold@PCMConvexVsMeshContactGeneration@Gu@physx@@SA_NAEAVTriangleV@23@IEAEBUPolygonalData@23@PEAV?$SupportLocalImpl@VTriangleV@Gu@physx@@@23@PEAVSupportLocal@23@PEAVMeshPersistentContact@23@AEAIAEBT__m128@@AEAT9@@Z 00000001801a7770 f   GuPCMTriangleContactGen.obj
 0001:001ad420       ??$PX_UNUSED@E@@YAXAEBE@Z  00000001801ae420 f i GuPCMTriangleContactGen.obj
 0001:001ad430       ??$PX_UNUSED@PEAV?$SupportLocalImpl@VTriangleV@Gu@physx@@@Gu@physx@@@@YAXAEBQEAV?$SupportLocalImpl@VTriangleV@Gu@physx@@@Gu@physx@@@Z 00000001801ae430 f i GuPCMTriangleContactGen.obj
 0001:001ad440       ??$PX_UNUSED@VTriangleV@Gu@physx@@@@YAXAEBVTriangleV@Gu@physx@@@Z 00000001801ae440 f i GuPCMTriangleContactGen.obj
 0001:001ad450       ?FRsqrtFast@aos@shdfnd@physx@@YA?AT__m128@@T4@@Z 00000001801ae450 f i GuPCMTriangleContactGen.obj
 0001:001ad480       ?V3AllGrtr@aos@shdfnd@physx@@YAIT__m128@@0@Z 00000001801ae480 f i GuPCMTriangleContactGen.obj
 0001:001ad4f0       ?V3LengthSq@aos@shdfnd@physx@@YA?AT__m128@@T4@@Z 00000001801ae4f0 f i GuPCMTriangleContactGen.obj
 0001:001ad550       ?doSupportFast@?$SupportLocalImpl@VTriangleV@Gu@physx@@@Gu@physx@@QEBAXAEBT__m128@@AEAT4@1@Z 00000001801ae550 f i GuPCMTriangleContactGen.obj
 0001:001ad5a0       ?findRotationMatrixFromZAxis@Gu@physx@@YA?AUMat33V@aos@shdfnd@2@AEBT__m128@@@Z 00000001801ae5a0 f   GuPersistentContactManifold.obj
 0001:001ae510       ?replaceManifoldPoint@PersistentContactManifold@Gu@physx@@QEAA_NAEBT__m128@@000@Z 00000001801af510 f   GuPersistentContactManifold.obj
 0001:001ae700       ?addManifoldPoint@PersistentContactManifold@Gu@physx@@QEAAIAEBT__m128@@000@Z 00000001801af700 f   GuPersistentContactManifold.obj
 0001:001ae820       ?addManifoldPoint2@PersistentContactManifold@Gu@physx@@QEAAIAEBT__m128@@000@Z 00000001801af820 f   GuPersistentContactManifold.obj
 0001:001ae990       ?addBatchManifoldContactsCluster@PersistentContactManifold@Gu@physx@@QEAAXPEBVPersistentContact@23@I@Z 00000001801af990 f   GuPersistentContactManifold.obj
 0001:001aea90       ?addBatchManifoldContacts2@PersistentContactManifold@Gu@physx@@QEAAXPEBVPersistentContact@23@I@Z 00000001801afa90 f   GuPersistentContactManifold.obj
 0001:001aeb90       ?addBatchManifoldContacts@PersistentContactManifold@Gu@physx@@QEAAXPEBVPersistentContact@23@I@Z 00000001801afb90 f   GuPersistentContactManifold.obj
 0001:001aec90       ?reduceBatchContactsCluster@PersistentContactManifold@Gu@physx@@QEAAXPEBVPersistentContact@23@I@Z 00000001801afc90 f   GuPersistentContactManifold.obj
 0001:001af980       ?reduceBatchContacts2@PersistentContactManifold@Gu@physx@@QEAAXPEBVPersistentContact@23@I@Z 00000001801b0980 f   GuPersistentContactManifold.obj
 0001:001b0070       ?reduceBatchContacts@PersistentContactManifold@Gu@physx@@QEAAXPEBVPersistentContact@23@I@Z 00000001801b1070 f   GuPersistentContactManifold.obj
 0001:001b09a0       ?reduceContactsForPCM@PersistentContactManifold@Gu@physx@@QEAAIAEBT__m128@@00@Z 00000001801b19a0 f   GuPersistentContactManifold.obj
 0001:001b1300       ?reduceContactSegment@PersistentContactManifold@Gu@physx@@QEAAIAEBT__m128@@00@Z 00000001801b2300 f   GuPersistentContactManifold.obj
 0001:001b15a0       ?addManifoldContactsToContactBuffer@PersistentContactManifold@Gu@physx@@QEAAXAEAVContactBuffer@23@AEBT__m128@@AEBVPsMatTransformV@aos@shdfnd@3@@Z 00000001801b25a0 f   GuPersistentContactManifold.obj
 0001:001b17b0       ?addManifoldContactsToContactBuffer@PersistentContactManifold@Gu@physx@@QEAAXAEAVContactBuffer@23@AEBT__m128@@AEBVPsTransformV@aos@shdfnd@3@@Z 00000001801b27b0 f   GuPersistentContactManifold.obj
 0001:001b19c0       ?addManifoldContactsToContactBuffer@PersistentContactManifold@Gu@physx@@QEAAXAEAVContactBuffer@23@AEBT__m128@@AEBVPsTransformV@aos@shdfnd@3@1@Z 00000001801b29c0 f   GuPersistentContactManifold.obj
 0001:001b1d90       ?drawManifold@PersistentContactManifold@Gu@physx@@QEAAXAEAVRenderOutput@Cm@3@AEBVPsTransformV@aos@shdfnd@3@1@Z 00000001801b2d90 f   GuPersistentContactManifold.obj
 0001:001b1e90       ?drawManifold@PersistentContactManifold@Gu@physx@@QEAAXAEAVRenderOutput@Cm@3@AEBVPsTransformV@aos@shdfnd@3@1AEBT__m128@@@Z 00000001801b2e90 f   GuPersistentContactManifold.obj
 0001:001b1f90       ?drawManifold@PersistentContactManifold@Gu@physx@@QEAAXAEBVPersistentContact@23@AEAVRenderOutput@Cm@3@AEBVPsTransformV@aos@shdfnd@3@2@Z 00000001801b2f90 f   GuPersistentContactManifold.obj
 0001:001b1ff0       ?drawPoint@PersistentContactManifold@Gu@physx@@SAXAEAVRenderOutput@Cm@3@AEBT__m128@@MI@Z 00000001801b2ff0 f   GuPersistentContactManifold.obj
 0001:001b22a0       ?drawLine@PersistentContactManifold@Gu@physx@@SAXAEAVRenderOutput@Cm@3@AEBT__m128@@1I@Z 00000001801b32a0 f   GuPersistentContactManifold.obj
 0001:001b2420       ?drawTriangle@PersistentContactManifold@Gu@physx@@SAXAEAVRenderOutput@Cm@3@AEBT__m128@@11I@Z 00000001801b3420 f   GuPersistentContactManifold.obj
 0001:001b25b0       ?drawPolygon@PersistentContactManifold@Gu@physx@@SAXAEAVRenderOutput@Cm@3@AEBVPsTransformV@aos@shdfnd@3@PEAT__m128@@II@Z 00000001801b35b0 f   GuPersistentContactManifold.obj
 0001:001b26b0       ?drawPolygon@PersistentContactManifold@Gu@physx@@SAXAEAVRenderOutput@Cm@3@AEBVPsMatTransformV@aos@shdfnd@3@PEAT__m128@@II@Z 00000001801b36b0 f   GuPersistentContactManifold.obj
 0001:001b27b0       ?reduceBatchContactsConvex@SinglePersistentContactManifold@Gu@physx@@QEAA?AT__m128@@PEBVMeshPersistentContact@23@IAEAUPCMContactPatch@23@@Z 00000001801b37b0 f   GuPersistentContactManifold.obj
 0001:001b3690       ?reduceBatchContactsSphere@SinglePersistentContactManifold@Gu@physx@@QEAA?AT__m128@@PEBVMeshPersistentContact@23@IAEAUPCMContactPatch@23@@Z 00000001801b4690 f   GuPersistentContactManifold.obj
 0001:001b3870       ?reduceBatchContactsCapsule@SinglePersistentContactManifold@Gu@physx@@QEAA?AT__m128@@PEBVMeshPersistentContact@23@IAEAUPCMContactPatch@23@@Z 00000001801b4870 f   GuPersistentContactManifold.obj
 0001:001b3eb0       ?addBatchManifoldContactsConvex@SinglePersistentContactManifold@Gu@physx@@QEAA?AT__m128@@PEBVMeshPersistentContact@23@IAEAUPCMContactPatch@23@AEBT4@@Z 00000001801b4eb0 f   GuPersistentContactManifold.obj
 0001:001b4000       ?addBatchManifoldContactsSphere@SinglePersistentContactManifold@Gu@physx@@QEAA?AT__m128@@PEBVMeshPersistentContact@23@IAEAUPCMContactPatch@23@AEBT4@@Z 00000001801b5000 f   GuPersistentContactManifold.obj
 0001:001b4080       ?addBatchManifoldContactsCapsule@SinglePersistentContactManifold@Gu@physx@@QEAA?AT__m128@@PEBVMeshPersistentContact@23@IAEAUPCMContactPatch@23@AEBT4@@Z 00000001801b5080 f   GuPersistentContactManifold.obj
 0001:001b41d0       ?reduceContacts@SinglePersistentContactManifold@Gu@physx@@SAIPEAVMeshPersistentContact@23@I@Z 00000001801b51d0 f   GuPersistentContactManifold.obj
 0001:001b4a00       ?refreshContactPoints@SinglePersistentContactManifold@Gu@physx@@QEAA?AT__m128@@AEBVPsMatTransformV@aos@shdfnd@3@AEBT4@1@Z 00000001801b5a00 f   GuPersistentContactManifold.obj
 0001:001b4e50       ?drawManifold@SinglePersistentContactManifold@Gu@physx@@QEAAXAEAVRenderOutput@Cm@3@AEBVPsTransformV@aos@shdfnd@3@1@Z 00000001801b5e50 f   GuPersistentContactManifold.obj
 0001:001b4f50       ?addManifoldContactPoints@MultiplePersistentContactManifold@Gu@physx@@QEAAXPEAVMeshPersistentContact@23@IPEAPEAUPCMContactPatch@23@IAEBT__m128@@2E@Z 00000001801b5f50 f   GuPersistentContactManifold.obj
 0001:001b5820       ?addManifoldContactsToContactBuffer@MultiplePersistentContactManifold@Gu@physx@@QEAA_NAEAVContactBuffer@23@AEBVPsTransformV@aos@shdfnd@3@@Z 00000001801b6820 f   GuPersistentContactManifold.obj
 0001:001b5ba0       ?addManifoldContactsToContactBuffer@MultiplePersistentContactManifold@Gu@physx@@QEAA_NAEAVContactBuffer@23@AEBVPsTransformV@aos@shdfnd@3@1AEBT__m128@@@Z 00000001801b6ba0 f   GuPersistentContactManifold.obj
 0001:001b5fc0       ?drawManifold@MultiplePersistentContactManifold@Gu@physx@@QEAAXAEAVRenderOutput@Cm@3@AEBVPsTransformV@aos@shdfnd@3@1@Z 00000001801b6fc0 f   GuPersistentContactManifold.obj
 0001:001b6040       ?drawLine@MultiplePersistentContactManifold@Gu@physx@@SAXAEAVRenderOutput@Cm@3@AEBT__m128@@1I@Z 00000001801b7040 f   GuPersistentContactManifold.obj
 0001:001b6160       ?drawLine@MultiplePersistentContactManifold@Gu@physx@@SAXAEAVRenderOutput@Cm@3@VPxVec3@3@1I@Z 00000001801b7160 f   GuPersistentContactManifold.obj
 0001:001b6230       ?drawPoint@MultiplePersistentContactManifold@Gu@physx@@SAXAEAVRenderOutput@Cm@3@AEBT__m128@@MI@Z 00000001801b7230 f   GuPersistentContactManifold.obj
 0001:001b64e0       ?drawPolygon@MultiplePersistentContactManifold@Gu@physx@@SAXAEAVRenderOutput@Cm@3@AEBVPsTransformV@aos@shdfnd@3@PEAT__m128@@II@Z 00000001801b74e0 f   GuPersistentContactManifold.obj
 0001:001bc340       ??0MeshPersistentContact@Gu@physx@@QEAA@XZ 00000001801bd340 f i GuPersistentContactManifold.obj
 0001:001bc370       ??0PersistentContact@Gu@physx@@QEAA@XZ 00000001801bd370 f i GuPersistentContactManifold.obj
 0001:001bc380       ?createIdentity@PxMat44@physx@@SA?AV12@XZ 00000001801bd380 f i GuPersistentContactManifold.obj
 0001:001bc3b0       ?getContactPoint@SinglePersistentContactManifold@Gu@physx@@QEAAAEAVMeshPersistentContact@23@I@Z 00000001801bd3b0 f i GuPersistentContactManifold.obj
 0001:001bc440       ?getEmptyManifold@MultiplePersistentContactManifold@Gu@physx@@QEAAPEAVSinglePersistentContactManifold@23@XZ 00000001801bd440 f i GuPersistentContactManifold.obj
 0001:001bc490       ?getLocalNormal@SinglePersistentContactManifold@Gu@physx@@QEAA?AT__m128@@XZ 00000001801bd490 f i GuPersistentContactManifold.obj
 0001:001bc5d0       ?getManifold@MultiplePersistentContactManifold@Gu@physx@@QEAAPEAVSinglePersistentContactManifold@23@I@Z 00000001801bd5d0 f i GuPersistentContactManifold.obj
 0001:001bc670       ?getNumContacts@SinglePersistentContactManifold@Gu@physx@@QEBAIXZ 00000001801bd670 f i GuPersistentContactManifold.obj
 0001:001bc690       ?getWorldNormal@SinglePersistentContactManifold@Gu@physx@@QEAA?AT__m128@@AEBVPsTransformV@aos@shdfnd@3@@Z 00000001801bd690 f i GuPersistentContactManifold.obj
 0001:001bc810       ?removeContactPoint@SinglePersistentContactManifold@Gu@physx@@QEAAXI@Z 00000001801bd810 f i GuPersistentContactManifold.obj
 0001:001bc880       ?computeOBBPoints@Gu@physx@@YAXPEIAVPxVec3@2@AEBV32@1111@Z 00000001801bd880 f   GuBox.obj
 0001:001bcbe0       ?create@Box@Gu@physx@@QEAAXAEBVCapsule@23@@Z 00000001801bdbe0 f   GuBox.obj
 0001:001bccf0       ?getBoxEdges@Gu@physx@@YAPEBEXZ 00000001801bdcf0 f   GuBox.obj
 0001:001bd140       ?closestAxis@shdfnd@physx@@YAIAEBVPxVec3@2@@Z 00000001801be140 f i GuBox.obj
 0001:001bd210       ?CompleteBoxPruning@Gu@physx@@YA_NPEBVPxBounds3@2@IAEAV?$Array@IVNamedAllocator@shdfnd@physx@@@shdfnd@2@AEBVAxes@12@@Z 00000001801be210 f   GuBoxPruning.obj
 0001:001bd580       ?BipartiteBoxPruning@Gu@physx@@YA_NPEBVPxBounds3@2@I0IAEAV?$Array@IVNamedAllocator@shdfnd@physx@@@shdfnd@2@AEBVAxes@12@@Z 00000001801be580 f   GuBoxPruning.obj
 0001:001bde00       ?GetNbHits@RadixSort@Gu@physx@@QEBAIXZ 00000001801bee00 f i GuBoxPruning.obj
 0001:001bde20       ?GetNbTotalCalls@RadixSort@Gu@physx@@QEBAIXZ 00000001801bee20 f i GuBoxPruning.obj
 0001:001bde40       ?GetRanks@RadixSort@Gu@physx@@QEBAPEBIXZ 00000001801bee40 f i GuBoxPruning.obj
 0001:001bde60       ?GetRecyclable@RadixSort@Gu@physx@@QEBAPEAIXZ 00000001801bee60 f i GuBoxPruning.obj
 0001:001bde80       ?allocate@?$Array@IVNamedAllocator@shdfnd@physx@@@shdfnd@physx@@IEAAPEAII@Z 00000001801bee80 f i GuBoxPruning.obj
 0001:001bdf30       ?capacity@?$Array@IVNamedAllocator@shdfnd@physx@@@shdfnd@physx@@QEBAIXZ 00000001801bef30 f i GuBoxPruning.obj
 0001:001bdf50       ?capacityIncrement@?$Array@IVNamedAllocator@shdfnd@physx@@@shdfnd@physx@@IEBAIXZ 00000001801bef50 f i GuBoxPruning.obj
 0001:001bdfa0       ?clear@?$Array@IVNamedAllocator@shdfnd@physx@@@shdfnd@physx@@QEAAXXZ 00000001801befa0 f i GuBoxPruning.obj
 0001:001bdff0       ?copy@?$Array@IVNamedAllocator@shdfnd@physx@@@shdfnd@physx@@KAXPEAI0PEBI@Z 00000001801beff0 f i GuBoxPruning.obj
 0001:001be0a0       ?deallocate@?$Array@IVNamedAllocator@shdfnd@physx@@@shdfnd@physx@@IEAAXPEAX@Z 00000001801bf0a0 f i GuBoxPruning.obj
 0001:001be0d0       ?destroy@?$Array@IVNamedAllocator@shdfnd@physx@@@shdfnd@physx@@KAXPEAI0@Z 00000001801bf0d0 f i GuBoxPruning.obj
 0001:001be110       ?growAndPushBack@?$Array@IVNamedAllocator@shdfnd@physx@@@shdfnd@physx@@IEAAAEAIAEBI@Z 00000001801bf110 f i GuBoxPruning.obj
 0001:001be310       ?intersects@PxBounds3@physx@@QEBA_NAEBV12@@Z 00000001801bf310 f i GuBoxPruning.obj
 0001:001be470       ?isInUserMemory@?$Array@IVNamedAllocator@shdfnd@physx@@@shdfnd@physx@@QEBAIXZ 00000001801bf470 f i GuBoxPruning.obj
 0001:001be490       ?pushBack@?$Array@IVNamedAllocator@shdfnd@physx@@@shdfnd@physx@@QEAAAEAIAEBI@Z 00000001801bf490 f i GuBoxPruning.obj
 0001:001be580       ?computeBoxAroundCapsule@Gu@physx@@YAXAEBVCapsule@12@AEAVBox@12@@Z 00000001801bf580 f   GuCapsule.obj
 0001:001be750       ?computeBasis@shdfnd@physx@@YAXAEBVPxVec3@2@0AEAV32@11@Z 00000001801bf750 f i GuCapsule.obj
 0001:001be7d0       ?computeBasis@shdfnd@physx@@YAXAEBVPxVec3@2@AEAV32@1@Z 00000001801bf7d0 f i GuCapsule.obj
 0001:001be940       ?sweepCCTBoxTriangles@Gu@physx@@YA_NIPEBVPxTriangle@2@_NAEBVPxBoxGeometry@2@AEBVPxTransform@2@AEBVPxVec3@2@MAEAV62@5AEAMAEAIPEBIMV?$PxFlags@W4Enum@PxHitFlag@physx@@G@2@@Z 00000001801bf940 f   GuCCTSweepTests.obj
 0001:001beab0       ?sweepCCTCapsule_BoxGeom@@YA_NAEBVPxGeometry@physx@@AEBVPxTransform@2@AEBVCapsule@Gu@2@AEBVPxVec3@2@MAEAUPxSweepHit@2@V?$PxFlags@W4Enum@PxHitFlag@physx@@G@2@M@Z 00000001801bfab0 f   GuCCTSweepTests.obj
 0001:001bf090       ?sweepCCTBox_SphereGeom@@YA_NAEBVPxGeometry@physx@@AEBVPxTransform@2@AEBVBox@Gu@2@AEBVPxVec3@2@MAEAUPxSweepHit@2@V?$PxFlags@W4Enum@PxHitFlag@physx@@G@2@M@Z 00000001801c0090 f   GuCCTSweepTests.obj
 0001:001bf420       ?sweepCCTBox_CapsuleGeom@@YA_NAEBVPxGeometry@physx@@AEBVPxTransform@2@AEBVBox@Gu@2@AEBVPxVec3@2@MAEAUPxSweepHit@2@V?$PxFlags@W4Enum@PxHitFlag@physx@@G@2@M@Z 00000001801c0420 f   GuCCTSweepTests.obj
 0001:001bf830       ?sweepCCTBox_BoxGeom@@YA_NAEBVPxGeometry@physx@@AEBVPxTransform@2@AEBVBox@Gu@2@AEBVPxVec3@2@MAEAUPxSweepHit@2@V?$PxFlags@W4Enum@PxHitFlag@physx@@G@2@M@Z 00000001801c0830 f   GuCCTSweepTests.obj
 0001:001c0530       ?sweepCCTBox_HeightFieldGeom@@YA_NAEBVPxGeometry@physx@@AEBVPxTransform@2@AEBVBox@Gu@2@AEBVPxVec3@2@MAEAUPxSweepHit@2@V?$PxFlags@W4Enum@PxHitFlag@physx@@G@2@M@Z 00000001801c1530 f   GuCCTSweepTests.obj
 0001:001c0f90       ??0Capsule@Gu@physx@@QEAA@AEBV012@@Z 00000001801c1f90 f i GuCCTSweepTests.obj
 0001:001c10a0       ??4?$PxFlags@W4Enum@PxHitFlag@physx@@G@physx@@QEAAAEAV01@W4Enum@PxHitFlag@1@@Z 00000001801c20a0 f i GuCCTSweepTests.obj
 0001:001c10d0       ??I?$PxFlags@W4Enum@PxHitFlag@physx@@G@physx@@QEBA?AV01@AEBV01@@Z 00000001801c20d0 f i GuCCTSweepTests.obj
 0001:001c1140       ??_ELocalReport@?1??sweepCCTBox_HeightFieldGeom@@YA_NAEBVPxGeometry@physx@@AEBVPxTransform@3@AEBVBox@Gu@3@AEBVPxVec3@3@MAEAUPxSweepHit@3@V?$PxFlags@W4Enum@PxHitFlag@physx@@G@3@M@Z@UEAAPEAXI@Z 00000001801c2140 f i GuCCTSweepTests.obj
 0001:001c1140       ??_GLocalReport@?1??sweepCCTBox_HeightFieldGeom@@YA_NAEBVPxGeometry@physx@@AEBVPxTransform@3@AEBVBox@Gu@3@AEBVPxVec3@3@MAEAUPxSweepHit@3@V?$PxFlags@W4Enum@PxHitFlag@physx@@G@3@M@Z@UEAAPEAXI@Z 00000001801c2140 f i GuCCTSweepTests.obj
 0001:001c1190       ?distanceSegmentBoxSquared@Gu@physx@@YAMAEBVSegment@12@AEBVBox@12@PEAMPEAVPxVec3@2@@Z 00000001801c2190 f i GuCCTSweepTests.obj
 0001:001c1450       ??0Container@Gu@physx@@QEAA@XZ 00000001801c2450 f   GuContainer.obj
 0001:001c14a0       ??0Container@Gu@physx@@QEAA@AEBV012@@Z 00000001801c24a0 f   GuContainer.obj
 0001:001c1510       ??0Container@Gu@physx@@QEAA@IM@Z 00000001801c2510 f   GuContainer.obj
 0001:001c1580       ??1Container@Gu@physx@@QEAA@XZ 00000001801c2580 f   GuContainer.obj
 0001:001c15a0       ?Contains@Container@Gu@physx@@QEBA_NIPEAI@Z 00000001801c25a0 f   GuContainer.obj
 0001:001c1610       ?Delete@Container@Gu@physx@@QEAA_NI@Z 00000001801c2610 f   GuContainer.obj
 0001:001c1680       ?DeleteKeepingOrder@Container@Gu@physx@@QEAA_NI@Z 00000001801c2680 f   GuContainer.obj
 0001:001c1730       ??4Container@Gu@physx@@QEAAXAEBV012@@Z 00000001801c2730 f   GuContainer.obj
 0001:001c1870       ?InitSharedBuffers@Container@Gu@physx@@QEAAXIPEAI_N@Z 00000001801c2870 f   GuContainerMemoryMgmt.obj
 0001:001c1940       ?Empty@Container@Gu@physx@@QEAAAEAV123@XZ 00000001801c2940 f   GuContainerMemoryMgmt.obj
 0001:001c19c0       ?SetSize@Container@Gu@physx@@QEAA_NI@Z 00000001801c29c0 f   GuContainerMemoryMgmt.obj
 0001:001c1a60       ?Refit@Container@Gu@physx@@QEAA_NXZ 00000001801c2a60 f   GuContainerMemoryMgmt.obj
 0001:001c1bc0       ?Resize@Container@Gu@physx@@AEAA_NI@Z 00000001801c2bc0 f   GuContainerMemoryMgmt.obj
 0001:001c1f40       ?convertToPxMat44@Debug@Gu@physx@@SA?AVPxMat44@3@AEBVMatrix34@Cm@3@@Z 00000001801c2f40 f   GuDebug.obj
 0001:001c20b0       ?convertToPxMat44@Debug@Gu@physx@@SA?AVPxMat44@3@AEBVPxTransform@3@@Z 00000001801c30b0 f   GuDebug.obj
 0001:001c20f0       ?visualize@Debug@Gu@physx@@SAXAEBVPxBoxGeometry@3@AEAVRenderOutput@Cm@3@AEBVMatrix34@63@AEBVPxBounds3@3@_KMI@Z 00000001801c30f0 f   GuDebug.obj
 0001:001c21f0       ?visualize@Debug@Gu@physx@@SAXAEBVPxSphereGeometry@3@AEAVRenderOutput@Cm@3@AEBVMatrix34@63@AEBVPxBounds3@3@_KMI@Z 00000001801c31f0 f   GuDebug.obj
 0001:001c2480       ?visualize@Debug@Gu@physx@@SAXAEBVPxPlaneGeometry@3@AEAVRenderOutput@Cm@3@AEBVMatrix34@63@AEBVPxBounds3@3@_KMI@Z 00000001801c3480 f   GuDebug.obj
 0001:001c25d0       ?visualize@Debug@Gu@physx@@SAXAEBVPxCapsuleGeometry@3@AEAVRenderOutput@Cm@3@AEBVMatrix34@63@AEBVPxBounds3@3@_KMI@Z 00000001801c35d0 f   GuDebug.obj
 0001:001c2750       ?visualize@Debug@Gu@physx@@SAXAEBVPxConvexMeshGeometry@3@AEAVRenderOutput@Cm@3@AEBVMatrix34@63@AEBVPxBounds3@3@_KMI@Z 00000001801c3750 f   GuDebug.obj
 0001:001c27c0       ?visualize@Debug@Gu@physx@@SAXAEBVPxTriangleMeshGeometry@3@AEAVRenderOutput@Cm@3@AEBVMatrix34@63@AEBVPxBounds3@3@_KMI@Z 00000001801c37c0 f   GuDebug.obj
 0001:001c2840       ?visualize@Debug@Gu@physx@@SAXAEBVPxHeightFieldGeometry@3@AEAVRenderOutput@Cm@3@AEBVMatrix34@63@AEBVPxBounds3@3@_KMI@Z 00000001801c3840 f   GuDebug.obj
 0001:001c3520       ??0DebugBox@Cm@physx@@QEAA@AEBVPxVec3@2@_N@Z 00000001801c4520 f i GuDebug.obj
 0001:001c3590       ??0PxBoxGeometry@physx@@QEAA@VPxVec3@1@@Z 00000001801c4590 f i GuDebug.obj
 0001:001c35e0       ??0PxTransform@physx@@QEAA@AEBVPxVec3@1@@Z 00000001801c45e0 f i GuDebug.obj
 0001:001c3630       ?sweep@PxGeometryQuery@physx@@SA_NAEBVPxVec3@2@MAEBVPxGeometry@2@AEBVPxTransform@2@12AEAUPxSweepHit@2@V?$PxFlags@W4Enum@PxHitFlag@physx@@G@2@M@Z 00000001801c4630 f   GuGeometryQuery.obj
 0001:001c3f90       ?overlap@PxGeometryQuery@physx@@SA_NAEBVPxGeometry@2@AEBVPxTransform@2@01@Z 00000001801c4f90 f   GuGeometryQuery.obj
 0001:001c4280       ?raycast@PxGeometryQuery@physx@@SAIAEBVPxVec3@2@0AEBVPxGeometry@2@AEBVPxTransform@2@MV?$PxFlags@W4Enum@PxHitFlag@physx@@G@2@IPEIAUPxRaycastHit@2@_N@Z 00000001801c5280 f   GuGeometryQuery.obj
 0001:001c4650       ?computePenetration@PxGeometryQuery@physx@@SA_NAEAVPxVec3@2@AEAMAEBVPxGeometry@2@AEBVPxTransform@2@23@Z 00000001801c5650 f   GuGeometryQuery.obj
 0001:001c49b0       ?pointDistance@PxGeometryQuery@physx@@SAMAEBVPxVec3@2@AEBVPxGeometry@2@AEBVPxTransform@2@PEAV32@@Z 00000001801c59b0 f   GuGeometryQuery.obj
 0001:001c4f80       ?getWorldBounds@PxGeometryQuery@physx@@SA?AVPxBounds3@2@AEBVPxGeometry@2@AEBVPxTransform@2@M@Z 00000001801c5f80 f   GuGeometryQuery.obj
 0001:001c57f0       ?distancePointBoxSquared@Gu@physx@@YAMAEBVPxVec3@2@AEBVBox@12@PEAV32@@Z 00000001801c67f0 f i GuGeometryQuery.obj
 0001:001c5850       ?set@GeometryUnion@Gu@physx@@QEAAXAEBVPxGeometry@3@@Z 00000001801c6850 f   GuGeometryUnion.obj
 0001:001c5b70       ??$checkType@UPxConvexMeshGeometryLL@physx@@@physx@@YAXAEBVGeometryUnion@Gu@0@@Z 00000001801c6b70 f i GuGeometryUnion.obj
 0001:001c5c00       ??$checkType@UPxHeightFieldGeometryLL@physx@@@physx@@YAXAEBVGeometryUnion@Gu@0@@Z 00000001801c6c00 f i GuGeometryUnion.obj
 0001:001c5c90       ??$checkType@UPxTriangleMeshGeometryLL@physx@@@physx@@YAXAEBVGeometryUnion@Gu@0@@Z 00000001801c6c90 f i GuGeometryUnion.obj
 0001:001c5d20       ??$get@UPxConvexMeshGeometryLL@physx@@@GeometryUnion@Gu@physx@@QEAAAEAUPxConvexMeshGeometryLL@2@XZ 00000001801c6d20 f i GuGeometryUnion.obj
 0001:001c5d50       ??$get@UPxHeightFieldGeometryLL@physx@@@GeometryUnion@Gu@physx@@QEAAAEAUPxHeightFieldGeometryLL@2@XZ 00000001801c6d50 f i GuGeometryUnion.obj
 0001:001c5d80       ??$get@UPxTriangleMeshGeometryLL@physx@@@GeometryUnion@Gu@physx@@QEAAAEAUPxTriangleMeshGeometryLL@2@XZ 00000001801c6d80 f i GuGeometryUnion.obj
 0001:001c5db0       ??4?$PxFlags@W4Enum@PxMeshGeometryFlag@physx@@E@physx@@QEAAAEAV01@AEBV01@@Z 00000001801c6db0 f i GuGeometryUnion.obj
 0001:001c5de0       ??4PxConvexMeshGeometry@physx@@QEAAAEAV01@AEBV01@@Z 00000001801c6de0 f i GuGeometryUnion.obj
 0001:001c5e50       ??4PxHeightFieldGeometry@physx@@QEAAAEAV01@AEBV01@@Z 00000001801c6e50 f i GuGeometryUnion.obj
 0001:001c5f30       ??4PxMeshScale@physx@@QEAAAEAV01@AEBV01@@Z 00000001801c6f30 f i GuGeometryUnion.obj
 0001:001c5f90       ??4PxTriangleMeshGeometry@physx@@QEAAAEAV01@AEBV01@@Z 00000001801c6f90 f i GuGeometryUnion.obj
 0001:001c6040       ?getConvexMesh@Gu@physx@@YAAEAVConvexMesh@12@PEAVPxConvexMesh@2@@Z 00000001801c7040 f i GuGeometryUnion.obj
 0001:001c6070       ?getHeightField@Gu@physx@@YAAEAVHeightField@12@PEAVPxHeightField@2@@Z 00000001801c7070 f i GuGeometryUnion.obj
 0001:001c60a0       ?getTriangleMesh@Gu@physx@@YAAEAVTriangleMesh@12@PEAVPxTriangleMesh@2@@Z 00000001801c70a0 f i GuGeometryUnion.obj
 0001:001c6150       ?computeBoxPoints@Gu@physx@@YAXAEBVPxBounds3@2@PEIAVPxVec3@2@@Z 00000001801c7150 f   GuGeomUtilsInternal.obj
 0001:001c6420       ?computeBoundsAroundVertices@Gu@physx@@YAXAEAVPxBounds3@2@IPEIBVPxVec3@2@@Z 00000001801c7420 f   GuGeomUtilsInternal.obj
 0001:001c6490       ?getPlane@Gu@physx@@YA?AVPxPlane@2@AEBVPxTransform@2@@Z 00000001801c7490 f   GuGeomUtilsInternal.obj
 0001:001c64f0       ?getCapsuleTransform@Gu@physx@@YA?AVPxTransform@2@AEBVCapsule@12@AEAM@Z 00000001801c74f0 f   GuGeomUtilsInternal.obj
 0001:001c6660       ?computeSweptBox@Gu@physx@@YAXAEAVBox@12@AEBVPxVec3@2@1AEBVPxMat33@2@1M@Z 00000001801c7660 f   GuGeomUtilsInternal.obj
 0001:001c6d20       ??0PxTransform@physx@@QEAA@$$QEAV01@@Z 00000001801c7d20 f i GuGeomUtilsInternal.obj
 0001:001c6d80       ?getOrigin@Segment@Gu@physx@@QEBAAEBVPxVec3@3@XZ 00000001801c7d80 f i GuGeomUtilsInternal.obj
 0001:001c6d90       ?include@PxBounds3@physx@@QEAAXAEBVPxVec3@2@@Z 00000001801c7d90 f i GuGeomUtilsInternal.obj
 0001:001c6e80       ?maximum@PxVec3@physx@@QEBA?AV12@AEBV12@@Z 00000001801c7e80 f i GuGeomUtilsInternal.obj
 0001:001c6f40       ?minimum@PxVec3@physx@@QEBA?AV12@AEBV12@@Z 00000001801c7f40 f i GuGeomUtilsInternal.obj
 0001:001c7000       ??1GuMeshFactory@physx@@MEAA@XZ 00000001801c8000 f   GuMeshFactory.obj
 0001:001c7080       ?release@GuMeshFactory@physx@@QEAAXXZ 00000001801c8080 f   GuMeshFactory.obj
 0001:001c7300       ?addTriangleMesh@GuMeshFactory@physx@@QEAAXPEAVTriangleMesh@Gu@2@_N@Z 00000001801c8300 f   GuMeshFactory.obj
 0001:001c7360       ?createTriangleMesh@GuMeshFactory@physx@@QEAAPEAVPxTriangleMesh@2@AEAVPxInputStream@2@@Z 00000001801c8360 f   GuMeshFactory.obj
 0001:001c7450       ?removeTriangleMesh@GuMeshFactory@physx@@QEAA_NAEAVPxTriangleMesh@2@@Z 00000001801c8450 f   GuMeshFactory.obj
 0001:001c74c0       ?getNbTriangleMeshes@GuMeshFactory@physx@@QEBAIXZ 00000001801c84c0 f   GuMeshFactory.obj
 0001:001c7510       ?getTriangleMeshes@GuMeshFactory@physx@@QEBAIPEAPEAVPxTriangleMesh@2@II@Z 00000001801c8510 f   GuMeshFactory.obj
 0001:001c7600       ?addConvexMesh@GuMeshFactory@physx@@QEAAXPEAVConvexMesh@Gu@2@_N@Z 00000001801c8600 f   GuMeshFactory.obj
 0001:001c7660       ?createConvexMesh@GuMeshFactory@physx@@QEAAPEAVPxConvexMesh@2@AEAVPxInputStream@2@@Z 00000001801c8660 f   GuMeshFactory.obj
 0001:001c7750       ?removeConvexMesh@GuMeshFactory@physx@@QEAA_NAEAVPxConvexMesh@2@@Z 00000001801c8750 f   GuMeshFactory.obj
 0001:001c77c0       ?getNbConvexMeshes@GuMeshFactory@physx@@QEBAIXZ 00000001801c87c0 f   GuMeshFactory.obj
 0001:001c7810       ?getConvexMeshes@GuMeshFactory@physx@@QEBAIPEAPEAVPxConvexMesh@2@II@Z 00000001801c8810 f   GuMeshFactory.obj
 0001:001c7900       ?addHeightField@GuMeshFactory@physx@@QEAAXPEAVHeightField@Gu@2@_N@Z 00000001801c8900 f   GuMeshFactory.obj
 0001:001c7960       ?createHeightField@GuMeshFactory@physx@@QEAAPEAVPxHeightField@2@AEBVPxHeightFieldDesc@2@@Z 00000001801c8960 f   GuMeshFactory.obj
 0001:001c7a50       ?createHeightField@GuMeshFactory@physx@@QEAAPEAVPxHeightField@2@AEAVPxInputStream@2@@Z 00000001801c8a50 f   GuMeshFactory.obj
 0001:001c7b40       ?removeHeightField@GuMeshFactory@physx@@QEAA_NAEAVPxHeightField@2@@Z 00000001801c8b40 f   GuMeshFactory.obj
 0001:001c7bc0       ?getNbHeightFields@GuMeshFactory@physx@@QEBAIXZ 00000001801c8bc0 f   GuMeshFactory.obj
 0001:001c7c10       ?getHeightFields@GuMeshFactory@physx@@QEBAIPEAPEAVPxHeightField@2@II@Z 00000001801c8c10 f   GuMeshFactory.obj
 0001:001c7d00       ?addFactoryListener@GuMeshFactory@physx@@QEAAXAEAVGuMeshFactoryListener@2@@Z 00000001801c8d00 f   GuMeshFactory.obj
 0001:001c7d60       ?removeFactoryListener@GuMeshFactory@physx@@QEAAXAEAVGuMeshFactoryListener@2@@Z 00000001801c8d60 f   GuMeshFactory.obj
 0001:001c7e10       ?notifyFactoryListener@GuMeshFactory@physx@@QEAAXPEBVPxBase@2@G_N@Z 00000001801c8e10 f   GuMeshFactory.obj
 0001:001c83f0       ??0?$ReflectionAllocator@VConvexMesh@Gu@physx@@@shdfnd@physx@@QEAA@PEBD@Z 00000001801c93f0 f i GuMeshFactory.obj
 0001:001c8410       ??0?$ReflectionAllocator@VHeightField@Gu@physx@@@shdfnd@physx@@QEAA@PEBD@Z 00000001801c9410 f i GuMeshFactory.obj
 0001:001c8430       ??0?$ReflectionAllocator@VTriangleMesh@Gu@physx@@@shdfnd@physx@@QEAA@PEBD@Z 00000001801c9430 f i GuMeshFactory.obj
 0001:001c8450       ??1?$Array@PEAVGuMeshFactoryListener@physx@@VNamedAllocator@shdfnd@2@@shdfnd@physx@@QEAA@XZ 00000001801c9450 f i GuMeshFactory.obj
 0001:001c84e0       ??1?$CoalescedHashSet@PEAVConvexMesh@Gu@physx@@U?$Hash@PEAVConvexMesh@Gu@physx@@@shdfnd@3@VAllocator@53@@shdfnd@physx@@QEAA@XZ 00000001801c94e0 f i GuMeshFactory.obj
 0001:001c8500       ??1?$CoalescedHashSet@PEAVHeightField@Gu@physx@@U?$Hash@PEAVHeightField@Gu@physx@@@shdfnd@3@VAllocator@53@@shdfnd@physx@@QEAA@XZ 00000001801c9500 f i GuMeshFactory.obj
 0001:001c8520       ??1?$CoalescedHashSet@PEAVTriangleMesh@Gu@physx@@U?$Hash@PEAVTriangleMesh@Gu@physx@@@shdfnd@3@VAllocator@53@@shdfnd@physx@@QEAA@XZ 00000001801c9520 f i GuMeshFactory.obj
 0001:001c8540       ??1?$HashBase@PEAVConvexMesh@Gu@physx@@PEAV123@U?$Hash@PEAVConvexMesh@Gu@physx@@@shdfnd@3@UGetKey@?$HashSetBase@PEAVConvexMesh@Gu@physx@@U?$Hash@PEAVConvexMesh@Gu@physx@@@shdfnd@3@VAllocator@53@$00@internal@53@VAllocator@53@$00@internal@shdfnd@physx@@QEAA@XZ 00000001801c9540 f i GuMeshFactory.obj
 0001:001c8590       ??1?$HashBase@PEAVHeightField@Gu@physx@@PEAV123@U?$Hash@PEAVHeightField@Gu@physx@@@shdfnd@3@UGetKey@?$HashSetBase@PEAVHeightField@Gu@physx@@U?$Hash@PEAVHeightField@Gu@physx@@@shdfnd@3@VAllocator@53@$00@internal@53@VAllocator@53@$00@internal@shdfnd@physx@@QEAA@XZ 00000001801c9590 f i GuMeshFactory.obj
 0001:001c85e0       ??1?$HashBase@PEAVTriangleMesh@Gu@physx@@PEAV123@U?$Hash@PEAVTriangleMesh@Gu@physx@@@shdfnd@3@UGetKey@?$HashSetBase@PEAVTriangleMesh@Gu@physx@@U?$Hash@PEAVTriangleMesh@Gu@physx@@@shdfnd@3@VAllocator@53@$00@internal@53@VAllocator@53@$00@internal@shdfnd@physx@@QEAA@XZ 00000001801c95e0 f i GuMeshFactory.obj
 0001:001c8630       ??1?$HashSetBase@PEAVConvexMesh@Gu@physx@@U?$Hash@PEAVConvexMesh@Gu@physx@@@shdfnd@3@VAllocator@53@$00@internal@shdfnd@physx@@QEAA@XZ 00000001801c9630 f i GuMeshFactory.obj
 0001:001c8660       ??1?$HashSetBase@PEAVHeightField@Gu@physx@@U?$Hash@PEAVHeightField@Gu@physx@@@shdfnd@3@VAllocator@53@$00@internal@shdfnd@physx@@QEAA@XZ 00000001801c9660 f i GuMeshFactory.obj
 0001:001c8690       ??1?$HashSetBase@PEAVTriangleMesh@Gu@physx@@U?$Hash@PEAVTriangleMesh@Gu@physx@@@shdfnd@3@VAllocator@53@$00@internal@shdfnd@physx@@QEAA@XZ 00000001801c9690 f i GuMeshFactory.obj
 0001:001c86c0       ??A?$Array@PEAVGuMeshFactoryListener@physx@@VNamedAllocator@shdfnd@2@@shdfnd@physx@@QEAAAEAPEAVGuMeshFactoryListener@2@I@Z 00000001801c96c0 f i GuMeshFactory.obj
 0001:001c8760       ??R?$Hash@PEAVConvexMesh@Gu@physx@@@shdfnd@physx@@QEBA_NAEBQEAVConvexMesh@Gu@2@0@Z 00000001801c9760 f i GuMeshFactory.obj
 0001:001c87b0       ??R?$Hash@PEAVHeightField@Gu@physx@@@shdfnd@physx@@QEBA_NAEBQEAVHeightField@Gu@2@0@Z 00000001801c97b0 f i GuMeshFactory.obj
 0001:001c8800       ??R?$Hash@PEAVTriangleMesh@Gu@physx@@@shdfnd@physx@@QEBA_NAEBQEAVTriangleMesh@Gu@2@0@Z 00000001801c9800 f i GuMeshFactory.obj
 0001:001c8850       ?allocate@?$Array@PEAVGuMeshFactoryListener@physx@@VNamedAllocator@shdfnd@2@@shdfnd@physx@@IEAAPEAPEAVGuMeshFactoryListener@3@I@Z 00000001801c9850 f i GuMeshFactory.obj
 0001:001c8900       ?allocate@?$ReflectionAllocator@VConvexMesh@Gu@physx@@@shdfnd@physx@@QEAAPEAX_KPEBDH@Z 00000001801c9900 f i GuMeshFactory.obj
 0001:001c89a0       ?allocate@?$ReflectionAllocator@VHeightField@Gu@physx@@@shdfnd@physx@@QEAAPEAX_KPEBDH@Z 00000001801c99a0 f i GuMeshFactory.obj
 0001:001c8a40       ?allocate@?$ReflectionAllocator@VTriangleMesh@Gu@physx@@@shdfnd@physx@@QEAAPEAX_KPEBDH@Z 00000001801c9a40 f i GuMeshFactory.obj
 0001:001c8ae0       ?capacity@?$Array@PEAVGuMeshFactoryListener@physx@@VNamedAllocator@shdfnd@2@@shdfnd@physx@@QEBAIXZ 00000001801c9ae0 f i GuMeshFactory.obj
 0001:001c8b00       ?capacityIncrement@?$Array@PEAVGuMeshFactoryListener@physx@@VNamedAllocator@shdfnd@2@@shdfnd@physx@@IEBAIXZ 00000001801c9b00 f i GuMeshFactory.obj
 0001:001c8b50       ?copy@?$Array@PEAVGuMeshFactoryListener@physx@@VNamedAllocator@shdfnd@2@@shdfnd@physx@@KAXPEAPEAVGuMeshFactoryListener@3@0PEBQEAV43@@Z 00000001801c9b50 f i GuMeshFactory.obj
 0001:001c8c00       ?create@?$HashBase@PEAVConvexMesh@Gu@physx@@PEAV123@U?$Hash@PEAVConvexMesh@Gu@physx@@@shdfnd@3@UGetKey@?$HashSetBase@PEAVConvexMesh@Gu@physx@@U?$Hash@PEAVConvexMesh@Gu@physx@@@shdfnd@3@VAllocator@53@$00@internal@53@VAllocator@53@$00@internal@shdfnd@physx@@QEAAPEAPEAVConvexMesh@Gu@4@AEBQEAV564@AEA_N@Z 00000001801c9c00 f i GuMeshFactory.obj
 0001:001c8e10       ?create@?$HashBase@PEAVHeightField@Gu@physx@@PEAV123@U?$Hash@PEAVHeightField@Gu@physx@@@shdfnd@3@UGetKey@?$HashSetBase@PEAVHeightField@Gu@physx@@U?$Hash@PEAVHeightField@Gu@physx@@@shdfnd@3@VAllocator@53@$00@internal@53@VAllocator@53@$00@internal@shdfnd@physx@@QEAAPEAPEAVHeightField@Gu@4@AEBQEAV564@AEA_N@Z 00000001801c9e10 f i GuMeshFactory.obj
 0001:001c9020       ?create@?$HashBase@PEAVTriangleMesh@Gu@physx@@PEAV123@U?$Hash@PEAVTriangleMesh@Gu@physx@@@shdfnd@3@UGetKey@?$HashSetBase@PEAVTriangleMesh@Gu@physx@@U?$Hash@PEAVTriangleMesh@Gu@physx@@@shdfnd@3@VAllocator@53@$00@internal@53@VAllocator@53@$00@internal@shdfnd@physx@@QEAAPEAPEAVTriangleMesh@Gu@4@AEBQEAV564@AEA_N@Z 00000001801ca020 f i GuMeshFactory.obj
 0001:001c9230       ?deallocate@?$Array@PEAVGuMeshFactoryListener@physx@@VNamedAllocator@shdfnd@2@@shdfnd@physx@@IEAAXPEAX@Z 00000001801ca230 f i GuMeshFactory.obj
 0001:001c9260       ?destroy@?$Array@PEAVGuMeshFactoryListener@physx@@VNamedAllocator@shdfnd@2@@shdfnd@physx@@KAXPEAPEAVGuMeshFactoryListener@3@0@Z 00000001801ca260 f i GuMeshFactory.obj
 0001:001c92a0       ?destroy@?$HashBase@PEAVConvexMesh@Gu@physx@@PEAV123@U?$Hash@PEAVConvexMesh@Gu@physx@@@shdfnd@3@UGetKey@?$HashSetBase@PEAVConvexMesh@Gu@physx@@U?$Hash@PEAVConvexMesh@Gu@physx@@@shdfnd@3@VAllocator@53@$00@internal@53@VAllocator@53@$00@internal@shdfnd@physx@@AEAAXXZ 00000001801ca2a0 f i GuMeshFactory.obj
 0001:001c9320       ?destroy@?$HashBase@PEAVHeightField@Gu@physx@@PEAV123@U?$Hash@PEAVHeightField@Gu@physx@@@shdfnd@3@UGetKey@?$HashSetBase@PEAVHeightField@Gu@physx@@U?$Hash@PEAVHeightField@Gu@physx@@@shdfnd@3@VAllocator@53@$00@internal@53@VAllocator@53@$00@internal@shdfnd@physx@@AEAAXXZ 00000001801ca320 f i GuMeshFactory.obj
 0001:001c93a0       ?destroy@?$HashBase@PEAVTriangleMesh@Gu@physx@@PEAV123@U?$Hash@PEAVTriangleMesh@Gu@physx@@@shdfnd@3@UGetKey@?$HashSetBase@PEAVTriangleMesh@Gu@physx@@U?$Hash@PEAVTriangleMesh@Gu@physx@@@shdfnd@3@VAllocator@53@$00@internal@53@VAllocator@53@$00@internal@shdfnd@physx@@AEAAXXZ 00000001801ca3a0 f i GuMeshFactory.obj
 0001:001c9420       ?erase@?$HashBase@PEAVConvexMesh@Gu@physx@@PEAV123@U?$Hash@PEAVConvexMesh@Gu@physx@@@shdfnd@3@UGetKey@?$HashSetBase@PEAVConvexMesh@Gu@physx@@U?$Hash@PEAVConvexMesh@Gu@physx@@@shdfnd@3@VAllocator@53@$00@internal@53@VAllocator@53@$00@internal@shdfnd@physx@@QEAA_NAEBQEAVConvexMesh@Gu@4@@Z 00000001801ca420 f i GuMeshFactory.obj
 0001:001c95b0       ?erase@?$HashBase@PEAVHeightField@Gu@physx@@PEAV123@U?$Hash@PEAVHeightField@Gu@physx@@@shdfnd@3@UGetKey@?$HashSetBase@PEAVHeightField@Gu@physx@@U?$Hash@PEAVHeightField@Gu@physx@@@shdfnd@3@VAllocator@53@$00@internal@53@VAllocator@53@$00@internal@shdfnd@physx@@QEAA_NAEBQEAVHeightField@Gu@4@@Z 00000001801ca5b0 f i GuMeshFactory.obj
 0001:001c9740       ?erase@?$HashBase@PEAVTriangleMesh@Gu@physx@@PEAV123@U?$Hash@PEAVTriangleMesh@Gu@physx@@@shdfnd@3@UGetKey@?$HashSetBase@PEAVTriangleMesh@Gu@physx@@U?$Hash@PEAVTriangleMesh@Gu@physx@@@shdfnd@3@VAllocator@53@$00@internal@53@VAllocator@53@$00@internal@shdfnd@physx@@QEAA_NAEBQEAVTriangleMesh@Gu@4@@Z 00000001801ca740 f i GuMeshFactory.obj
 0001:001c98d0       ?erase@?$HashSetBase@PEAVConvexMesh@Gu@physx@@U?$Hash@PEAVConvexMesh@Gu@physx@@@shdfnd@3@VAllocator@53@$00@internal@shdfnd@physx@@QEAA_NAEBQEAVConvexMesh@Gu@4@@Z 00000001801ca8d0 f i GuMeshFactory.obj
 0001:001c9900       ?erase@?$HashSetBase@PEAVHeightField@Gu@physx@@U?$Hash@PEAVHeightField@Gu@physx@@@shdfnd@3@VAllocator@53@$00@internal@shdfnd@physx@@QEAA_NAEBQEAVHeightField@Gu@4@@Z 00000001801ca900 f i GuMeshFactory.obj
 0001:001c9930       ?erase@?$HashSetBase@PEAVTriangleMesh@Gu@physx@@U?$Hash@PEAVTriangleMesh@Gu@physx@@@shdfnd@3@VAllocator@53@$00@internal@shdfnd@physx@@QEAA_NAEBQEAVTriangleMesh@Gu@4@@Z 00000001801ca930 f i GuMeshFactory.obj
 0001:001c9960       ?freeListAdd@?$HashBase@PEAVConvexMesh@Gu@physx@@PEAV123@U?$Hash@PEAVConvexMesh@Gu@physx@@@shdfnd@3@UGetKey@?$HashSetBase@PEAVConvexMesh@Gu@physx@@U?$Hash@PEAVConvexMesh@Gu@physx@@@shdfnd@3@VAllocator@53@$00@internal@53@VAllocator@53@$00@internal@shdfnd@physx@@AEAAXI@Z 00000001801ca960 f i GuMeshFactory.obj
 0001:001c9a40       ?freeListAdd@?$HashBase@PEAVHeightField@Gu@physx@@PEAV123@U?$Hash@PEAVHeightField@Gu@physx@@@shdfnd@3@UGetKey@?$HashSetBase@PEAVHeightField@Gu@physx@@U?$Hash@PEAVHeightField@Gu@physx@@@shdfnd@3@VAllocator@53@$00@internal@53@VAllocator@53@$00@internal@shdfnd@physx@@AEAAXI@Z 00000001801caa40 f i GuMeshFactory.obj
 0001:001c9b20       ?freeListAdd@?$HashBase@PEAVTriangleMesh@Gu@physx@@PEAV123@U?$Hash@PEAVTriangleMesh@Gu@physx@@@shdfnd@3@UGetKey@?$HashSetBase@PEAVTriangleMesh@Gu@physx@@U?$Hash@PEAVTriangleMesh@Gu@physx@@@shdfnd@3@VAllocator@53@$00@internal@53@VAllocator@53@$00@internal@shdfnd@physx@@AEAAXI@Z 00000001801cab20 f i GuMeshFactory.obj
 0001:001c9c00       ?freeListEmpty@?$HashBase@PEAVConvexMesh@Gu@physx@@PEAV123@U?$Hash@PEAVConvexMesh@Gu@physx@@@shdfnd@3@UGetKey@?$HashSetBase@PEAVConvexMesh@Gu@physx@@U?$Hash@PEAVConvexMesh@Gu@physx@@@shdfnd@3@VAllocator@53@$00@internal@53@VAllocator@53@$00@internal@shdfnd@physx@@AEBA_NXZ 00000001801cac00 f i GuMeshFactory.obj
 0001:001c9c80       ?freeListEmpty@?$HashBase@PEAVHeightField@Gu@physx@@PEAV123@U?$Hash@PEAVHeightField@Gu@physx@@@shdfnd@3@UGetKey@?$HashSetBase@PEAVHeightField@Gu@physx@@U?$Hash@PEAVHeightField@Gu@physx@@@shdfnd@3@VAllocator@53@$00@internal@53@VAllocator@53@$00@internal@shdfnd@physx@@AEBA_NXZ 00000001801cac80 f i GuMeshFactory.obj
 0001:001c9d00       ?freeListEmpty@?$HashBase@PEAVTriangleMesh@Gu@physx@@PEAV123@U?$Hash@PEAVTriangleMesh@Gu@physx@@@shdfnd@3@UGetKey@?$HashSetBase@PEAVTriangleMesh@Gu@physx@@U?$Hash@PEAVTriangleMesh@Gu@physx@@@shdfnd@3@VAllocator@53@$00@internal@53@VAllocator@53@$00@internal@shdfnd@physx@@AEBA_NXZ 00000001801cad00 f i GuMeshFactory.obj
 0001:001c9d80       ?freeListGetNext@?$HashBase@PEAVConvexMesh@Gu@physx@@PEAV123@U?$Hash@PEAVConvexMesh@Gu@physx@@@shdfnd@3@UGetKey@?$HashSetBase@PEAVConvexMesh@Gu@physx@@U?$Hash@PEAVConvexMesh@Gu@physx@@@shdfnd@3@VAllocator@53@$00@internal@53@VAllocator@53@$00@internal@shdfnd@physx@@AEAAIXZ 00000001801cad80 f i GuMeshFactory.obj
 0001:001c9ee0       ?freeListGetNext@?$HashBase@PEAVHeightField@Gu@physx@@PEAV123@U?$Hash@PEAVHeightField@Gu@physx@@@shdfnd@3@UGetKey@?$HashSetBase@PEAVHeightField@Gu@physx@@U?$Hash@PEAVHeightField@Gu@physx@@@shdfnd@3@VAllocator@53@$00@internal@53@VAllocator@53@$00@internal@shdfnd@physx@@AEAAIXZ 00000001801caee0 f i GuMeshFactory.obj
 0001:001ca040       ?freeListGetNext@?$HashBase@PEAVTriangleMesh@Gu@physx@@PEAV123@U?$Hash@PEAVTriangleMesh@Gu@physx@@@shdfnd@3@UGetKey@?$HashSetBase@PEAVTriangleMesh@Gu@physx@@U?$Hash@PEAVTriangleMesh@Gu@physx@@@shdfnd@3@VAllocator@53@$00@internal@53@VAllocator@53@$00@internal@shdfnd@physx@@AEAAIXZ 00000001801cb040 f i GuMeshFactory.obj
 0001:001ca1a0       ?getEntries@?$CoalescedHashSet@PEAVConvexMesh@Gu@physx@@U?$Hash@PEAVConvexMesh@Gu@physx@@@shdfnd@3@VAllocator@53@@shdfnd@physx@@QEBAPEBQEAVConvexMesh@Gu@3@XZ 00000001801cb1a0 f i GuMeshFactory.obj
 0001:001ca1c0       ?getEntries@?$CoalescedHashSet@PEAVHeightField@Gu@physx@@U?$Hash@PEAVHeightField@Gu@physx@@@shdfnd@3@VAllocator@53@@shdfnd@physx@@QEBAPEBQEAVHeightField@Gu@3@XZ 00000001801cb1c0 f i GuMeshFactory.obj
 0001:001ca1e0       ?getEntries@?$CoalescedHashSet@PEAVTriangleMesh@Gu@physx@@U?$Hash@PEAVTriangleMesh@Gu@physx@@@shdfnd@3@VAllocator@53@@shdfnd@physx@@QEBAPEBQEAVTriangleMesh@Gu@3@XZ 00000001801cb1e0 f i GuMeshFactory.obj
 0001:001ca200       ?getEntries@?$HashBase@PEAVConvexMesh@Gu@physx@@PEAV123@U?$Hash@PEAVConvexMesh@Gu@physx@@@shdfnd@3@UGetKey@?$HashSetBase@PEAVConvexMesh@Gu@physx@@U?$Hash@PEAVConvexMesh@Gu@physx@@@shdfnd@3@VAllocator@53@$00@internal@53@VAllocator@53@$00@internal@shdfnd@physx@@QEBAPEBQEAVConvexMesh@Gu@4@XZ 00000001801cb200 f i GuMeshFactory.obj
 0001:001ca220       ?getEntries@?$HashBase@PEAVHeightField@Gu@physx@@PEAV123@U?$Hash@PEAVHeightField@Gu@physx@@@shdfnd@3@UGetKey@?$HashSetBase@PEAVHeightField@Gu@physx@@U?$Hash@PEAVHeightField@Gu@physx@@@shdfnd@3@VAllocator@53@$00@internal@53@VAllocator@53@$00@internal@shdfnd@physx@@QEBAPEBQEAVHeightField@Gu@4@XZ 00000001801cb220 f i GuMeshFactory.obj
 0001:001ca240       ?getEntries@?$HashBase@PEAVTriangleMesh@Gu@physx@@PEAV123@U?$Hash@PEAVTriangleMesh@Gu@physx@@@shdfnd@3@UGetKey@?$HashSetBase@PEAVTriangleMesh@Gu@physx@@U?$Hash@PEAVTriangleMesh@Gu@physx@@@shdfnd@3@VAllocator@53@$00@internal@53@VAllocator@53@$00@internal@shdfnd@physx@@QEBAPEBQEAVTriangleMesh@Gu@4@XZ 00000001801cb240 f i GuMeshFactory.obj
 0001:001ca260       ?getName@?$ReflectionAllocator@VConvexMesh@Gu@physx@@@shdfnd@physx@@CAPEBDXZ 00000001801cb260 f i GuMeshFactory.obj
 0001:001ca2b0       ?getName@?$ReflectionAllocator@VHeightField@Gu@physx@@@shdfnd@physx@@CAPEBDXZ 00000001801cb2b0 f i GuMeshFactory.obj
 0001:001ca300       ?getName@?$ReflectionAllocator@VTriangleMesh@Gu@physx@@@shdfnd@physx@@CAPEBDXZ 00000001801cb300 f i GuMeshFactory.obj
 0001:001ca350       ?grow@?$HashBase@PEAVConvexMesh@Gu@physx@@PEAV123@U?$Hash@PEAVConvexMesh@Gu@physx@@@shdfnd@3@UGetKey@?$HashSetBase@PEAVConvexMesh@Gu@physx@@U?$Hash@PEAVConvexMesh@Gu@physx@@@shdfnd@3@VAllocator@53@$00@internal@53@VAllocator@53@$00@internal@shdfnd@physx@@AEAAXXZ 00000001801cb350 f i GuMeshFactory.obj
 0001:001ca430       ?grow@?$HashBase@PEAVHeightField@Gu@physx@@PEAV123@U?$Hash@PEAVHeightField@Gu@physx@@@shdfnd@3@UGetKey@?$HashSetBase@PEAVHeightField@Gu@physx@@U?$Hash@PEAVHeightField@Gu@physx@@@shdfnd@3@VAllocator@53@$00@internal@53@VAllocator@53@$00@internal@shdfnd@physx@@AEAAXXZ 00000001801cb430 f i GuMeshFactory.obj
 0001:001ca510       ?grow@?$HashBase@PEAVTriangleMesh@Gu@physx@@PEAV123@U?$Hash@PEAVTriangleMesh@Gu@physx@@@shdfnd@3@UGetKey@?$HashSetBase@PEAVTriangleMesh@Gu@physx@@U?$Hash@PEAVTriangleMesh@Gu@physx@@@shdfnd@3@VAllocator@53@$00@internal@53@VAllocator@53@$00@internal@shdfnd@physx@@AEAAXXZ 00000001801cb510 f i GuMeshFactory.obj
 0001:001ca5f0       ?growAndPushBack@?$Array@PEAVGuMeshFactoryListener@physx@@VNamedAllocator@shdfnd@2@@shdfnd@physx@@IEAAAEAPEAVGuMeshFactoryListener@3@AEBQEAV43@@Z 00000001801cb5f0 f i GuMeshFactory.obj
 0001:001ca800       ?hash@?$HashBase@PEAVConvexMesh@Gu@physx@@PEAV123@U?$Hash@PEAVConvexMesh@Gu@physx@@@shdfnd@3@UGetKey@?$HashSetBase@PEAVConvexMesh@Gu@physx@@U?$Hash@PEAVConvexMesh@Gu@physx@@@shdfnd@3@VAllocator@53@$00@internal@53@VAllocator@53@$00@internal@shdfnd@physx@@AEBAIAEBQEAVConvexMesh@Gu@4@@Z 00000001801cb800 f i GuMeshFactory.obj
 0001:001ca840       ?hash@?$HashBase@PEAVHeightField@Gu@physx@@PEAV123@U?$Hash@PEAVHeightField@Gu@physx@@@shdfnd@3@UGetKey@?$HashSetBase@PEAVHeightField@Gu@physx@@U?$Hash@PEAVHeightField@Gu@physx@@@shdfnd@3@VAllocator@53@$00@internal@53@VAllocator@53@$00@internal@shdfnd@physx@@AEBAIAEBQEAVHeightField@Gu@4@@Z 00000001801cb840 f i GuMeshFactory.obj
 0001:001ca880       ?hash@?$HashBase@PEAVTriangleMesh@Gu@physx@@PEAV123@U?$Hash@PEAVTriangleMesh@Gu@physx@@@shdfnd@3@UGetKey@?$HashSetBase@PEAVTriangleMesh@Gu@physx@@U?$Hash@PEAVTriangleMesh@Gu@physx@@@shdfnd@3@VAllocator@53@$00@internal@53@VAllocator@53@$00@internal@shdfnd@physx@@AEBAIAEBQEAVTriangleMesh@Gu@4@@Z 00000001801cb880 f i GuMeshFactory.obj
 0001:001ca8c0       ?insert@?$HashSetBase@PEAVConvexMesh@Gu@physx@@U?$Hash@PEAVConvexMesh@Gu@physx@@@shdfnd@3@VAllocator@53@$00@internal@shdfnd@physx@@QEAA_NAEBQEAVConvexMesh@Gu@4@@Z 00000001801cb8c0 f i GuMeshFactory.obj
 0001:001ca980       ?insert@?$HashSetBase@PEAVHeightField@Gu@physx@@U?$Hash@PEAVHeightField@Gu@physx@@@shdfnd@3@VAllocator@53@$00@internal@shdfnd@physx@@QEAA_NAEBQEAVHeightField@Gu@4@@Z 00000001801cb980 f i GuMeshFactory.obj
 0001:001caa40       ?insert@?$HashSetBase@PEAVTriangleMesh@Gu@physx@@U?$Hash@PEAVTriangleMesh@Gu@physx@@@shdfnd@3@VAllocator@53@$00@internal@shdfnd@physx@@QEAA_NAEBQEAVTriangleMesh@Gu@4@@Z 00000001801cba40 f i GuMeshFactory.obj
 0001:001cab00       ?isInUserMemory@?$Array@PEAVGuMeshFactoryListener@physx@@VNamedAllocator@shdfnd@2@@shdfnd@physx@@QEBAIXZ 00000001801cbb00 f i GuMeshFactory.obj
 0001:001cab20       ?pushBack@?$Array@PEAVGuMeshFactoryListener@physx@@VNamedAllocator@shdfnd@2@@shdfnd@physx@@QEAAAEAPEAVGuMeshFactoryListener@3@AEBQEAV43@@Z 00000001801cbb20 f i GuMeshFactory.obj
 0001:001cac10       ?replaceWithLast@?$Array@PEAVGuMeshFactoryListener@physx@@VNamedAllocator@shdfnd@2@@shdfnd@physx@@QEAAXI@Z 00000001801cbc10 f i GuMeshFactory.obj
 0001:001cace0       ?replaceWithLast@?$HashBase@PEAVConvexMesh@Gu@physx@@PEAV123@U?$Hash@PEAVConvexMesh@Gu@physx@@@shdfnd@3@UGetKey@?$HashSetBase@PEAVConvexMesh@Gu@physx@@U?$Hash@PEAVConvexMesh@Gu@physx@@@shdfnd@3@VAllocator@53@$00@internal@53@VAllocator@53@$00@internal@shdfnd@physx@@AEAAXI@Z 00000001801cbce0 f i GuMeshFactory.obj
 0001:001caea0       ?replaceWithLast@?$HashBase@PEAVHeightField@Gu@physx@@PEAV123@U?$Hash@PEAVHeightField@Gu@physx@@@shdfnd@3@UGetKey@?$HashSetBase@PEAVHeightField@Gu@physx@@U?$Hash@PEAVHeightField@Gu@physx@@@shdfnd@3@VAllocator@53@$00@internal@53@VAllocator@53@$00@internal@shdfnd@physx@@AEAAXI@Z 00000001801cbea0 f i GuMeshFactory.obj
 0001:001cb060       ?replaceWithLast@?$HashBase@PEAVTriangleMesh@Gu@physx@@PEAV123@U?$Hash@PEAVTriangleMesh@Gu@physx@@@shdfnd@3@UGetKey@?$HashSetBase@PEAVTriangleMesh@Gu@physx@@U?$Hash@PEAVTriangleMesh@Gu@physx@@@shdfnd@3@VAllocator@53@$00@internal@53@VAllocator@53@$00@internal@shdfnd@physx@@AEAAXI@Z 00000001801cc060 f i GuMeshFactory.obj
 0001:001cb220       ?reserve@?$HashBase@PEAVConvexMesh@Gu@physx@@PEAV123@U?$Hash@PEAVConvexMesh@Gu@physx@@@shdfnd@3@UGetKey@?$HashSetBase@PEAVConvexMesh@Gu@physx@@U?$Hash@PEAVConvexMesh@Gu@physx@@@shdfnd@3@VAllocator@53@$00@internal@53@VAllocator@53@$00@internal@shdfnd@physx@@QEAAXI@Z 00000001801cc220 f i GuMeshFactory.obj
 0001:001cb260       ?reserve@?$HashBase@PEAVHeightField@Gu@physx@@PEAV123@U?$Hash@PEAVHeightField@Gu@physx@@@shdfnd@3@UGetKey@?$HashSetBase@PEAVHeightField@Gu@physx@@U?$Hash@PEAVHeightField@Gu@physx@@@shdfnd@3@VAllocator@53@$00@internal@53@VAllocator@53@$00@internal@shdfnd@physx@@QEAAXI@Z 00000001801cc260 f i GuMeshFactory.obj
 0001:001cb2a0       ?reserve@?$HashBase@PEAVTriangleMesh@Gu@physx@@PEAV123@U?$Hash@PEAVTriangleMesh@Gu@physx@@@shdfnd@3@UGetKey@?$HashSetBase@PEAVTriangleMesh@Gu@physx@@U?$Hash@PEAVTriangleMesh@Gu@physx@@@shdfnd@3@VAllocator@53@$00@internal@53@VAllocator@53@$00@internal@shdfnd@physx@@QEAAXI@Z 00000001801cc2a0 f i GuMeshFactory.obj
 0001:001cb2e0       ?setMeshFactory@ConvexMesh@Gu@physx@@QEAAXPEAVGuMeshFactory@3@@Z 00000001801cc2e0 f i GuMeshFactory.obj
 0001:001cb310       ?setMeshFactory@TriangleMesh@Gu@physx@@QEAAXPEAVGuMeshFactory@3@@Z 00000001801cc310 f i GuMeshFactory.obj
 0001:001cb340       ?size@?$Array@PEAVGuMeshFactoryListener@physx@@VNamedAllocator@shdfnd@2@@shdfnd@physx@@QEBAIXZ 00000001801cc340 f i GuMeshFactory.obj
 0001:001cb360       ?size@?$HashBase@PEAVConvexMesh@Gu@physx@@PEAV123@U?$Hash@PEAVConvexMesh@Gu@physx@@@shdfnd@3@UGetKey@?$HashSetBase@PEAVConvexMesh@Gu@physx@@U?$Hash@PEAVConvexMesh@Gu@physx@@@shdfnd@3@VAllocator@53@$00@internal@53@VAllocator@53@$00@internal@shdfnd@physx@@QEBAIXZ 00000001801cc360 f i GuMeshFactory.obj
 0001:001cb380       ?size@?$HashBase@PEAVHeightField@Gu@physx@@PEAV123@U?$Hash@PEAVHeightField@Gu@physx@@@shdfnd@3@UGetKey@?$HashSetBase@PEAVHeightField@Gu@physx@@U?$Hash@PEAVHeightField@Gu@physx@@@shdfnd@3@VAllocator@53@$00@internal@53@VAllocator@53@$00@internal@shdfnd@physx@@QEBAIXZ 00000001801cc380 f i GuMeshFactory.obj
 0001:001cb3a0       ?size@?$HashBase@PEAVTriangleMesh@Gu@physx@@PEAV123@U?$Hash@PEAVTriangleMesh@Gu@physx@@@shdfnd@3@UGetKey@?$HashSetBase@PEAVTriangleMesh@Gu@physx@@U?$Hash@PEAVTriangleMesh@Gu@physx@@@shdfnd@3@VAllocator@53@$00@internal@53@VAllocator@53@$00@internal@shdfnd@physx@@QEBAIXZ 00000001801cc3a0 f i GuMeshFactory.obj
 0001:001cb3c0       ?size@?$HashSetBase@PEAVConvexMesh@Gu@physx@@U?$Hash@PEAVConvexMesh@Gu@physx@@@shdfnd@3@VAllocator@53@$00@internal@shdfnd@physx@@QEBAIXZ 00000001801cc3c0 f i GuMeshFactory.obj
 0001:001cb3f0       ?size@?$HashSetBase@PEAVHeightField@Gu@physx@@U?$Hash@PEAVHeightField@Gu@physx@@@shdfnd@3@VAllocator@53@$00@internal@shdfnd@physx@@QEBAIXZ 00000001801cc3f0 f i GuMeshFactory.obj
 0001:001cb420       ?size@?$HashSetBase@PEAVTriangleMesh@Gu@physx@@U?$Hash@PEAVTriangleMesh@Gu@physx@@@shdfnd@3@VAllocator@53@$00@internal@shdfnd@physx@@QEBAIXZ 00000001801cc420 f i GuMeshFactory.obj
 0001:001cb450       ?getBinaryMetaData@HeightField@Gu@physx@@SAXAEAVPxOutputStream@3@@Z 00000001801cc450 f   GuMetaData.obj
 0001:001cba70       ?getBinaryMetaData@BigConvexData@physx@@SAXAEAVPxOutputStream@2@@Z 00000001801cca70 f   GuMetaData.obj
 0001:001cbe70       ?getBinaryMetaData@ConvexMesh@Gu@physx@@SAXAEAVPxOutputStream@3@@Z 00000001801cce70 f   GuMetaData.obj
 0001:001cc8b0       ?getBinaryMetaData@MeshInterface@Gu@physx@@SAXAEAVPxOutputStream@3@@Z 00000001801cd8b0 f   GuMetaData.obj
 0001:001ccba0       ?getBinaryMetaData@RTree@Gu@physx@@SAXAEAVPxOutputStream@3@@Z 00000001801cdba0 f   GuMetaData.obj
 0001:001cd2b0       ?getBinaryMetaData@RTreeMidphase@Gu@physx@@SAXAEAVPxOutputStream@3@@Z 00000001801ce2b0 f   GuMetaData.obj
 0001:001cd4b0       ?getBinaryMetaData@InternalTriangleMesh@physx@@SAXAEAVPxOutputStream@2@@Z 00000001801ce4b0 f   GuMetaData.obj
 0001:001cdae0       ?getBinaryMetaData@TriangleMesh@Gu@physx@@SAXAEAVPxOutputStream@3@@Z 00000001801ceae0 f   GuMetaData.obj
 0001:001cddf0       ?getBinaryMetaData@MaterialIndicesStruct@physx@@SAXAEAVPxOutputStream@2@@Z 00000001801cedf0 f   GuMetaData.obj
 0001:001ce0e0       ?getBinaryMetaData@GeometryUnion@Gu@physx@@SAXAEAVPxOutputStream@3@@Z 00000001801cf0e0 f   GuMetaData.obj
 0001:001d3dc0       ?computeMTD_SphereSphere@Gu@physx@@YA_NAEAVPxVec3@2@AEAMAEBVSphere@12@2@Z 00000001801d4dc0 f   GuMTD.obj
 0001:001d3e80       ?computeMTD_SphereCapsule@Gu@physx@@YA_NAEAVPxVec3@2@AEAMAEBVSphere@12@AEBVCapsule@12@@Z 00000001801d4e80 f   GuMTD.obj
 0001:001d3f80       ?computeMTD_SphereBox@Gu@physx@@YA_NAEAVPxVec3@2@AEAMAEBVSphere@12@AEBVBox@12@@Z 00000001801d4f80 f   GuMTD.obj
 0001:001d4080       ?computeMTD_CapsuleCapsule@Gu@physx@@YA_NAEAVPxVec3@2@AEAMAEBVCapsule@12@2@Z 00000001801d5080 f   GuMTD.obj
 0001:001d41a0       ?computeMTD_CapsuleBox@Gu@physx@@YA_NAEAVPxVec3@2@AEAMAEBVCapsule@12@AEBVBox@12@@Z 00000001801d51a0 f   GuMTD.obj
 0001:001d43b0       ?computeMTD_BoxBox@Gu@physx@@YA_NAEAVPxVec3@2@AEAMAEBVBox@12@2@Z 00000001801d53b0 f   GuMTD.obj
 0001:001d46c0       ?computeMTD_SphereConvex@Gu@physx@@YA_NAEAVPxVec3@2@AEAMAEBVSphere@12@AEBVPxConvexMeshGeometry@2@AEBVPxTransform@2@@Z 00000001801d56c0 f   GuMTD.obj
 0001:001d48f0       ?computeMTD_BoxConvex@Gu@physx@@YA_NAEAVPxVec3@2@AEAMAEBVBox@12@AEBVPxConvexMeshGeometry@2@AEBVPxTransform@2@@Z 00000001801d58f0 f   GuMTD.obj
 0001:001d4c80       ?computeMTD_CapsuleConvex@Gu@physx@@YA_NAEAVPxVec3@2@AEAMAEBVCapsule@12@AEBVPxTransform@2@AEBVPxConvexMeshGeometry@2@3@Z 00000001801d5c80 f   GuMTD.obj
 0001:001d5070       ?computeMTD_ConvexConvex@Gu@physx@@YA_NAEAVPxVec3@2@AEAMAEBVPxConvexMeshGeometry@2@AEBVPxTransform@2@23@Z 00000001801d6070 f   GuMTD.obj
 0001:001d5430       ?computeMTD_SpherePlane@Gu@physx@@YA_NAEAVPxVec3@2@AEAMAEBVSphere@12@AEBVPxPlane@2@@Z 00000001801d6430 f   GuMTD.obj
 0001:001d54c0       ?computeMTD_PlaneBox@Gu@physx@@YA_NAEAVPxVec3@2@AEAMAEBVPxPlane@2@AEBVBox@12@@Z 00000001801d64c0 f   GuMTD.obj
 0001:001d55f0       ?computeMTD_PlaneCapsule@Gu@physx@@YA_NAEAVPxVec3@2@AEAMAEBVPxPlane@2@AEBVCapsule@12@@Z 00000001801d65f0 f   GuMTD.obj
 0001:001d56c0       ?computeMTD_PlaneConvex@Gu@physx@@YA_NAEAVPxVec3@2@AEAMAEBVPxPlane@2@AEBVPxConvexMeshGeometry@2@AEBVPxTransform@2@@Z 00000001801d66c0 f   GuMTD.obj
 0001:001d5820       ?computeMTD_SphereMesh@Gu@physx@@YA_NAEAVPxVec3@2@AEAMAEBVSphere@12@AEBVPxTriangleMeshGeometry@2@AEBVPxTransform@2@@Z 00000001801d6820 f   GuMTD.obj
 0001:001d5990       ?computeMTD_BoxMesh@Gu@physx@@YA_NAEAVPxVec3@2@AEAMAEBVBox@12@AEBVPxTriangleMeshGeometry@2@AEBVPxTransform@2@@Z 00000001801d6990 f   GuMTD.obj
 0001:001d5b40       ?computeMTD_CapsuleMesh@Gu@physx@@YA_NAEAVPxVec3@2@AEAMAEBVCapsule@12@AEBVPxTriangleMeshGeometry@2@AEBVPxTransform@2@@Z 00000001801d6b40 f   GuMTD.obj
 0001:001d5cd0       ?computeMTD_ConvexMesh@Gu@physx@@YA_NAEAVPxVec3@2@AEAMAEBVPxConvexMeshGeometry@2@AEBVPxTransform@2@AEBVPxTriangleMeshGeometry@2@3@Z 00000001801d6cd0 f   GuMTD.obj
 0001:001d5e20       ?computeMTD_SphereHeightField@Gu@physx@@YA_NAEAVPxVec3@2@AEAMAEBVSphere@12@AEBVPxHeightFieldGeometry@2@AEBVPxTransform@2@@Z 00000001801d6e20 f   GuMTD.obj
 0001:001d5fa0       ?computeMTD_CapsuleHeightField@Gu@physx@@YA_NAEAVPxVec3@2@AEAMAEBVCapsule@12@AEBVPxHeightFieldGeometry@2@AEBVPxTransform@2@@Z 00000001801d6fa0 f   GuMTD.obj
 0001:001d6130       ?computeMTD_BoxHeightField@Gu@physx@@YA_NAEAVPxVec3@2@AEAMAEBVBox@12@AEBVPxHeightFieldGeometry@2@AEBVPxTransform@2@@Z 00000001801d7130 f   GuMTD.obj
 0001:001d62e0       ?computeMTD_ConvexHeightField@Gu@physx@@YA_NAEAVPxVec3@2@AEAMAEBVPxConvexMeshGeometry@2@AEBVPxTransform@2@AEBVPxHeightFieldGeometry@2@3@Z 00000001801d72e0 f   GuMTD.obj
 0001:001d7330       ?pointConvexDistance@@YA_NAEAVPxVec3@physx@@0AEAMAEBV12@PEBVConvexMesh@Gu@2@AEBVPxMeshScale@2@AEBVPxTransform@2@@Z 00000001801d8330 f   GuMTD.obj
 0001:001db870       ??0Cache@Gu@physx@@QEAA@XZ 00000001801dc870 f i GuMTD.obj
 0001:001db890       ??0ContactBuffer@Gu@physx@@QEAA@XZ 00000001801dc890 f i GuMTD.obj
